
SAMD.elf:     file format elf32-littlearm

Sections:
Idx Name          Size      VMA       LMA       File off  Algn
  0 .text         0000692c  00000000  00000000  00008000  2**3
                  CONTENTS, ALLOC, LOAD, READONLY, CODE
  1 .relocate     00000080  20000000  0000692c  00010000  2**2
                  CONTENTS, ALLOC, LOAD, DATA
  2 .bss          00000128  20000080  000069ac  00010080  2**2
                  ALLOC
  3 .stack        00001000  200001a8  00006ad4  00010080  2**0
                  ALLOC
  4 .ARM.attributes 00000028  00000000  00000000  00010080  2**0
                  CONTENTS, READONLY
  5 .comment      0000005b  00000000  00000000  000100a8  2**0
                  CONTENTS, READONLY
  6 .debug_frame  00000670  00000000  00000000  00010104  2**2
                  CONTENTS, READONLY, DEBUGGING

Disassembly of section .text:

00000000 <_sfixed>:
       0:	200011a8 	.word	0x200011a8
       4:	000014c5 	.word	0x000014c5
       8:	000014c1 	.word	0x000014c1
       c:	000014c1 	.word	0x000014c1
	...
      2c:	000014c1 	.word	0x000014c1
	...
      38:	000014c1 	.word	0x000014c1
      3c:	000014c1 	.word	0x000014c1
      40:	000014c1 	.word	0x000014c1
      44:	000014c1 	.word	0x000014c1
      48:	000014c1 	.word	0x000014c1
      4c:	000014c1 	.word	0x000014c1
      50:	000014c1 	.word	0x000014c1
      54:	000014c1 	.word	0x000014c1
      58:	000014c1 	.word	0x000014c1
      5c:	000014c1 	.word	0x000014c1
      60:	000014c1 	.word	0x000014c1
      64:	000014c1 	.word	0x000014c1
      68:	000014c1 	.word	0x000014c1
      6c:	000014c1 	.word	0x000014c1
      70:	000014c1 	.word	0x000014c1
      74:	000014c1 	.word	0x000014c1
      78:	000014c1 	.word	0x000014c1
      7c:	000014c1 	.word	0x000014c1
      80:	000014c1 	.word	0x000014c1
      84:	000014c1 	.word	0x000014c1
      88:	000014c1 	.word	0x000014c1
      8c:	000014c1 	.word	0x000014c1
      90:	000014c1 	.word	0x000014c1
      94:	000014c1 	.word	0x000014c1
      98:	000014c1 	.word	0x000014c1
      9c:	000014c1 	.word	0x000014c1
      a0:	000014c1 	.word	0x000014c1

000000a4 <__do_global_dtors_aux>:
      a4:	b510      	push	{r4, lr}
      a6:	4c06      	ldr	r4, [pc, #24]	; (c0 <__do_global_dtors_aux+0x1c>)
      a8:	7823      	ldrb	r3, [r4, #0]
      aa:	2b00      	cmp	r3, #0
      ac:	d107      	bne.n	be <__do_global_dtors_aux+0x1a>
      ae:	4b05      	ldr	r3, [pc, #20]	; (c4 <__do_global_dtors_aux+0x20>)
      b0:	2b00      	cmp	r3, #0
      b2:	d002      	beq.n	ba <__do_global_dtors_aux+0x16>
      b4:	4804      	ldr	r0, [pc, #16]	; (c8 <__do_global_dtors_aux+0x24>)
      b6:	e000      	b.n	ba <__do_global_dtors_aux+0x16>
      b8:	bf00      	nop
      ba:	2301      	movs	r3, #1
      bc:	7023      	strb	r3, [r4, #0]
      be:	bd10      	pop	{r4, pc}
      c0:	20000080 	.word	0x20000080
      c4:	00000000 	.word	0x00000000
      c8:	0000692c 	.word	0x0000692c

000000cc <frame_dummy>:
      cc:	b508      	push	{r3, lr}
      ce:	4b08      	ldr	r3, [pc, #32]	; (f0 <frame_dummy+0x24>)
      d0:	2b00      	cmp	r3, #0
      d2:	d003      	beq.n	dc <frame_dummy+0x10>
      d4:	4807      	ldr	r0, [pc, #28]	; (f4 <frame_dummy+0x28>)
      d6:	4908      	ldr	r1, [pc, #32]	; (f8 <frame_dummy+0x2c>)
      d8:	e000      	b.n	dc <frame_dummy+0x10>
      da:	bf00      	nop
      dc:	4807      	ldr	r0, [pc, #28]	; (fc <frame_dummy+0x30>)
      de:	6803      	ldr	r3, [r0, #0]
      e0:	2b00      	cmp	r3, #0
      e2:	d003      	beq.n	ec <frame_dummy+0x20>
      e4:	4b06      	ldr	r3, [pc, #24]	; (100 <frame_dummy+0x34>)
      e6:	2b00      	cmp	r3, #0
      e8:	d000      	beq.n	ec <frame_dummy+0x20>
      ea:	4798      	blx	r3
      ec:	bd08      	pop	{r3, pc}
      ee:	46c0      	nop			; (mov r8, r8)
      f0:	00000000 	.word	0x00000000
      f4:	0000692c 	.word	0x0000692c
      f8:	20000084 	.word	0x20000084
      fc:	0000692c 	.word	0x0000692c
     100:	00000000 	.word	0x00000000

00000104 <i2c_master_init>:
     104:	b5f0      	push	{r4, r5, r6, r7, lr}
     106:	b087      	sub	sp, #28
     108:	6001      	str	r1, [r0, #0]
     10a:	9002      	str	r0, [sp, #8]
     10c:	4e48      	ldr	r6, [pc, #288]	; (230 <i2c_master_init+0x12c>)
     10e:	1c08      	adds	r0, r1, #0
     110:	1c14      	adds	r4, r2, #0
     112:	1c0d      	adds	r5, r1, #0
     114:	47b0      	blx	r6
     116:	2701      	movs	r7, #1
     118:	4b46      	ldr	r3, [pc, #280]	; (234 <i2c_master_init+0x130>)
     11a:	1c82      	adds	r2, r0, #2
     11c:	1c3e      	adds	r6, r7, #0
     11e:	6a19      	ldr	r1, [r3, #32]
     120:	4096      	lsls	r6, r2
     122:	1c32      	adds	r2, r6, #0
     124:	430a      	orrs	r2, r1
     126:	621a      	str	r2, [r3, #32]
     128:	1c06      	adds	r6, r0, #0
     12a:	7923      	ldrb	r3, [r4, #4]
     12c:	360d      	adds	r6, #13
     12e:	466a      	mov	r2, sp
     130:	b2f6      	uxtb	r6, r6
     132:	7413      	strb	r3, [r2, #16]
     134:	a904      	add	r1, sp, #16
     136:	1c30      	adds	r0, r6, #0
     138:	4b3f      	ldr	r3, [pc, #252]	; (238 <i2c_master_init+0x134>)
     13a:	4798      	blx	r3
     13c:	1c30      	adds	r0, r6, #0
     13e:	4b3f      	ldr	r3, [pc, #252]	; (23c <i2c_master_init+0x138>)
     140:	4798      	blx	r3
     142:	4b3f      	ldr	r3, [pc, #252]	; (240 <i2c_master_init+0x13c>)
     144:	7920      	ldrb	r0, [r4, #4]
     146:	2100      	movs	r1, #0
     148:	4798      	blx	r3
     14a:	682b      	ldr	r3, [r5, #0]
     14c:	201c      	movs	r0, #28
     14e:	079e      	lsls	r6, r3, #30
     150:	d46c      	bmi.n	22c <i2c_master_init+0x128>
     152:	682b      	ldr	r3, [r5, #0]
     154:	2005      	movs	r0, #5
     156:	403b      	ands	r3, r7
     158:	9301      	str	r3, [sp, #4]
     15a:	d167      	bne.n	22c <i2c_master_init+0x128>
     15c:	9a02      	ldr	r2, [sp, #8]
     15e:	2314      	movs	r3, #20
     160:	602b      	str	r3, [r5, #0]
     162:	6816      	ldr	r6, [r2, #0]
     164:	4b32      	ldr	r3, [pc, #200]	; (230 <i2c_master_init+0x12c>)
     166:	1c30      	adds	r0, r6, #0
     168:	4798      	blx	r3
     16a:	ad05      	add	r5, sp, #20
     16c:	2380      	movs	r3, #128	; 0x80
     16e:	9a01      	ldr	r2, [sp, #4]
     170:	702b      	strb	r3, [r5, #0]
     172:	6961      	ldr	r1, [r4, #20]
     174:	69a3      	ldr	r3, [r4, #24]
     176:	9003      	str	r0, [sp, #12]
     178:	706a      	strb	r2, [r5, #1]
     17a:	70af      	strb	r7, [r5, #2]
     17c:	70ea      	strb	r2, [r5, #3]
     17e:	9301      	str	r3, [sp, #4]
     180:	2900      	cmp	r1, #0
     182:	d103      	bne.n	18c <i2c_master_init+0x88>
     184:	1c30      	adds	r0, r6, #0
     186:	4b2f      	ldr	r3, [pc, #188]	; (244 <i2c_master_init+0x140>)
     188:	4798      	blx	r3
     18a:	1c01      	adds	r1, r0, #0
     18c:	7029      	strb	r1, [r5, #0]
     18e:	0c09      	lsrs	r1, r1, #16
     190:	2302      	movs	r3, #2
     192:	b2c8      	uxtb	r0, r1
     194:	4f2c      	ldr	r7, [pc, #176]	; (248 <i2c_master_init+0x144>)
     196:	1c29      	adds	r1, r5, #0
     198:	706b      	strb	r3, [r5, #1]
     19a:	47b8      	blx	r7
     19c:	9a01      	ldr	r2, [sp, #4]
     19e:	2a00      	cmp	r2, #0
     1a0:	d104      	bne.n	1ac <i2c_master_init+0xa8>
     1a2:	1c30      	adds	r0, r6, #0
     1a4:	2101      	movs	r1, #1
     1a6:	4b27      	ldr	r3, [pc, #156]	; (244 <i2c_master_init+0x140>)
     1a8:	4798      	blx	r3
     1aa:	9001      	str	r0, [sp, #4]
     1ac:	9b01      	ldr	r3, [sp, #4]
     1ae:	4a26      	ldr	r2, [pc, #152]	; (248 <i2c_master_init+0x144>)
     1b0:	0c18      	lsrs	r0, r3, #16
     1b2:	2702      	movs	r7, #2
     1b4:	b2c0      	uxtb	r0, r0
     1b6:	1c29      	adds	r1, r5, #0
     1b8:	702b      	strb	r3, [r5, #0]
     1ba:	706f      	strb	r7, [r5, #1]
     1bc:	4790      	blx	r2
     1be:	89a3      	ldrh	r3, [r4, #12]
     1c0:	9a02      	ldr	r2, [sp, #8]
     1c2:	80d3      	strh	r3, [r2, #6]
     1c4:	89e3      	ldrh	r3, [r4, #14]
     1c6:	8113      	strh	r3, [r2, #8]
     1c8:	7c22      	ldrb	r2, [r4, #16]
     1ca:	2380      	movs	r3, #128	; 0x80
     1cc:	2a00      	cmp	r2, #0
     1ce:	d105      	bne.n	1dc <i2c_master_init+0xd8>
     1d0:	4b1e      	ldr	r3, [pc, #120]	; (24c <i2c_master_init+0x148>)
     1d2:	789b      	ldrb	r3, [r3, #2]
     1d4:	401f      	ands	r7, r3
     1d6:	1e7b      	subs	r3, r7, #1
     1d8:	419f      	sbcs	r7, r3
     1da:	01fb      	lsls	r3, r7, #7
     1dc:	68a2      	ldr	r2, [r4, #8]
     1de:	2a00      	cmp	r2, #0
     1e0:	d000      	beq.n	1e4 <i2c_master_init+0xe0>
     1e2:	4313      	orrs	r3, r2
     1e4:	7f22      	ldrb	r2, [r4, #28]
     1e6:	2a00      	cmp	r2, #0
     1e8:	d002      	beq.n	1f0 <i2c_master_init+0xec>
     1ea:	2280      	movs	r2, #128	; 0x80
     1ec:	05d2      	lsls	r2, r2, #23
     1ee:	4313      	orrs	r3, r2
     1f0:	6a22      	ldr	r2, [r4, #32]
     1f2:	2a00      	cmp	r2, #0
     1f4:	d000      	beq.n	1f8 <i2c_master_init+0xf4>
     1f6:	4313      	orrs	r3, r2
     1f8:	6837      	ldr	r7, [r6, #0]
     1fa:	9803      	ldr	r0, [sp, #12]
     1fc:	433b      	orrs	r3, r7
     1fe:	6033      	str	r3, [r6, #0]
     200:	2380      	movs	r3, #128	; 0x80
     202:	005b      	lsls	r3, r3, #1
     204:	300d      	adds	r0, #13
     206:	6073      	str	r3, [r6, #4]
     208:	b2c0      	uxtb	r0, r0
     20a:	4b11      	ldr	r3, [pc, #68]	; (250 <i2c_master_init+0x14c>)
     20c:	4798      	blx	r3
     20e:	6823      	ldr	r3, [r4, #0]
     210:	21fa      	movs	r1, #250	; 0xfa
     212:	00c9      	lsls	r1, r1, #3
     214:	4359      	muls	r1, r3
     216:	1e4b      	subs	r3, r1, #1
     218:	1818      	adds	r0, r3, r0
     21a:	4b0e      	ldr	r3, [pc, #56]	; (254 <i2c_master_init+0x150>)
     21c:	4798      	blx	r3
     21e:	1f43      	subs	r3, r0, #5
     220:	2040      	movs	r0, #64	; 0x40
     222:	2bff      	cmp	r3, #255	; 0xff
     224:	d802      	bhi.n	22c <i2c_master_init+0x128>
     226:	b29b      	uxth	r3, r3
     228:	8173      	strh	r3, [r6, #10]
     22a:	2000      	movs	r0, #0
     22c:	b007      	add	sp, #28
     22e:	bdf0      	pop	{r4, r5, r6, r7, pc}
     230:	00000401 	.word	0x00000401
     234:	40000400 	.word	0x40000400
     238:	00001399 	.word	0x00001399
     23c:	00001311 	.word	0x00001311
     240:	00000259 	.word	0x00000259
     244:	000002a1 	.word	0x000002a1
     248:	0000146d 	.word	0x0000146d
     24c:	41002000 	.word	0x41002000
     250:	000013b5 	.word	0x000013b5
     254:	00003595 	.word	0x00003595

00000258 <sercom_set_gclk_generator>:
     258:	b537      	push	{r0, r1, r2, r4, r5, lr}
     25a:	4b0e      	ldr	r3, [pc, #56]	; (294 <sercom_set_gclk_generator+0x3c>)
     25c:	1c04      	adds	r4, r0, #0
     25e:	781a      	ldrb	r2, [r3, #0]
     260:	1c1d      	adds	r5, r3, #0
     262:	2a00      	cmp	r2, #0
     264:	d001      	beq.n	26a <sercom_set_gclk_generator+0x12>
     266:	2900      	cmp	r1, #0
     268:	d00c      	beq.n	284 <sercom_set_gclk_generator+0x2c>
     26a:	a901      	add	r1, sp, #4
     26c:	200c      	movs	r0, #12
     26e:	4b0a      	ldr	r3, [pc, #40]	; (298 <sercom_set_gclk_generator+0x40>)
     270:	700c      	strb	r4, [r1, #0]
     272:	4798      	blx	r3
     274:	200c      	movs	r0, #12
     276:	4b09      	ldr	r3, [pc, #36]	; (29c <sercom_set_gclk_generator+0x44>)
     278:	4798      	blx	r3
     27a:	2301      	movs	r3, #1
     27c:	706c      	strb	r4, [r5, #1]
     27e:	702b      	strb	r3, [r5, #0]
     280:	2000      	movs	r0, #0
     282:	e006      	b.n	292 <sercom_set_gclk_generator+0x3a>
     284:	785a      	ldrb	r2, [r3, #1]
     286:	201d      	movs	r0, #29
     288:	1b14      	subs	r4, r2, r4
     28a:	1e62      	subs	r2, r4, #1
     28c:	4194      	sbcs	r4, r2
     28e:	4264      	negs	r4, r4
     290:	4020      	ands	r0, r4
     292:	bd3e      	pop	{r1, r2, r3, r4, r5, pc}
     294:	2000009c 	.word	0x2000009c
     298:	00001399 	.word	0x00001399
     29c:	00001311 	.word	0x00001311

000002a0 <_sercom_get_default_pad>:
     2a0:	4a3a      	ldr	r2, [pc, #232]	; (38c <_sercom_get_default_pad+0xec>)
     2a2:	1c03      	adds	r3, r0, #0
     2a4:	b500      	push	{lr}
     2a6:	1c08      	adds	r0, r1, #0
     2a8:	4293      	cmp	r3, r2
     2aa:	d02b      	beq.n	304 <_sercom_get_default_pad+0x64>
     2ac:	d806      	bhi.n	2bc <_sercom_get_default_pad+0x1c>
     2ae:	4a38      	ldr	r2, [pc, #224]	; (390 <_sercom_get_default_pad+0xf0>)
     2b0:	4293      	cmp	r3, r2
     2b2:	d00d      	beq.n	2d0 <_sercom_get_default_pad+0x30>
     2b4:	4a37      	ldr	r2, [pc, #220]	; (394 <_sercom_get_default_pad+0xf4>)
     2b6:	4293      	cmp	r3, r2
     2b8:	d017      	beq.n	2ea <_sercom_get_default_pad+0x4a>
     2ba:	e057      	b.n	36c <_sercom_get_default_pad+0xcc>
     2bc:	4a36      	ldr	r2, [pc, #216]	; (398 <_sercom_get_default_pad+0xf8>)
     2be:	4293      	cmp	r3, r2
     2c0:	d03a      	beq.n	338 <_sercom_get_default_pad+0x98>
     2c2:	4a36      	ldr	r2, [pc, #216]	; (39c <_sercom_get_default_pad+0xfc>)
     2c4:	4293      	cmp	r3, r2
     2c6:	d044      	beq.n	352 <_sercom_get_default_pad+0xb2>
     2c8:	4a35      	ldr	r2, [pc, #212]	; (3a0 <_sercom_get_default_pad+0x100>)
     2ca:	4293      	cmp	r3, r2
     2cc:	d14e      	bne.n	36c <_sercom_get_default_pad+0xcc>
     2ce:	e026      	b.n	31e <_sercom_get_default_pad+0x7e>
     2d0:	2300      	movs	r3, #0
     2d2:	2903      	cmp	r1, #3
     2d4:	d857      	bhi.n	386 <_sercom_get_default_pad+0xe6>
     2d6:	f003 f953 	bl	3580 <__gnu_thumb1_case_uqi>
     2da:	4b02      	.short	0x4b02
     2dc:	0604      	.short	0x0604
     2de:	4b31      	ldr	r3, [pc, #196]	; (3a4 <_sercom_get_default_pad+0x104>)
     2e0:	e051      	b.n	386 <_sercom_get_default_pad+0xe6>
     2e2:	4b31      	ldr	r3, [pc, #196]	; (3a8 <_sercom_get_default_pad+0x108>)
     2e4:	e04f      	b.n	386 <_sercom_get_default_pad+0xe6>
     2e6:	4b31      	ldr	r3, [pc, #196]	; (3ac <_sercom_get_default_pad+0x10c>)
     2e8:	e04d      	b.n	386 <_sercom_get_default_pad+0xe6>
     2ea:	2300      	movs	r3, #0
     2ec:	2903      	cmp	r1, #3
     2ee:	d84a      	bhi.n	386 <_sercom_get_default_pad+0xe6>
     2f0:	f003 f946 	bl	3580 <__gnu_thumb1_case_uqi>
     2f4:	06044002 	.word	0x06044002
     2f8:	2303      	movs	r3, #3
     2fa:	e044      	b.n	386 <_sercom_get_default_pad+0xe6>
     2fc:	4b2c      	ldr	r3, [pc, #176]	; (3b0 <_sercom_get_default_pad+0x110>)
     2fe:	e042      	b.n	386 <_sercom_get_default_pad+0xe6>
     300:	4b2c      	ldr	r3, [pc, #176]	; (3b4 <_sercom_get_default_pad+0x114>)
     302:	e040      	b.n	386 <_sercom_get_default_pad+0xe6>
     304:	2300      	movs	r3, #0
     306:	2903      	cmp	r1, #3
     308:	d83d      	bhi.n	386 <_sercom_get_default_pad+0xe6>
     30a:	f003 f939 	bl	3580 <__gnu_thumb1_case_uqi>
     30e:	3502      	.short	0x3502
     310:	0604      	.short	0x0604
     312:	4b29      	ldr	r3, [pc, #164]	; (3b8 <_sercom_get_default_pad+0x118>)
     314:	e037      	b.n	386 <_sercom_get_default_pad+0xe6>
     316:	4b29      	ldr	r3, [pc, #164]	; (3bc <_sercom_get_default_pad+0x11c>)
     318:	e035      	b.n	386 <_sercom_get_default_pad+0xe6>
     31a:	4b29      	ldr	r3, [pc, #164]	; (3c0 <_sercom_get_default_pad+0x120>)
     31c:	e033      	b.n	386 <_sercom_get_default_pad+0xe6>
     31e:	2300      	movs	r3, #0
     320:	2903      	cmp	r1, #3
     322:	d830      	bhi.n	386 <_sercom_get_default_pad+0xe6>
     324:	f003 f92c 	bl	3580 <__gnu_thumb1_case_uqi>
     328:	06042a02 	.word	0x06042a02
     32c:	4b25      	ldr	r3, [pc, #148]	; (3c4 <_sercom_get_default_pad+0x124>)
     32e:	e02a      	b.n	386 <_sercom_get_default_pad+0xe6>
     330:	4b25      	ldr	r3, [pc, #148]	; (3c8 <_sercom_get_default_pad+0x128>)
     332:	e028      	b.n	386 <_sercom_get_default_pad+0xe6>
     334:	4b25      	ldr	r3, [pc, #148]	; (3cc <_sercom_get_default_pad+0x12c>)
     336:	e026      	b.n	386 <_sercom_get_default_pad+0xe6>
     338:	2300      	movs	r3, #0
     33a:	2903      	cmp	r1, #3
     33c:	d823      	bhi.n	386 <_sercom_get_default_pad+0xe6>
     33e:	f003 f91f 	bl	3580 <__gnu_thumb1_case_uqi>
     342:	1f02      	.short	0x1f02
     344:	0604      	.short	0x0604
     346:	4b22      	ldr	r3, [pc, #136]	; (3d0 <_sercom_get_default_pad+0x130>)
     348:	e01d      	b.n	386 <_sercom_get_default_pad+0xe6>
     34a:	4b22      	ldr	r3, [pc, #136]	; (3d4 <_sercom_get_default_pad+0x134>)
     34c:	e01b      	b.n	386 <_sercom_get_default_pad+0xe6>
     34e:	4b22      	ldr	r3, [pc, #136]	; (3d8 <_sercom_get_default_pad+0x138>)
     350:	e019      	b.n	386 <_sercom_get_default_pad+0xe6>
     352:	2300      	movs	r3, #0
     354:	2903      	cmp	r1, #3
     356:	d816      	bhi.n	386 <_sercom_get_default_pad+0xe6>
     358:	f003 f912 	bl	3580 <__gnu_thumb1_case_uqi>
     35c:	06041402 	.word	0x06041402
     360:	4b1e      	ldr	r3, [pc, #120]	; (3dc <_sercom_get_default_pad+0x13c>)
     362:	e010      	b.n	386 <_sercom_get_default_pad+0xe6>
     364:	4b1e      	ldr	r3, [pc, #120]	; (3e0 <_sercom_get_default_pad+0x140>)
     366:	e00e      	b.n	386 <_sercom_get_default_pad+0xe6>
     368:	4b1e      	ldr	r3, [pc, #120]	; (3e4 <_sercom_get_default_pad+0x144>)
     36a:	e00c      	b.n	386 <_sercom_get_default_pad+0xe6>
     36c:	2300      	movs	r3, #0
     36e:	e00a      	b.n	386 <_sercom_get_default_pad+0xe6>
     370:	4b1d      	ldr	r3, [pc, #116]	; (3e8 <_sercom_get_default_pad+0x148>)
     372:	e008      	b.n	386 <_sercom_get_default_pad+0xe6>
     374:	4b1d      	ldr	r3, [pc, #116]	; (3ec <_sercom_get_default_pad+0x14c>)
     376:	e006      	b.n	386 <_sercom_get_default_pad+0xe6>
     378:	4b1d      	ldr	r3, [pc, #116]	; (3f0 <_sercom_get_default_pad+0x150>)
     37a:	e004      	b.n	386 <_sercom_get_default_pad+0xe6>
     37c:	4b1d      	ldr	r3, [pc, #116]	; (3f4 <_sercom_get_default_pad+0x154>)
     37e:	e002      	b.n	386 <_sercom_get_default_pad+0xe6>
     380:	4b1d      	ldr	r3, [pc, #116]	; (3f8 <_sercom_get_default_pad+0x158>)
     382:	e000      	b.n	386 <_sercom_get_default_pad+0xe6>
     384:	4b1d      	ldr	r3, [pc, #116]	; (3fc <_sercom_get_default_pad+0x15c>)
     386:	1c18      	adds	r0, r3, #0
     388:	bd00      	pop	{pc}
     38a:	46c0      	nop			; (mov r8, r8)
     38c:	42001000 	.word	0x42001000
     390:	42000800 	.word	0x42000800
     394:	42000c00 	.word	0x42000c00
     398:	42001800 	.word	0x42001800
     39c:	42001c00 	.word	0x42001c00
     3a0:	42001400 	.word	0x42001400
     3a4:	00040003 	.word	0x00040003
     3a8:	00060003 	.word	0x00060003
     3ac:	00070003 	.word	0x00070003
     3b0:	001e0003 	.word	0x001e0003
     3b4:	001f0003 	.word	0x001f0003
     3b8:	00080003 	.word	0x00080003
     3bc:	000a0003 	.word	0x000a0003
     3c0:	000b0003 	.word	0x000b0003
     3c4:	00100003 	.word	0x00100003
     3c8:	00120003 	.word	0x00120003
     3cc:	00130003 	.word	0x00130003
     3d0:	000c0003 	.word	0x000c0003
     3d4:	000e0003 	.word	0x000e0003
     3d8:	000f0003 	.word	0x000f0003
     3dc:	00160003 	.word	0x00160003
     3e0:	00180003 	.word	0x00180003
     3e4:	00190003 	.word	0x00190003
     3e8:	00050003 	.word	0x00050003
     3ec:	00010003 	.word	0x00010003
     3f0:	00090003 	.word	0x00090003
     3f4:	00110003 	.word	0x00110003
     3f8:	000d0003 	.word	0x000d0003
     3fc:	00170003 	.word	0x00170003

00000400 <_sercom_get_sercom_inst_index>:
     400:	b570      	push	{r4, r5, r6, lr}
     402:	490a      	ldr	r1, [pc, #40]	; (42c <_sercom_get_sercom_inst_index+0x2c>)
     404:	b086      	sub	sp, #24
     406:	466b      	mov	r3, sp
     408:	c970      	ldmia	r1!, {r4, r5, r6}
     40a:	c370      	stmia	r3!, {r4, r5, r6}
     40c:	466a      	mov	r2, sp
     40e:	c970      	ldmia	r1!, {r4, r5, r6}
     410:	c370      	stmia	r3!, {r4, r5, r6}
     412:	2300      	movs	r3, #0
     414:	0099      	lsls	r1, r3, #2
     416:	5851      	ldr	r1, [r2, r1]
     418:	4288      	cmp	r0, r1
     41a:	d101      	bne.n	420 <_sercom_get_sercom_inst_index+0x20>
     41c:	b2d8      	uxtb	r0, r3
     41e:	e003      	b.n	428 <_sercom_get_sercom_inst_index+0x28>
     420:	3301      	adds	r3, #1
     422:	2b06      	cmp	r3, #6
     424:	d1f6      	bne.n	414 <_sercom_get_sercom_inst_index+0x14>
     426:	2000      	movs	r0, #0
     428:	b006      	add	sp, #24
     42a:	bd70      	pop	{r4, r5, r6, pc}
     42c:	000061bc 	.word	0x000061bc

00000430 <Config_MatrixKeypad>:
     430:	b510      	push	{r4, lr}
     432:	202d      	movs	r0, #45	; 0x2d
     434:	4c07      	ldr	r4, [pc, #28]	; (454 <Config_MatrixKeypad+0x24>)
     436:	2103      	movs	r1, #3
     438:	47a0      	blx	r4
     43a:	202e      	movs	r0, #46	; 0x2e
     43c:	2103      	movs	r1, #3
     43e:	47a0      	blx	r4
     440:	202a      	movs	r0, #42	; 0x2a
     442:	2100      	movs	r1, #0
     444:	47a0      	blx	r4
     446:	202b      	movs	r0, #43	; 0x2b
     448:	2100      	movs	r1, #0
     44a:	47a0      	blx	r4
     44c:	202c      	movs	r0, #44	; 0x2c
     44e:	2100      	movs	r1, #0
     450:	47a0      	blx	r4
     452:	bd10      	pop	{r4, pc}
     454:	000006e9 	.word	0x000006e9

00000458 <ClearKeys>:
     458:	4a06      	ldr	r2, [pc, #24]	; (474 <ClearKeys+0x1c>)
     45a:	2300      	movs	r3, #0
     45c:	7013      	strb	r3, [r2, #0]
     45e:	4a06      	ldr	r2, [pc, #24]	; (478 <ClearKeys+0x20>)
     460:	7013      	strb	r3, [r2, #0]
     462:	4a06      	ldr	r2, [pc, #24]	; (47c <ClearKeys+0x24>)
     464:	7013      	strb	r3, [r2, #0]
     466:	4a06      	ldr	r2, [pc, #24]	; (480 <ClearKeys+0x28>)
     468:	7013      	strb	r3, [r2, #0]
     46a:	4a06      	ldr	r2, [pc, #24]	; (484 <ClearKeys+0x2c>)
     46c:	7013      	strb	r3, [r2, #0]
     46e:	4a06      	ldr	r2, [pc, #24]	; (488 <ClearKeys+0x30>)
     470:	7013      	strb	r3, [r2, #0]
     472:	4770      	bx	lr
     474:	200000bd 	.word	0x200000bd
     478:	200000be 	.word	0x200000be
     47c:	200000c0 	.word	0x200000c0
     480:	200000c1 	.word	0x200000c1
     484:	200000bc 	.word	0x200000bc
     488:	200000bf 	.word	0x200000bf

0000048c <KeyDetected>:
     48c:	b538      	push	{r3, r4, r5, lr}
     48e:	2280      	movs	r2, #128	; 0x80
     490:	4b0a      	ldr	r3, [pc, #40]	; (4bc <KeyDetected+0x30>)
     492:	00d2      	lsls	r2, r2, #3
     494:	601a      	str	r2, [r3, #0]
     496:	2280      	movs	r2, #128	; 0x80
     498:	0112      	lsls	r2, r2, #4
     49a:	601a      	str	r2, [r3, #0]
     49c:	2280      	movs	r2, #128	; 0x80
     49e:	0152      	lsls	r2, r2, #5
     4a0:	601a      	str	r2, [r3, #0]
     4a2:	202d      	movs	r0, #45	; 0x2d
     4a4:	4d06      	ldr	r5, [pc, #24]	; (4c0 <KeyDetected+0x34>)
     4a6:	47a8      	blx	r5
     4a8:	2401      	movs	r4, #1
     4aa:	2800      	cmp	r0, #0
     4ac:	d003      	beq.n	4b6 <KeyDetected+0x2a>
     4ae:	202e      	movs	r0, #46	; 0x2e
     4b0:	47a8      	blx	r5
     4b2:	4044      	eors	r4, r0
     4b4:	b2e4      	uxtb	r4, r4
     4b6:	1c20      	adds	r0, r4, #0
     4b8:	bd38      	pop	{r3, r4, r5, pc}
     4ba:	46c0      	nop			; (mov r8, r8)
     4bc:	41004494 	.word	0x41004494
     4c0:	00000801 	.word	0x00000801

000004c4 <Keyscan>:
     4c4:	b5f8      	push	{r3, r4, r5, r6, r7, lr}
     4c6:	4c2c      	ldr	r4, [pc, #176]	; (578 <Keyscan+0xb4>)
     4c8:	47a0      	blx	r4
     4ca:	2800      	cmp	r0, #0
     4cc:	d050      	beq.n	570 <Keyscan+0xac>
     4ce:	201e      	movs	r0, #30
     4d0:	4b2a      	ldr	r3, [pc, #168]	; (57c <Keyscan+0xb8>)
     4d2:	4798      	blx	r3
     4d4:	47a0      	blx	r4
     4d6:	2800      	cmp	r0, #0
     4d8:	d04a      	beq.n	570 <Keyscan+0xac>
     4da:	4f29      	ldr	r7, [pc, #164]	; (580 <Keyscan+0xbc>)
     4dc:	2380      	movs	r3, #128	; 0x80
     4de:	00db      	lsls	r3, r3, #3
     4e0:	4e28      	ldr	r6, [pc, #160]	; (584 <Keyscan+0xc0>)
     4e2:	603b      	str	r3, [r7, #0]
     4e4:	2380      	movs	r3, #128	; 0x80
     4e6:	011b      	lsls	r3, r3, #4
     4e8:	6033      	str	r3, [r6, #0]
     4ea:	2380      	movs	r3, #128	; 0x80
     4ec:	015b      	lsls	r3, r3, #5
     4ee:	4d26      	ldr	r5, [pc, #152]	; (588 <Keyscan+0xc4>)
     4f0:	6033      	str	r3, [r6, #0]
     4f2:	202d      	movs	r0, #45	; 0x2d
     4f4:	47a8      	blx	r5
     4f6:	2401      	movs	r4, #1
     4f8:	4b24      	ldr	r3, [pc, #144]	; (58c <Keyscan+0xc8>)
     4fa:	4060      	eors	r0, r4
     4fc:	b2c0      	uxtb	r0, r0
     4fe:	7018      	strb	r0, [r3, #0]
     500:	202e      	movs	r0, #46	; 0x2e
     502:	47a8      	blx	r5
     504:	4b22      	ldr	r3, [pc, #136]	; (590 <Keyscan+0xcc>)
     506:	4060      	eors	r0, r4
     508:	b2c0      	uxtb	r0, r0
     50a:	7018      	strb	r0, [r3, #0]
     50c:	2380      	movs	r3, #128	; 0x80
     50e:	00db      	lsls	r3, r3, #3
     510:	6033      	str	r3, [r6, #0]
     512:	2380      	movs	r3, #128	; 0x80
     514:	011b      	lsls	r3, r3, #4
     516:	603b      	str	r3, [r7, #0]
     518:	2380      	movs	r3, #128	; 0x80
     51a:	015b      	lsls	r3, r3, #5
     51c:	6033      	str	r3, [r6, #0]
     51e:	202d      	movs	r0, #45	; 0x2d
     520:	47a8      	blx	r5
     522:	4b1c      	ldr	r3, [pc, #112]	; (594 <Keyscan+0xd0>)
     524:	4060      	eors	r0, r4
     526:	b2c0      	uxtb	r0, r0
     528:	7018      	strb	r0, [r3, #0]
     52a:	202e      	movs	r0, #46	; 0x2e
     52c:	47a8      	blx	r5
     52e:	4b1a      	ldr	r3, [pc, #104]	; (598 <Keyscan+0xd4>)
     530:	4060      	eors	r0, r4
     532:	b2c0      	uxtb	r0, r0
     534:	7018      	strb	r0, [r3, #0]
     536:	2380      	movs	r3, #128	; 0x80
     538:	00db      	lsls	r3, r3, #3
     53a:	6033      	str	r3, [r6, #0]
     53c:	2380      	movs	r3, #128	; 0x80
     53e:	011b      	lsls	r3, r3, #4
     540:	6033      	str	r3, [r6, #0]
     542:	2380      	movs	r3, #128	; 0x80
     544:	015b      	lsls	r3, r3, #5
     546:	603b      	str	r3, [r7, #0]
     548:	202d      	movs	r0, #45	; 0x2d
     54a:	47a8      	blx	r5
     54c:	4b13      	ldr	r3, [pc, #76]	; (59c <Keyscan+0xd8>)
     54e:	4060      	eors	r0, r4
     550:	b2c0      	uxtb	r0, r0
     552:	7018      	strb	r0, [r3, #0]
     554:	202e      	movs	r0, #46	; 0x2e
     556:	47a8      	blx	r5
     558:	4b11      	ldr	r3, [pc, #68]	; (5a0 <Keyscan+0xdc>)
     55a:	4044      	eors	r4, r0
     55c:	b2e4      	uxtb	r4, r4
     55e:	701c      	strb	r4, [r3, #0]
     560:	4b05      	ldr	r3, [pc, #20]	; (578 <Keyscan+0xb4>)
     562:	4798      	blx	r3
     564:	2800      	cmp	r0, #0
     566:	d005      	beq.n	574 <Keyscan+0xb0>
     568:	2001      	movs	r0, #1
     56a:	4b04      	ldr	r3, [pc, #16]	; (57c <Keyscan+0xb8>)
     56c:	4798      	blx	r3
     56e:	e7f7      	b.n	560 <Keyscan+0x9c>
     570:	4b0c      	ldr	r3, [pc, #48]	; (5a4 <Keyscan+0xe0>)
     572:	4798      	blx	r3
     574:	bdf8      	pop	{r3, r4, r5, r6, r7, pc}
     576:	46c0      	nop			; (mov r8, r8)
     578:	0000048d 	.word	0x0000048d
     57c:	00002b8d 	.word	0x00002b8d
     580:	41004494 	.word	0x41004494
     584:	41004498 	.word	0x41004498
     588:	00000801 	.word	0x00000801
     58c:	200000c0 	.word	0x200000c0
     590:	200000be 	.word	0x200000be
     594:	200000bf 	.word	0x200000bf
     598:	200000c1 	.word	0x200000c1
     59c:	200000bd 	.word	0x200000bd
     5a0:	200000bc 	.word	0x200000bc
     5a4:	00000459 	.word	0x00000459

000005a8 <KeyscanWORelese>:
     5a8:	b5f8      	push	{r3, r4, r5, r6, r7, lr}
     5aa:	4c28      	ldr	r4, [pc, #160]	; (64c <KeyscanWORelese+0xa4>)
     5ac:	47a0      	blx	r4
     5ae:	2800      	cmp	r0, #0
     5b0:	d049      	beq.n	646 <KeyscanWORelese+0x9e>
     5b2:	201e      	movs	r0, #30
     5b4:	4b26      	ldr	r3, [pc, #152]	; (650 <KeyscanWORelese+0xa8>)
     5b6:	4798      	blx	r3
     5b8:	47a0      	blx	r4
     5ba:	2800      	cmp	r0, #0
     5bc:	d043      	beq.n	646 <KeyscanWORelese+0x9e>
     5be:	4f25      	ldr	r7, [pc, #148]	; (654 <KeyscanWORelese+0xac>)
     5c0:	2380      	movs	r3, #128	; 0x80
     5c2:	00db      	lsls	r3, r3, #3
     5c4:	4e24      	ldr	r6, [pc, #144]	; (658 <KeyscanWORelese+0xb0>)
     5c6:	603b      	str	r3, [r7, #0]
     5c8:	2380      	movs	r3, #128	; 0x80
     5ca:	011b      	lsls	r3, r3, #4
     5cc:	6033      	str	r3, [r6, #0]
     5ce:	2380      	movs	r3, #128	; 0x80
     5d0:	015b      	lsls	r3, r3, #5
     5d2:	4d22      	ldr	r5, [pc, #136]	; (65c <KeyscanWORelese+0xb4>)
     5d4:	6033      	str	r3, [r6, #0]
     5d6:	202d      	movs	r0, #45	; 0x2d
     5d8:	47a8      	blx	r5
     5da:	2401      	movs	r4, #1
     5dc:	4b20      	ldr	r3, [pc, #128]	; (660 <KeyscanWORelese+0xb8>)
     5de:	4060      	eors	r0, r4
     5e0:	b2c0      	uxtb	r0, r0
     5e2:	7018      	strb	r0, [r3, #0]
     5e4:	202e      	movs	r0, #46	; 0x2e
     5e6:	47a8      	blx	r5
     5e8:	4b1e      	ldr	r3, [pc, #120]	; (664 <KeyscanWORelese+0xbc>)
     5ea:	4060      	eors	r0, r4
     5ec:	b2c0      	uxtb	r0, r0
     5ee:	7018      	strb	r0, [r3, #0]
     5f0:	2380      	movs	r3, #128	; 0x80
     5f2:	00db      	lsls	r3, r3, #3
     5f4:	6033      	str	r3, [r6, #0]
     5f6:	2380      	movs	r3, #128	; 0x80
     5f8:	011b      	lsls	r3, r3, #4
     5fa:	603b      	str	r3, [r7, #0]
     5fc:	2380      	movs	r3, #128	; 0x80
     5fe:	015b      	lsls	r3, r3, #5
     600:	6033      	str	r3, [r6, #0]
     602:	202d      	movs	r0, #45	; 0x2d
     604:	47a8      	blx	r5
     606:	4b18      	ldr	r3, [pc, #96]	; (668 <KeyscanWORelese+0xc0>)
     608:	4060      	eors	r0, r4
     60a:	b2c0      	uxtb	r0, r0
     60c:	7018      	strb	r0, [r3, #0]
     60e:	202e      	movs	r0, #46	; 0x2e
     610:	47a8      	blx	r5
     612:	4b16      	ldr	r3, [pc, #88]	; (66c <KeyscanWORelese+0xc4>)
     614:	4060      	eors	r0, r4
     616:	b2c0      	uxtb	r0, r0
     618:	7018      	strb	r0, [r3, #0]
     61a:	2380      	movs	r3, #128	; 0x80
     61c:	00db      	lsls	r3, r3, #3
     61e:	6033      	str	r3, [r6, #0]
     620:	2380      	movs	r3, #128	; 0x80
     622:	011b      	lsls	r3, r3, #4
     624:	6033      	str	r3, [r6, #0]
     626:	2380      	movs	r3, #128	; 0x80
     628:	015b      	lsls	r3, r3, #5
     62a:	603b      	str	r3, [r7, #0]
     62c:	202d      	movs	r0, #45	; 0x2d
     62e:	47a8      	blx	r5
     630:	4b0f      	ldr	r3, [pc, #60]	; (670 <KeyscanWORelese+0xc8>)
     632:	4060      	eors	r0, r4
     634:	b2c0      	uxtb	r0, r0
     636:	7018      	strb	r0, [r3, #0]
     638:	202e      	movs	r0, #46	; 0x2e
     63a:	47a8      	blx	r5
     63c:	4b0d      	ldr	r3, [pc, #52]	; (674 <KeyscanWORelese+0xcc>)
     63e:	4044      	eors	r4, r0
     640:	b2e4      	uxtb	r4, r4
     642:	701c      	strb	r4, [r3, #0]
     644:	e001      	b.n	64a <KeyscanWORelese+0xa2>
     646:	4b0c      	ldr	r3, [pc, #48]	; (678 <KeyscanWORelese+0xd0>)
     648:	4798      	blx	r3
     64a:	bdf8      	pop	{r3, r4, r5, r6, r7, pc}
     64c:	0000048d 	.word	0x0000048d
     650:	00002b8d 	.word	0x00002b8d
     654:	41004494 	.word	0x41004494
     658:	41004498 	.word	0x41004498
     65c:	00000801 	.word	0x00000801
     660:	200000c0 	.word	0x200000c0
     664:	200000be 	.word	0x200000be
     668:	200000bf 	.word	0x200000bf
     66c:	200000c1 	.word	0x200000c1
     670:	200000bd 	.word	0x200000bd
     674:	200000bc 	.word	0x200000bc
     678:	00000459 	.word	0x00000459

0000067c <ReleaseKey>:
     67c:	b510      	push	{r4, lr}
     67e:	201e      	movs	r0, #30
     680:	4c04      	ldr	r4, [pc, #16]	; (694 <ReleaseKey+0x18>)
     682:	47a0      	blx	r4
     684:	4b04      	ldr	r3, [pc, #16]	; (698 <ReleaseKey+0x1c>)
     686:	4798      	blx	r3
     688:	2800      	cmp	r0, #0
     68a:	d1fb      	bne.n	684 <ReleaseKey+0x8>
     68c:	201e      	movs	r0, #30
     68e:	47a0      	blx	r4
     690:	bd10      	pop	{r4, pc}
     692:	46c0      	nop			; (mov r8, r8)
     694:	00002b8d 	.word	0x00002b8d
     698:	0000048d 	.word	0x0000048d

0000069c <WaitforAnyKey>:
     69c:	b510      	push	{r4, lr}
     69e:	201e      	movs	r0, #30
     6a0:	4c04      	ldr	r4, [pc, #16]	; (6b4 <WaitforAnyKey+0x18>)
     6a2:	47a0      	blx	r4
     6a4:	4b04      	ldr	r3, [pc, #16]	; (6b8 <WaitforAnyKey+0x1c>)
     6a6:	4798      	blx	r3
     6a8:	2800      	cmp	r0, #0
     6aa:	d0fb      	beq.n	6a4 <WaitforAnyKey+0x8>
     6ac:	201e      	movs	r0, #30
     6ae:	47a0      	blx	r4
     6b0:	bd10      	pop	{r4, pc}
     6b2:	46c0      	nop			; (mov r8, r8)
     6b4:	00002b8d 	.word	0x00002b8d
     6b8:	0000048d 	.word	0x0000048d

000006bc <AnykeyPulse>:
     6bc:	b508      	push	{r3, lr}
     6be:	4b02      	ldr	r3, [pc, #8]	; (6c8 <AnykeyPulse+0xc>)
     6c0:	4798      	blx	r3
     6c2:	4b02      	ldr	r3, [pc, #8]	; (6cc <AnykeyPulse+0x10>)
     6c4:	4798      	blx	r3
     6c6:	bd08      	pop	{r3, pc}
     6c8:	0000069d 	.word	0x0000069d
     6cc:	0000067d 	.word	0x0000067d

000006d0 <GCLKGen_Peripheral>:
     6d0:	2380      	movs	r3, #128	; 0x80
     6d2:	01db      	lsls	r3, r3, #7
     6d4:	4319      	orrs	r1, r3
     6d6:	0203      	lsls	r3, r0, #8
     6d8:	1c08      	adds	r0, r1, #0
     6da:	4318      	orrs	r0, r3
     6dc:	4b01      	ldr	r3, [pc, #4]	; (6e4 <GCLKGen_Peripheral+0x14>)
     6de:	8018      	strh	r0, [r3, #0]
     6e0:	4770      	bx	lr
     6e2:	46c0      	nop			; (mov r8, r8)
     6e4:	40000c02 	.word	0x40000c02

000006e8 <pinMode>:
     6e8:	b510      	push	{r4, lr}
     6ea:	2900      	cmp	r1, #0
     6ec:	d10d      	bne.n	70a <pinMode+0x22>
     6ee:	0943      	lsrs	r3, r0, #5
     6f0:	4c35      	ldr	r4, [pc, #212]	; (7c8 <pinMode+0xe0>)
     6f2:	01db      	lsls	r3, r3, #7
     6f4:	191a      	adds	r2, r3, r4
     6f6:	241f      	movs	r4, #31
     6f8:	4020      	ands	r0, r4
     6fa:	2401      	movs	r4, #1
     6fc:	4084      	lsls	r4, r0
     6fe:	6014      	str	r4, [r2, #0]
     700:	4a32      	ldr	r2, [pc, #200]	; (7cc <pinMode+0xe4>)
     702:	1880      	adds	r0, r0, r2
     704:	18c3      	adds	r3, r0, r3
     706:	7019      	strb	r1, [r3, #0]
     708:	e05d      	b.n	7c6 <pinMode+0xde>
     70a:	2901      	cmp	r1, #1
     70c:	d10d      	bne.n	72a <pinMode+0x42>
     70e:	0943      	lsrs	r3, r0, #5
     710:	4c2f      	ldr	r4, [pc, #188]	; (7d0 <pinMode+0xe8>)
     712:	01db      	lsls	r3, r3, #7
     714:	191a      	adds	r2, r3, r4
     716:	241f      	movs	r4, #31
     718:	4020      	ands	r0, r4
     71a:	4081      	lsls	r1, r0
     71c:	6011      	str	r1, [r2, #0]
     71e:	492b      	ldr	r1, [pc, #172]	; (7cc <pinMode+0xe4>)
     720:	2204      	movs	r2, #4
     722:	1840      	adds	r0, r0, r1
     724:	18c0      	adds	r0, r0, r3
     726:	7803      	ldrb	r3, [r0, #0]
     728:	e021      	b.n	76e <pinMode+0x86>
     72a:	2902      	cmp	r1, #2
     72c:	d10f      	bne.n	74e <pinMode+0x66>
     72e:	0943      	lsrs	r3, r0, #5
     730:	4c27      	ldr	r4, [pc, #156]	; (7d0 <pinMode+0xe8>)
     732:	01db      	lsls	r3, r3, #7
     734:	191a      	adds	r2, r3, r4
     736:	241f      	movs	r4, #31
     738:	4020      	ands	r0, r4
     73a:	2401      	movs	r4, #1
     73c:	4084      	lsls	r4, r0
     73e:	6014      	str	r4, [r2, #0]
     740:	4a22      	ldr	r2, [pc, #136]	; (7cc <pinMode+0xe4>)
     742:	1880      	adds	r0, r0, r2
     744:	18c0      	adds	r0, r0, r3
     746:	7803      	ldrb	r3, [r0, #0]
     748:	4319      	orrs	r1, r3
     74a:	7001      	strb	r1, [r0, #0]
     74c:	e03b      	b.n	7c6 <pinMode+0xde>
     74e:	2905      	cmp	r1, #5
     750:	d110      	bne.n	774 <pinMode+0x8c>
     752:	0943      	lsrs	r3, r0, #5
     754:	211f      	movs	r1, #31
     756:	4c1c      	ldr	r4, [pc, #112]	; (7c8 <pinMode+0xe0>)
     758:	01db      	lsls	r3, r3, #7
     75a:	4008      	ands	r0, r1
     75c:	2101      	movs	r1, #1
     75e:	191a      	adds	r2, r3, r4
     760:	4081      	lsls	r1, r0
     762:	6011      	str	r1, [r2, #0]
     764:	4919      	ldr	r1, [pc, #100]	; (7cc <pinMode+0xe4>)
     766:	2202      	movs	r2, #2
     768:	1840      	adds	r0, r0, r1
     76a:	18c0      	adds	r0, r0, r3
     76c:	7803      	ldrb	r3, [r0, #0]
     76e:	4313      	orrs	r3, r2
     770:	7003      	strb	r3, [r0, #0]
     772:	e028      	b.n	7c6 <pinMode+0xde>
     774:	2903      	cmp	r1, #3
     776:	d111      	bne.n	79c <pinMode+0xb4>
     778:	0943      	lsrs	r3, r0, #5
     77a:	4a15      	ldr	r2, [pc, #84]	; (7d0 <pinMode+0xe8>)
     77c:	01db      	lsls	r3, r3, #7
     77e:	1899      	adds	r1, r3, r2
     780:	4c12      	ldr	r4, [pc, #72]	; (7cc <pinMode+0xe4>)
     782:	221f      	movs	r2, #31
     784:	4010      	ands	r0, r2
     786:	2201      	movs	r2, #1
     788:	4082      	lsls	r2, r0
     78a:	1900      	adds	r0, r0, r4
     78c:	600a      	str	r2, [r1, #0]
     78e:	18c0      	adds	r0, r0, r3
     790:	7801      	ldrb	r1, [r0, #0]
     792:	2406      	movs	r4, #6
     794:	4321      	orrs	r1, r4
     796:	7001      	strb	r1, [r0, #0]
     798:	490e      	ldr	r1, [pc, #56]	; (7d4 <pinMode+0xec>)
     79a:	e012      	b.n	7c2 <pinMode+0xda>
     79c:	2904      	cmp	r1, #4
     79e:	d112      	bne.n	7c6 <pinMode+0xde>
     7a0:	0943      	lsrs	r3, r0, #5
     7a2:	4a0b      	ldr	r2, [pc, #44]	; (7d0 <pinMode+0xe8>)
     7a4:	01db      	lsls	r3, r3, #7
     7a6:	1899      	adds	r1, r3, r2
     7a8:	4c08      	ldr	r4, [pc, #32]	; (7cc <pinMode+0xe4>)
     7aa:	221f      	movs	r2, #31
     7ac:	4010      	ands	r0, r2
     7ae:	2201      	movs	r2, #1
     7b0:	4082      	lsls	r2, r0
     7b2:	1900      	adds	r0, r0, r4
     7b4:	600a      	str	r2, [r1, #0]
     7b6:	18c0      	adds	r0, r0, r3
     7b8:	7801      	ldrb	r1, [r0, #0]
     7ba:	2406      	movs	r4, #6
     7bc:	4321      	orrs	r1, r4
     7be:	7001      	strb	r1, [r0, #0]
     7c0:	4905      	ldr	r1, [pc, #20]	; (7d8 <pinMode+0xf0>)
     7c2:	185b      	adds	r3, r3, r1
     7c4:	601a      	str	r2, [r3, #0]
     7c6:	bd10      	pop	{r4, pc}
     7c8:	41004408 	.word	0x41004408
     7cc:	41004440 	.word	0x41004440
     7d0:	41004404 	.word	0x41004404
     7d4:	41004418 	.word	0x41004418
     7d8:	41004414 	.word	0x41004414

000007dc <digitalWrite>:
     7dc:	0943      	lsrs	r3, r0, #5
     7de:	01db      	lsls	r3, r3, #7
     7e0:	2900      	cmp	r1, #0
     7e2:	d001      	beq.n	7e8 <digitalWrite+0xc>
     7e4:	4a04      	ldr	r2, [pc, #16]	; (7f8 <digitalWrite+0x1c>)
     7e6:	e000      	b.n	7ea <digitalWrite+0xe>
     7e8:	4a04      	ldr	r2, [pc, #16]	; (7fc <digitalWrite+0x20>)
     7ea:	189b      	adds	r3, r3, r2
     7ec:	221f      	movs	r2, #31
     7ee:	4010      	ands	r0, r2
     7f0:	2201      	movs	r2, #1
     7f2:	4082      	lsls	r2, r0
     7f4:	601a      	str	r2, [r3, #0]
     7f6:	4770      	bx	lr
     7f8:	41004418 	.word	0x41004418
     7fc:	41004414 	.word	0x41004414

00000800 <digitalRead>:
     800:	0943      	lsrs	r3, r0, #5
     802:	4a07      	ldr	r2, [pc, #28]	; (820 <digitalRead+0x20>)
     804:	01db      	lsls	r3, r3, #7
     806:	189b      	adds	r3, r3, r2
     808:	221f      	movs	r2, #31
     80a:	4010      	ands	r0, r2
     80c:	2201      	movs	r2, #1
     80e:	681b      	ldr	r3, [r3, #0]
     810:	4082      	lsls	r2, r0
     812:	1c10      	adds	r0, r2, #0
     814:	4018      	ands	r0, r3
     816:	1e43      	subs	r3, r0, #1
     818:	4198      	sbcs	r0, r3
     81a:	b2c0      	uxtb	r0, r0
     81c:	4770      	bx	lr
     81e:	46c0      	nop			; (mov r8, r8)
     820:	41004420 	.word	0x41004420

00000824 <pinMux>:
     824:	b530      	push	{r4, r5, lr}
     826:	231f      	movs	r3, #31
     828:	0942      	lsrs	r2, r0, #5
     82a:	290a      	cmp	r1, #10
     82c:	d109      	bne.n	842 <pinMux+0x1e>
     82e:	4003      	ands	r3, r0
     830:	4814      	ldr	r0, [pc, #80]	; (884 <pinMux+0x60>)
     832:	01d2      	lsls	r2, r2, #7
     834:	181b      	adds	r3, r3, r0
     836:	189a      	adds	r2, r3, r2
     838:	7813      	ldrb	r3, [r2, #0]
     83a:	2101      	movs	r1, #1
     83c:	438b      	bics	r3, r1
     83e:	7013      	strb	r3, [r2, #0]
     840:	e01f      	b.n	882 <pinMux+0x5e>
     842:	4c10      	ldr	r4, [pc, #64]	; (884 <pinMux+0x60>)
     844:	4003      	ands	r3, r0
     846:	191d      	adds	r5, r3, r4
     848:	01d2      	lsls	r2, r2, #7
     84a:	2401      	movs	r4, #1
     84c:	18ad      	adds	r5, r5, r2
     84e:	702c      	strb	r4, [r5, #0]
     850:	40e3      	lsrs	r3, r4
     852:	4220      	tst	r0, r4
     854:	d109      	bne.n	86a <pinMux+0x46>
     856:	480c      	ldr	r0, [pc, #48]	; (888 <pinMux+0x64>)
     858:	181b      	adds	r3, r3, r0
     85a:	189b      	adds	r3, r3, r2
     85c:	781a      	ldrb	r2, [r3, #0]
     85e:	200f      	movs	r0, #15
     860:	4382      	bics	r2, r0
     862:	701a      	strb	r2, [r3, #0]
     864:	781a      	ldrb	r2, [r3, #0]
     866:	4311      	orrs	r1, r2
     868:	e00a      	b.n	880 <pinMux+0x5c>
     86a:	4c07      	ldr	r4, [pc, #28]	; (888 <pinMux+0x64>)
     86c:	0109      	lsls	r1, r1, #4
     86e:	191b      	adds	r3, r3, r4
     870:	189b      	adds	r3, r3, r2
     872:	7818      	ldrb	r0, [r3, #0]
     874:	220f      	movs	r2, #15
     876:	4002      	ands	r2, r0
     878:	701a      	strb	r2, [r3, #0]
     87a:	781a      	ldrb	r2, [r3, #0]
     87c:	4311      	orrs	r1, r2
     87e:	b2c9      	uxtb	r1, r1
     880:	7019      	strb	r1, [r3, #0]
     882:	bd30      	pop	{r4, r5, pc}
     884:	41004440 	.word	0x41004440
     888:	41004430 	.word	0x41004430

0000088c <ConfigureSpi>:
     88c:	b5f8      	push	{r3, r4, r5, r6, r7, lr}
     88e:	0049      	lsls	r1, r1, #1
     890:	1c04      	adds	r4, r0, #0
     892:	4b58      	ldr	r3, [pc, #352]	; (9f4 <ConfigureSpi+0x168>)
     894:	4858      	ldr	r0, [pc, #352]	; (9f8 <ConfigureSpi+0x16c>)
     896:	4798      	blx	r3
     898:	1e46      	subs	r6, r0, #1
     89a:	b2f6      	uxtb	r6, r6
     89c:	2c05      	cmp	r4, #5
     89e:	d900      	bls.n	8a2 <ConfigureSpi+0x16>
     8a0:	e0a7      	b.n	9f2 <ConfigureSpi+0x166>
     8a2:	1c20      	adds	r0, r4, #0
     8a4:	4b55      	ldr	r3, [pc, #340]	; (9fc <ConfigureSpi+0x170>)
     8a6:	4d56      	ldr	r5, [pc, #344]	; (a00 <ConfigureSpi+0x174>)
     8a8:	4f56      	ldr	r7, [pc, #344]	; (a04 <ConfigureSpi+0x178>)
     8aa:	4c57      	ldr	r4, [pc, #348]	; (a08 <ConfigureSpi+0x17c>)
     8ac:	f002 fe68 	bl	3580 <__gnu_thumb1_case_uqi>
     8b0:	4e361b03 	.word	0x4e361b03
     8b4:	8469      	.short	0x8469
     8b6:	2000      	movs	r0, #0
     8b8:	210d      	movs	r1, #13
     8ba:	4798      	blx	r3
     8bc:	682b      	ldr	r3, [r5, #0]
     8be:	2204      	movs	r2, #4
     8c0:	4313      	orrs	r3, r2
     8c2:	602b      	str	r3, [r5, #0]
     8c4:	4b51      	ldr	r3, [pc, #324]	; (a0c <ConfigureSpi+0x180>)
     8c6:	2201      	movs	r2, #1
     8c8:	601a      	str	r2, [r3, #0]
     8ca:	4a51      	ldr	r2, [pc, #324]	; (a10 <ConfigureSpi+0x184>)
     8cc:	2008      	movs	r0, #8
     8ce:	6017      	str	r7, [r2, #0]
     8d0:	4a50      	ldr	r2, [pc, #320]	; (a14 <ConfigureSpi+0x188>)
     8d2:	2102      	movs	r1, #2
     8d4:	7016      	strb	r6, [r2, #0]
     8d6:	4a50      	ldr	r2, [pc, #320]	; (a18 <ConfigureSpi+0x18c>)
     8d8:	601a      	str	r2, [r3, #0]
     8da:	47a0      	blx	r4
     8dc:	200a      	movs	r0, #10
     8de:	2102      	movs	r1, #2
     8e0:	47a0      	blx	r4
     8e2:	200b      	movs	r0, #11
     8e4:	e082      	b.n	9ec <ConfigureSpi+0x160>
     8e6:	2000      	movs	r0, #0
     8e8:	210e      	movs	r1, #14
     8ea:	4798      	blx	r3
     8ec:	682b      	ldr	r3, [r5, #0]
     8ee:	2208      	movs	r2, #8
     8f0:	4313      	orrs	r3, r2
     8f2:	602b      	str	r3, [r5, #0]
     8f4:	4b49      	ldr	r3, [pc, #292]	; (a1c <ConfigureSpi+0x190>)
     8f6:	2201      	movs	r2, #1
     8f8:	601a      	str	r2, [r3, #0]
     8fa:	4a49      	ldr	r2, [pc, #292]	; (a20 <ConfigureSpi+0x194>)
     8fc:	2010      	movs	r0, #16
     8fe:	6017      	str	r7, [r2, #0]
     900:	4a48      	ldr	r2, [pc, #288]	; (a24 <ConfigureSpi+0x198>)
     902:	2102      	movs	r1, #2
     904:	7016      	strb	r6, [r2, #0]
     906:	4a44      	ldr	r2, [pc, #272]	; (a18 <ConfigureSpi+0x18c>)
     908:	601a      	str	r2, [r3, #0]
     90a:	47a0      	blx	r4
     90c:	2011      	movs	r0, #17
     90e:	2102      	movs	r1, #2
     910:	47a0      	blx	r4
     912:	2012      	movs	r0, #18
     914:	2102      	movs	r1, #2
     916:	47a0      	blx	r4
     918:	2013      	movs	r0, #19
     91a:	e067      	b.n	9ec <ConfigureSpi+0x160>
     91c:	2000      	movs	r0, #0
     91e:	210f      	movs	r1, #15
     920:	4798      	blx	r3
     922:	682b      	ldr	r3, [r5, #0]
     924:	2210      	movs	r2, #16
     926:	4313      	orrs	r3, r2
     928:	602b      	str	r3, [r5, #0]
     92a:	4b3f      	ldr	r3, [pc, #252]	; (a28 <ConfigureSpi+0x19c>)
     92c:	2201      	movs	r2, #1
     92e:	601a      	str	r2, [r3, #0]
     930:	4a3e      	ldr	r2, [pc, #248]	; (a2c <ConfigureSpi+0x1a0>)
     932:	200c      	movs	r0, #12
     934:	6017      	str	r7, [r2, #0]
     936:	4a3e      	ldr	r2, [pc, #248]	; (a30 <ConfigureSpi+0x1a4>)
     938:	2102      	movs	r1, #2
     93a:	7016      	strb	r6, [r2, #0]
     93c:	4a36      	ldr	r2, [pc, #216]	; (a18 <ConfigureSpi+0x18c>)
     93e:	601a      	str	r2, [r3, #0]
     940:	47a0      	blx	r4
     942:	200d      	movs	r0, #13
     944:	2102      	movs	r1, #2
     946:	47a0      	blx	r4
     948:	200f      	movs	r0, #15
     94a:	e04f      	b.n	9ec <ConfigureSpi+0x160>
     94c:	2000      	movs	r0, #0
     94e:	2110      	movs	r1, #16
     950:	4798      	blx	r3
     952:	682b      	ldr	r3, [r5, #0]
     954:	2220      	movs	r2, #32
     956:	4313      	orrs	r3, r2
     958:	602b      	str	r3, [r5, #0]
     95a:	4b36      	ldr	r3, [pc, #216]	; (a34 <ConfigureSpi+0x1a8>)
     95c:	2201      	movs	r2, #1
     95e:	601a      	str	r2, [r3, #0]
     960:	4a35      	ldr	r2, [pc, #212]	; (a38 <ConfigureSpi+0x1ac>)
     962:	2016      	movs	r0, #22
     964:	6017      	str	r7, [r2, #0]
     966:	4a35      	ldr	r2, [pc, #212]	; (a3c <ConfigureSpi+0x1b0>)
     968:	2102      	movs	r1, #2
     96a:	7016      	strb	r6, [r2, #0]
     96c:	4a2a      	ldr	r2, [pc, #168]	; (a18 <ConfigureSpi+0x18c>)
     96e:	601a      	str	r2, [r3, #0]
     970:	47a0      	blx	r4
     972:	2017      	movs	r0, #23
     974:	2102      	movs	r1, #2
     976:	47a0      	blx	r4
     978:	2018      	movs	r0, #24
     97a:	2102      	movs	r1, #2
     97c:	47a0      	blx	r4
     97e:	2019      	movs	r0, #25
     980:	e034      	b.n	9ec <ConfigureSpi+0x160>
     982:	2000      	movs	r0, #0
     984:	2111      	movs	r1, #17
     986:	4798      	blx	r3
     988:	682b      	ldr	r3, [r5, #0]
     98a:	2240      	movs	r2, #64	; 0x40
     98c:	4313      	orrs	r3, r2
     98e:	602b      	str	r3, [r5, #0]
     990:	4b2b      	ldr	r3, [pc, #172]	; (a40 <ConfigureSpi+0x1b4>)
     992:	2201      	movs	r2, #1
     994:	601a      	str	r2, [r3, #0]
     996:	4a2b      	ldr	r2, [pc, #172]	; (a44 <ConfigureSpi+0x1b8>)
     998:	202c      	movs	r0, #44	; 0x2c
     99a:	6017      	str	r7, [r2, #0]
     99c:	4a2a      	ldr	r2, [pc, #168]	; (a48 <ConfigureSpi+0x1bc>)
     99e:	2102      	movs	r1, #2
     9a0:	7016      	strb	r6, [r2, #0]
     9a2:	4a1d      	ldr	r2, [pc, #116]	; (a18 <ConfigureSpi+0x18c>)
     9a4:	601a      	str	r2, [r3, #0]
     9a6:	47a0      	blx	r4
     9a8:	202d      	movs	r0, #45	; 0x2d
     9aa:	2102      	movs	r1, #2
     9ac:	47a0      	blx	r4
     9ae:	202e      	movs	r0, #46	; 0x2e
     9b0:	2102      	movs	r1, #2
     9b2:	47a0      	blx	r4
     9b4:	202f      	movs	r0, #47	; 0x2f
     9b6:	e019      	b.n	9ec <ConfigureSpi+0x160>
     9b8:	2000      	movs	r0, #0
     9ba:	2112      	movs	r1, #18
     9bc:	4798      	blx	r3
     9be:	682b      	ldr	r3, [r5, #0]
     9c0:	2280      	movs	r2, #128	; 0x80
     9c2:	4313      	orrs	r3, r2
     9c4:	602b      	str	r3, [r5, #0]
     9c6:	4b21      	ldr	r3, [pc, #132]	; (a4c <ConfigureSpi+0x1c0>)
     9c8:	2201      	movs	r2, #1
     9ca:	601a      	str	r2, [r3, #0]
     9cc:	4a20      	ldr	r2, [pc, #128]	; (a50 <ConfigureSpi+0x1c4>)
     9ce:	2030      	movs	r0, #48	; 0x30
     9d0:	6017      	str	r7, [r2, #0]
     9d2:	4a20      	ldr	r2, [pc, #128]	; (a54 <ConfigureSpi+0x1c8>)
     9d4:	2102      	movs	r1, #2
     9d6:	7016      	strb	r6, [r2, #0]
     9d8:	4a0f      	ldr	r2, [pc, #60]	; (a18 <ConfigureSpi+0x18c>)
     9da:	601a      	str	r2, [r3, #0]
     9dc:	47a0      	blx	r4
     9de:	2031      	movs	r0, #49	; 0x31
     9e0:	2102      	movs	r1, #2
     9e2:	47a0      	blx	r4
     9e4:	2014      	movs	r0, #20
     9e6:	2102      	movs	r1, #2
     9e8:	47a0      	blx	r4
     9ea:	2015      	movs	r0, #21
     9ec:	2102      	movs	r1, #2
     9ee:	47a0      	blx	r4
     9f0:	bdf8      	pop	{r3, r4, r5, r6, r7, pc}
     9f2:	e7fe      	b.n	9f2 <ConfigureSpi+0x166>
     9f4:	00003595 	.word	0x00003595
     9f8:	02dc6c00 	.word	0x02dc6c00
     9fc:	000006d1 	.word	0x000006d1
     a00:	40000420 	.word	0x40000420
     a04:	00022200 	.word	0x00022200
     a08:	00000825 	.word	0x00000825
     a0c:	42000800 	.word	0x42000800
     a10:	42000804 	.word	0x42000804
     a14:	4200080a 	.word	0x4200080a
     a18:	0001000e 	.word	0x0001000e
     a1c:	42000c00 	.word	0x42000c00
     a20:	42000c04 	.word	0x42000c04
     a24:	42000c0a 	.word	0x42000c0a
     a28:	42001000 	.word	0x42001000
     a2c:	42001004 	.word	0x42001004
     a30:	4200100a 	.word	0x4200100a
     a34:	42001400 	.word	0x42001400
     a38:	42001404 	.word	0x42001404
     a3c:	4200140a 	.word	0x4200140a
     a40:	42001800 	.word	0x42001800
     a44:	42001804 	.word	0x42001804
     a48:	4200180a 	.word	0x4200180a
     a4c:	42001c00 	.word	0x42001c00
     a50:	42001c04 	.word	0x42001c04
     a54:	42001c0a 	.word	0x42001c0a

00000a58 <CheckDigitBound>:
     a58:	2800      	cmp	r0, #0
     a5a:	db07      	blt.n	a6c <CheckDigitBound+0x14>
     a5c:	0fc1      	lsrs	r1, r0, #31
     a5e:	2300      	movs	r3, #0
     a60:	2209      	movs	r2, #9
     a62:	4282      	cmp	r2, r0
     a64:	414b      	adcs	r3, r1
     a66:	425b      	negs	r3, r3
     a68:	4018      	ands	r0, r3
     a6a:	e000      	b.n	a6e <CheckDigitBound+0x16>
     a6c:	2009      	movs	r0, #9
     a6e:	4770      	bx	lr

00000a70 <SplitNumbertoDigits>:
     a70:	b5f7      	push	{r0, r1, r2, r4, r5, r6, r7, lr}
     a72:	1c05      	adds	r5, r0, #0
     a74:	1c0f      	adds	r7, r1, #0
     a76:	9201      	str	r2, [sp, #4]
     a78:	2400      	movs	r4, #0
     a7a:	9b01      	ldr	r3, [sp, #4]
     a7c:	b266      	sxtb	r6, r4
     a7e:	429e      	cmp	r6, r3
     a80:	da0c      	bge.n	a9c <SplitNumbertoDigits+0x2c>
     a82:	1c28      	adds	r0, r5, #0
     a84:	4b06      	ldr	r3, [pc, #24]	; (aa0 <SplitNumbertoDigits+0x30>)
     a86:	210a      	movs	r1, #10
     a88:	4798      	blx	r3
     a8a:	1c28      	adds	r0, r5, #0
     a8c:	55b9      	strb	r1, [r7, r6]
     a8e:	4b05      	ldr	r3, [pc, #20]	; (aa4 <SplitNumbertoDigits+0x34>)
     a90:	210a      	movs	r1, #10
     a92:	4798      	blx	r3
     a94:	3401      	adds	r4, #1
     a96:	1c05      	adds	r5, r0, #0
     a98:	b2e4      	uxtb	r4, r4
     a9a:	e7ee      	b.n	a7a <SplitNumbertoDigits+0xa>
     a9c:	bdf7      	pop	{r0, r1, r2, r4, r5, r6, r7, pc}
     a9e:	46c0      	nop			; (mov r8, r8)
     aa0:	0000361d 	.word	0x0000361d
     aa4:	00003595 	.word	0x00003595

00000aa8 <LCD_DispVariable>:
     aa8:	b5f7      	push	{r0, r1, r2, r4, r5, r6, r7, lr}
     aaa:	1c14      	adds	r4, r2, #0
     aac:	af00      	add	r7, sp, #0
     aae:	2220      	movs	r2, #32
     ab0:	5dd2      	ldrb	r2, [r2, r7]
     ab2:	607b      	str	r3, [r7, #4]
     ab4:	1de3      	adds	r3, r4, #7
     ab6:	08db      	lsrs	r3, r3, #3
     ab8:	603a      	str	r2, [r7, #0]
     aba:	00db      	lsls	r3, r3, #3
     abc:	466a      	mov	r2, sp
     abe:	1ad2      	subs	r2, r2, r3
     ac0:	4695      	mov	sp, r2
     ac2:	4b26      	ldr	r3, [pc, #152]	; (b5c <LCD_DispVariable+0xb4>)
     ac4:	1c0e      	adds	r6, r1, #0
     ac6:	b262      	sxtb	r2, r4
     ac8:	4669      	mov	r1, sp
     aca:	4798      	blx	r3
     acc:	6878      	ldr	r0, [r7, #4]
     ace:	6839      	ldr	r1, [r7, #0]
     ad0:	4b23      	ldr	r3, [pc, #140]	; (b60 <LCD_DispVariable+0xb8>)
     ad2:	466d      	mov	r5, sp
     ad4:	4798      	blx	r3
     ad6:	2c06      	cmp	r4, #6
     ad8:	d902      	bls.n	ae0 <LCD_DispVariable+0x38>
     ada:	79a8      	ldrb	r0, [r5, #6]
     adc:	4b21      	ldr	r3, [pc, #132]	; (b64 <LCD_DispVariable+0xbc>)
     ade:	4798      	blx	r3
     ae0:	2e06      	cmp	r6, #6
     ae2:	d102      	bne.n	aea <LCD_DispVariable+0x42>
     ae4:	202e      	movs	r0, #46	; 0x2e
     ae6:	4b20      	ldr	r3, [pc, #128]	; (b68 <LCD_DispVariable+0xc0>)
     ae8:	4798      	blx	r3
     aea:	2c05      	cmp	r4, #5
     aec:	d902      	bls.n	af4 <LCD_DispVariable+0x4c>
     aee:	7968      	ldrb	r0, [r5, #5]
     af0:	4b1c      	ldr	r3, [pc, #112]	; (b64 <LCD_DispVariable+0xbc>)
     af2:	4798      	blx	r3
     af4:	2e05      	cmp	r6, #5
     af6:	d102      	bne.n	afe <LCD_DispVariable+0x56>
     af8:	202e      	movs	r0, #46	; 0x2e
     afa:	4b1b      	ldr	r3, [pc, #108]	; (b68 <LCD_DispVariable+0xc0>)
     afc:	4798      	blx	r3
     afe:	2c04      	cmp	r4, #4
     b00:	d902      	bls.n	b08 <LCD_DispVariable+0x60>
     b02:	7928      	ldrb	r0, [r5, #4]
     b04:	4b17      	ldr	r3, [pc, #92]	; (b64 <LCD_DispVariable+0xbc>)
     b06:	4798      	blx	r3
     b08:	2e04      	cmp	r6, #4
     b0a:	d102      	bne.n	b12 <LCD_DispVariable+0x6a>
     b0c:	202e      	movs	r0, #46	; 0x2e
     b0e:	4b16      	ldr	r3, [pc, #88]	; (b68 <LCD_DispVariable+0xc0>)
     b10:	4798      	blx	r3
     b12:	2c03      	cmp	r4, #3
     b14:	d902      	bls.n	b1c <LCD_DispVariable+0x74>
     b16:	78e8      	ldrb	r0, [r5, #3]
     b18:	4b12      	ldr	r3, [pc, #72]	; (b64 <LCD_DispVariable+0xbc>)
     b1a:	4798      	blx	r3
     b1c:	2e03      	cmp	r6, #3
     b1e:	d102      	bne.n	b26 <LCD_DispVariable+0x7e>
     b20:	202e      	movs	r0, #46	; 0x2e
     b22:	4b11      	ldr	r3, [pc, #68]	; (b68 <LCD_DispVariable+0xc0>)
     b24:	4798      	blx	r3
     b26:	2c02      	cmp	r4, #2
     b28:	d902      	bls.n	b30 <LCD_DispVariable+0x88>
     b2a:	78a8      	ldrb	r0, [r5, #2]
     b2c:	4b0d      	ldr	r3, [pc, #52]	; (b64 <LCD_DispVariable+0xbc>)
     b2e:	4798      	blx	r3
     b30:	2e02      	cmp	r6, #2
     b32:	d102      	bne.n	b3a <LCD_DispVariable+0x92>
     b34:	202e      	movs	r0, #46	; 0x2e
     b36:	4b0c      	ldr	r3, [pc, #48]	; (b68 <LCD_DispVariable+0xc0>)
     b38:	4798      	blx	r3
     b3a:	2c01      	cmp	r4, #1
     b3c:	d902      	bls.n	b44 <LCD_DispVariable+0x9c>
     b3e:	7868      	ldrb	r0, [r5, #1]
     b40:	4b08      	ldr	r3, [pc, #32]	; (b64 <LCD_DispVariable+0xbc>)
     b42:	4798      	blx	r3
     b44:	2e01      	cmp	r6, #1
     b46:	d102      	bne.n	b4e <LCD_DispVariable+0xa6>
     b48:	202e      	movs	r0, #46	; 0x2e
     b4a:	4b07      	ldr	r3, [pc, #28]	; (b68 <LCD_DispVariable+0xc0>)
     b4c:	4798      	blx	r3
     b4e:	2c00      	cmp	r4, #0
     b50:	d002      	beq.n	b58 <LCD_DispVariable+0xb0>
     b52:	7828      	ldrb	r0, [r5, #0]
     b54:	4b03      	ldr	r3, [pc, #12]	; (b64 <LCD_DispVariable+0xbc>)
     b56:	4798      	blx	r3
     b58:	46bd      	mov	sp, r7
     b5a:	bdf7      	pop	{r0, r1, r2, r4, r5, r6, r7, pc}
     b5c:	00000a71 	.word	0x00000a71
     b60:	00002609 	.word	0x00002609
     b64:	000025c5 	.word	0x000025c5
     b68:	00002579 	.word	0x00002579

00000b6c <CombineDigitstoNumber>:
     b6c:	b5f0      	push	{r4, r5, r6, r7, lr}
     b6e:	2400      	movs	r4, #0
     b70:	2900      	cmp	r1, #0
     b72:	dd2e      	ble.n	bd2 <CombineDigitstoNumber+0x66>
     b74:	5704      	ldrsb	r4, [r0, r4]
     b76:	2901      	cmp	r1, #1
     b78:	d02b      	beq.n	bd2 <CombineDigitstoNumber+0x66>
     b7a:	2301      	movs	r3, #1
     b7c:	56c3      	ldrsb	r3, [r0, r3]
     b7e:	250a      	movs	r5, #10
     b80:	435d      	muls	r5, r3
     b82:	2902      	cmp	r1, #2
     b84:	d026      	beq.n	bd4 <CombineDigitstoNumber+0x68>
     b86:	2302      	movs	r3, #2
     b88:	56c3      	ldrsb	r3, [r0, r3]
     b8a:	2664      	movs	r6, #100	; 0x64
     b8c:	435e      	muls	r6, r3
     b8e:	2903      	cmp	r1, #3
     b90:	d021      	beq.n	bd6 <CombineDigitstoNumber+0x6a>
     b92:	2303      	movs	r3, #3
     b94:	56c3      	ldrsb	r3, [r0, r3]
     b96:	27fa      	movs	r7, #250	; 0xfa
     b98:	00bf      	lsls	r7, r7, #2
     b9a:	435f      	muls	r7, r3
     b9c:	2904      	cmp	r1, #4
     b9e:	d01b      	beq.n	bd8 <CombineDigitstoNumber+0x6c>
     ba0:	2304      	movs	r3, #4
     ba2:	56c3      	ldrsb	r3, [r0, r3]
     ba4:	4a0f      	ldr	r2, [pc, #60]	; (be4 <CombineDigitstoNumber+0x78>)
     ba6:	435a      	muls	r2, r3
     ba8:	4694      	mov	ip, r2
     baa:	2905      	cmp	r1, #5
     bac:	d016      	beq.n	bdc <CombineDigitstoNumber+0x70>
     bae:	2305      	movs	r3, #5
     bb0:	56c3      	ldrsb	r3, [r0, r3]
     bb2:	4a0d      	ldr	r2, [pc, #52]	; (be8 <CombineDigitstoNumber+0x7c>)
     bb4:	435a      	muls	r2, r3
     bb6:	2300      	movs	r3, #0
     bb8:	2906      	cmp	r1, #6
     bba:	d003      	beq.n	bc4 <CombineDigitstoNumber+0x58>
     bbc:	2306      	movs	r3, #6
     bbe:	56c3      	ldrsb	r3, [r0, r3]
     bc0:	490a      	ldr	r1, [pc, #40]	; (bec <CombineDigitstoNumber+0x80>)
     bc2:	434b      	muls	r3, r1
     bc4:	18f0      	adds	r0, r6, r3
     bc6:	1900      	adds	r0, r0, r4
     bc8:	1940      	adds	r0, r0, r5
     bca:	19c0      	adds	r0, r0, r7
     bcc:	4460      	add	r0, ip
     bce:	1880      	adds	r0, r0, r2
     bd0:	bdf0      	pop	{r4, r5, r6, r7, pc}
     bd2:	2500      	movs	r5, #0
     bd4:	2600      	movs	r6, #0
     bd6:	2700      	movs	r7, #0
     bd8:	2300      	movs	r3, #0
     bda:	469c      	mov	ip, r3
     bdc:	2200      	movs	r2, #0
     bde:	1c13      	adds	r3, r2, #0
     be0:	e7f0      	b.n	bc4 <CombineDigitstoNumber+0x58>
     be2:	46c0      	nop			; (mov r8, r8)
     be4:	00002710 	.word	0x00002710
     be8:	000186a0 	.word	0x000186a0
     bec:	000f4240 	.word	0x000f4240

00000bf0 <GetNumDataFromUserWithESC>:
     bf0:	b5f0      	push	{r4, r5, r6, r7, lr}
     bf2:	b08b      	sub	sp, #44	; 0x2c
     bf4:	af02      	add	r7, sp, #8
     bf6:	617b      	str	r3, [r7, #20]
     bf8:	1c13      	adds	r3, r2, #0
     bfa:	3307      	adds	r3, #7
     bfc:	08db      	lsrs	r3, r3, #3
     bfe:	60b9      	str	r1, [r7, #8]
     c00:	61fa      	str	r2, [r7, #28]
     c02:	00db      	lsls	r3, r3, #3
     c04:	466a      	mov	r2, sp
     c06:	2138      	movs	r1, #56	; 0x38
     c08:	5dc9      	ldrb	r1, [r1, r7]
     c0a:	1ad2      	subs	r2, r2, r3
     c0c:	4695      	mov	sp, r2
     c0e:	6139      	str	r1, [r7, #16]
     c10:	9100      	str	r1, [sp, #0]
     c12:	68b9      	ldr	r1, [r7, #8]
     c14:	69fa      	ldr	r2, [r7, #28]
     c16:	697b      	ldr	r3, [r7, #20]
     c18:	4e3e      	ldr	r6, [pc, #248]	; (d14 <GetNumDataFromUserWithESC+0x124>)
     c1a:	1c04      	adds	r4, r0, #0
     c1c:	47b0      	blx	r6
     c1e:	69fb      	ldr	r3, [r7, #28]
     c20:	ad02      	add	r5, sp, #8
     c22:	b25b      	sxtb	r3, r3
     c24:	1c1a      	adds	r2, r3, #0
     c26:	1c20      	adds	r0, r4, #0
     c28:	1c29      	adds	r1, r5, #0
     c2a:	607b      	str	r3, [r7, #4]
     c2c:	4b3a      	ldr	r3, [pc, #232]	; (d18 <GetNumDataFromUserWithESC+0x128>)
     c2e:	4798      	blx	r3
     c30:	4b3a      	ldr	r3, [pc, #232]	; (d1c <GetNumDataFromUserWithESC+0x12c>)
     c32:	4798      	blx	r3
     c34:	69fb      	ldr	r3, [r7, #28]
     c36:	6939      	ldr	r1, [r7, #16]
     c38:	3b01      	subs	r3, #1
     c3a:	b2db      	uxtb	r3, r3
     c3c:	60fb      	str	r3, [r7, #12]
     c3e:	6978      	ldr	r0, [r7, #20]
     c40:	4b37      	ldr	r3, [pc, #220]	; (d20 <GetNumDataFromUserWithESC+0x130>)
     c42:	4798      	blx	r3
     c44:	4b37      	ldr	r3, [pc, #220]	; (d24 <GetNumDataFromUserWithESC+0x134>)
     c46:	4798      	blx	r3
     c48:	6939      	ldr	r1, [r7, #16]
     c4a:	68fc      	ldr	r4, [r7, #12]
     c4c:	61b9      	str	r1, [r7, #24]
     c4e:	4b36      	ldr	r3, [pc, #216]	; (d28 <GetNumDataFromUserWithESC+0x138>)
     c50:	4798      	blx	r3
     c52:	2800      	cmp	r0, #0
     c54:	d0fb      	beq.n	c4e <GetNumDataFromUserWithESC+0x5e>
     c56:	4b35      	ldr	r3, [pc, #212]	; (d2c <GetNumDataFromUserWithESC+0x13c>)
     c58:	4798      	blx	r3
     c5a:	4b35      	ldr	r3, [pc, #212]	; (d30 <GetNumDataFromUserWithESC+0x140>)
     c5c:	781b      	ldrb	r3, [r3, #0]
     c5e:	2b00      	cmp	r3, #0
     c60:	d006      	beq.n	c70 <GetNumDataFromUserWithESC+0x80>
     c62:	b266      	sxtb	r6, r4
     c64:	5da8      	ldrb	r0, [r5, r6]
     c66:	4b33      	ldr	r3, [pc, #204]	; (d34 <GetNumDataFromUserWithESC+0x144>)
     c68:	3001      	adds	r0, #1
     c6a:	b240      	sxtb	r0, r0
     c6c:	4798      	blx	r3
     c6e:	55a8      	strb	r0, [r5, r6]
     c70:	4b31      	ldr	r3, [pc, #196]	; (d38 <GetNumDataFromUserWithESC+0x148>)
     c72:	781b      	ldrb	r3, [r3, #0]
     c74:	2b00      	cmp	r3, #0
     c76:	d006      	beq.n	c86 <GetNumDataFromUserWithESC+0x96>
     c78:	b266      	sxtb	r6, r4
     c7a:	5da8      	ldrb	r0, [r5, r6]
     c7c:	4b2d      	ldr	r3, [pc, #180]	; (d34 <GetNumDataFromUserWithESC+0x144>)
     c7e:	3801      	subs	r0, #1
     c80:	b240      	sxtb	r0, r0
     c82:	4798      	blx	r3
     c84:	55a8      	strb	r0, [r5, r6]
     c86:	4a2d      	ldr	r2, [pc, #180]	; (d3c <GetNumDataFromUserWithESC+0x14c>)
     c88:	4b2d      	ldr	r3, [pc, #180]	; (d40 <GetNumDataFromUserWithESC+0x150>)
     c8a:	7811      	ldrb	r1, [r2, #0]
     c8c:	2900      	cmp	r1, #0
     c8e:	d102      	bne.n	c96 <GetNumDataFromUserWithESC+0xa6>
     c90:	7819      	ldrb	r1, [r3, #0]
     c92:	2900      	cmp	r1, #0
     c94:	d01f      	beq.n	cd6 <GetNumDataFromUserWithESC+0xe6>
     c96:	7812      	ldrb	r2, [r2, #0]
     c98:	2a00      	cmp	r2, #0
     c9a:	d001      	beq.n	ca0 <GetNumDataFromUserWithESC+0xb0>
     c9c:	3c01      	subs	r4, #1
     c9e:	b2e4      	uxtb	r4, r4
     ca0:	781b      	ldrb	r3, [r3, #0]
     ca2:	2b00      	cmp	r3, #0
     ca4:	d001      	beq.n	caa <GetNumDataFromUserWithESC+0xba>
     ca6:	3401      	adds	r4, #1
     ca8:	b2e4      	uxtb	r4, r4
     caa:	69fa      	ldr	r2, [r7, #28]
     cac:	b263      	sxtb	r3, r4
     cae:	429a      	cmp	r2, r3
     cb0:	dd03      	ble.n	cba <GetNumDataFromUserWithESC+0xca>
     cb2:	2b00      	cmp	r3, #0
     cb4:	da02      	bge.n	cbc <GetNumDataFromUserWithESC+0xcc>
     cb6:	68fc      	ldr	r4, [r7, #12]
     cb8:	e000      	b.n	cbc <GetNumDataFromUserWithESC+0xcc>
     cba:	2400      	movs	r4, #0
     cbc:	69fb      	ldr	r3, [r7, #28]
     cbe:	6939      	ldr	r1, [r7, #16]
     cc0:	185a      	adds	r2, r3, r1
     cc2:	1b13      	subs	r3, r2, r4
     cc4:	b2db      	uxtb	r3, r3
     cc6:	61bb      	str	r3, [r7, #24]
     cc8:	68b9      	ldr	r1, [r7, #8]
     cca:	3b01      	subs	r3, #1
     ccc:	b2db      	uxtb	r3, r3
     cce:	1a52      	subs	r2, r2, r1
     cd0:	4293      	cmp	r3, r2
     cd2:	da00      	bge.n	cd6 <GetNumDataFromUserWithESC+0xe6>
     cd4:	61bb      	str	r3, [r7, #24]
     cd6:	4b1b      	ldr	r3, [pc, #108]	; (d44 <GetNumDataFromUserWithESC+0x154>)
     cd8:	781b      	ldrb	r3, [r3, #0]
     cda:	2b00      	cmp	r3, #0
     cdc:	d004      	beq.n	ce8 <GetNumDataFromUserWithESC+0xf8>
     cde:	1c28      	adds	r0, r5, #0
     ce0:	6879      	ldr	r1, [r7, #4]
     ce2:	4b19      	ldr	r3, [pc, #100]	; (d48 <GetNumDataFromUserWithESC+0x158>)
     ce4:	4798      	blx	r3
     ce6:	e011      	b.n	d0c <GetNumDataFromUserWithESC+0x11c>
     ce8:	4b18      	ldr	r3, [pc, #96]	; (d4c <GetNumDataFromUserWithESC+0x15c>)
     cea:	781b      	ldrb	r3, [r3, #0]
     cec:	2b00      	cmp	r3, #0
     cee:	d10b      	bne.n	d08 <GetNumDataFromUserWithESC+0x118>
     cf0:	69b9      	ldr	r1, [r7, #24]
     cf2:	6978      	ldr	r0, [r7, #20]
     cf4:	4e0a      	ldr	r6, [pc, #40]	; (d20 <GetNumDataFromUserWithESC+0x130>)
     cf6:	47b0      	blx	r6
     cf8:	b263      	sxtb	r3, r4
     cfa:	5ce8      	ldrb	r0, [r5, r3]
     cfc:	4b14      	ldr	r3, [pc, #80]	; (d50 <GetNumDataFromUserWithESC+0x160>)
     cfe:	4798      	blx	r3
     d00:	6978      	ldr	r0, [r7, #20]
     d02:	69b9      	ldr	r1, [r7, #24]
     d04:	47b0      	blx	r6
     d06:	e7a2      	b.n	c4e <GetNumDataFromUserWithESC+0x5e>
     d08:	2001      	movs	r0, #1
     d0a:	4240      	negs	r0, r0
     d0c:	46bd      	mov	sp, r7
     d0e:	b009      	add	sp, #36	; 0x24
     d10:	bdf0      	pop	{r4, r5, r6, r7, pc}
     d12:	46c0      	nop			; (mov r8, r8)
     d14:	00000aa9 	.word	0x00000aa9
     d18:	00000a71 	.word	0x00000a71
     d1c:	00002721 	.word	0x00002721
     d20:	00002609 	.word	0x00002609
     d24:	0000067d 	.word	0x0000067d
     d28:	0000048d 	.word	0x0000048d
     d2c:	000004c5 	.word	0x000004c5
     d30:	200000c0 	.word	0x200000c0
     d34:	00000a59 	.word	0x00000a59
     d38:	200000c1 	.word	0x200000c1
     d3c:	200000bc 	.word	0x200000bc
     d40:	200000be 	.word	0x200000be
     d44:	200000bf 	.word	0x200000bf
     d48:	00000b6d 	.word	0x00000b6d
     d4c:	200000bd 	.word	0x200000bd
     d50:	000025c5 	.word	0x000025c5

00000d54 <system_board_init>:
     d54:	4770      	bx	lr
	...

00000d58 <cpu_irq_enter_critical>:
     d58:	4b09      	ldr	r3, [pc, #36]	; (d80 <cpu_irq_enter_critical+0x28>)
     d5a:	6819      	ldr	r1, [r3, #0]
     d5c:	2900      	cmp	r1, #0
     d5e:	d10b      	bne.n	d78 <cpu_irq_enter_critical+0x20>
     d60:	f3ef 8010 	mrs	r0, PRIMASK
     d64:	4a07      	ldr	r2, [pc, #28]	; (d84 <cpu_irq_enter_critical+0x2c>)
     d66:	2800      	cmp	r0, #0
     d68:	d105      	bne.n	d76 <cpu_irq_enter_critical+0x1e>
     d6a:	b672      	cpsid	i
     d6c:	f3bf 8f5f 	dmb	sy
     d70:	4905      	ldr	r1, [pc, #20]	; (d88 <cpu_irq_enter_critical+0x30>)
     d72:	7008      	strb	r0, [r1, #0]
     d74:	2101      	movs	r1, #1
     d76:	7011      	strb	r1, [r2, #0]
     d78:	681a      	ldr	r2, [r3, #0]
     d7a:	3201      	adds	r2, #1
     d7c:	601a      	str	r2, [r3, #0]
     d7e:	4770      	bx	lr
     d80:	200000a0 	.word	0x200000a0
     d84:	200000a4 	.word	0x200000a4
     d88:	20000000 	.word	0x20000000

00000d8c <cpu_irq_leave_critical>:
     d8c:	4b08      	ldr	r3, [pc, #32]	; (db0 <cpu_irq_leave_critical+0x24>)
     d8e:	681a      	ldr	r2, [r3, #0]
     d90:	3a01      	subs	r2, #1
     d92:	601a      	str	r2, [r3, #0]
     d94:	681b      	ldr	r3, [r3, #0]
     d96:	2b00      	cmp	r3, #0
     d98:	d109      	bne.n	dae <cpu_irq_leave_critical+0x22>
     d9a:	4b06      	ldr	r3, [pc, #24]	; (db4 <cpu_irq_leave_critical+0x28>)
     d9c:	781b      	ldrb	r3, [r3, #0]
     d9e:	2b00      	cmp	r3, #0
     da0:	d005      	beq.n	dae <cpu_irq_leave_critical+0x22>
     da2:	4b05      	ldr	r3, [pc, #20]	; (db8 <cpu_irq_leave_critical+0x2c>)
     da4:	2201      	movs	r2, #1
     da6:	701a      	strb	r2, [r3, #0]
     da8:	f3bf 8f5f 	dmb	sy
     dac:	b662      	cpsie	i
     dae:	4770      	bx	lr
     db0:	200000a0 	.word	0x200000a0
     db4:	200000a4 	.word	0x200000a4
     db8:	20000000 	.word	0x20000000

00000dbc <system_clock_source_enable.part.0>:
     dbc:	b510      	push	{r4, lr}
     dbe:	4b0c      	ldr	r3, [pc, #48]	; (df0 <system_clock_source_enable.part.0+0x34>)
     dc0:	2102      	movs	r1, #2
     dc2:	681a      	ldr	r2, [r3, #0]
     dc4:	430a      	orrs	r2, r1
     dc6:	601a      	str	r2, [r3, #0]
     dc8:	6819      	ldr	r1, [r3, #0]
     dca:	2280      	movs	r2, #128	; 0x80
     dcc:	4391      	bics	r1, r2
     dce:	4a09      	ldr	r2, [pc, #36]	; (df4 <system_clock_source_enable.part.0+0x38>)
     dd0:	b289      	uxth	r1, r1
     dd2:	8491      	strh	r1, [r2, #36]	; 0x24
     dd4:	1c10      	adds	r0, r2, #0
     dd6:	68c1      	ldr	r1, [r0, #12]
     dd8:	4a06      	ldr	r2, [pc, #24]	; (df4 <system_clock_source_enable.part.0+0x38>)
     dda:	06cc      	lsls	r4, r1, #27
     ddc:	d5fb      	bpl.n	dd6 <system_clock_source_enable.part.0+0x1a>
     dde:	6899      	ldr	r1, [r3, #8]
     de0:	2000      	movs	r0, #0
     de2:	62d1      	str	r1, [r2, #44]	; 0x2c
     de4:	6859      	ldr	r1, [r3, #4]
     de6:	6291      	str	r1, [r2, #40]	; 0x28
     de8:	681b      	ldr	r3, [r3, #0]
     dea:	b29b      	uxth	r3, r3
     dec:	8493      	strh	r3, [r2, #36]	; 0x24
     dee:	bd10      	pop	{r4, pc}
     df0:	200000a8 	.word	0x200000a8
     df4:	40000800 	.word	0x40000800

00000df8 <system_clock_source_get_hz>:
     df8:	b510      	push	{r4, lr}
     dfa:	2807      	cmp	r0, #7
     dfc:	d829      	bhi.n	e52 <system_clock_source_get_hz+0x5a>
     dfe:	f002 fbbf 	bl	3580 <__gnu_thumb1_case_uqi>
     e02:	2807      	.short	0x2807
     e04:	12040428 	.word	0x12040428
     e08:	150a      	.short	0x150a
     e0a:	2080      	movs	r0, #128	; 0x80
     e0c:	0200      	lsls	r0, r0, #8
     e0e:	e023      	b.n	e58 <system_clock_source_get_hz+0x60>
     e10:	4b12      	ldr	r3, [pc, #72]	; (e5c <system_clock_source_get_hz+0x64>)
     e12:	68d8      	ldr	r0, [r3, #12]
     e14:	e020      	b.n	e58 <system_clock_source_get_hz+0x60>
     e16:	4b12      	ldr	r3, [pc, #72]	; (e60 <system_clock_source_get_hz+0x68>)
     e18:	6a18      	ldr	r0, [r3, #32]
     e1a:	4b12      	ldr	r3, [pc, #72]	; (e64 <system_clock_source_get_hz+0x6c>)
     e1c:	0580      	lsls	r0, r0, #22
     e1e:	0f80      	lsrs	r0, r0, #30
     e20:	40c3      	lsrs	r3, r0
     e22:	1c18      	adds	r0, r3, #0
     e24:	e018      	b.n	e58 <system_clock_source_get_hz+0x60>
     e26:	4b0d      	ldr	r3, [pc, #52]	; (e5c <system_clock_source_get_hz+0x64>)
     e28:	6918      	ldr	r0, [r3, #16]
     e2a:	e015      	b.n	e58 <system_clock_source_get_hz+0x60>
     e2c:	4c0b      	ldr	r4, [pc, #44]	; (e5c <system_clock_source_get_hz+0x64>)
     e2e:	2302      	movs	r3, #2
     e30:	6820      	ldr	r0, [r4, #0]
     e32:	4018      	ands	r0, r3
     e34:	d010      	beq.n	e58 <system_clock_source_get_hz+0x60>
     e36:	4b0a      	ldr	r3, [pc, #40]	; (e60 <system_clock_source_get_hz+0x68>)
     e38:	68db      	ldr	r3, [r3, #12]
     e3a:	06da      	lsls	r2, r3, #27
     e3c:	d5fb      	bpl.n	e36 <system_clock_source_get_hz+0x3e>
     e3e:	6823      	ldr	r3, [r4, #0]
     e40:	075a      	lsls	r2, r3, #29
     e42:	d508      	bpl.n	e56 <system_clock_source_get_hz+0x5e>
     e44:	4b08      	ldr	r3, [pc, #32]	; (e68 <system_clock_source_get_hz+0x70>)
     e46:	2000      	movs	r0, #0
     e48:	4798      	blx	r3
     e4a:	68a3      	ldr	r3, [r4, #8]
     e4c:	b29b      	uxth	r3, r3
     e4e:	4358      	muls	r0, r3
     e50:	e002      	b.n	e58 <system_clock_source_get_hz+0x60>
     e52:	2000      	movs	r0, #0
     e54:	e000      	b.n	e58 <system_clock_source_get_hz+0x60>
     e56:	4805      	ldr	r0, [pc, #20]	; (e6c <system_clock_source_get_hz+0x74>)
     e58:	bd10      	pop	{r4, pc}
     e5a:	46c0      	nop			; (mov r8, r8)
     e5c:	200000a8 	.word	0x200000a8
     e60:	40000800 	.word	0x40000800
     e64:	007a1200 	.word	0x007a1200
     e68:	000013b5 	.word	0x000013b5
     e6c:	02dc6c00 	.word	0x02dc6c00

00000e70 <system_clock_source_osc8m_set_config>:
     e70:	b570      	push	{r4, r5, r6, lr}
     e72:	4b0d      	ldr	r3, [pc, #52]	; (ea8 <system_clock_source_osc8m_set_config+0x38>)
     e74:	7845      	ldrb	r5, [r0, #1]
     e76:	6a1e      	ldr	r6, [r3, #32]
     e78:	7881      	ldrb	r1, [r0, #2]
     e7a:	7804      	ldrb	r4, [r0, #0]
     e7c:	2201      	movs	r2, #1
     e7e:	2040      	movs	r0, #64	; 0x40
     e80:	4386      	bics	r6, r0
     e82:	4015      	ands	r5, r2
     e84:	01ad      	lsls	r5, r5, #6
     e86:	1c30      	adds	r0, r6, #0
     e88:	400a      	ands	r2, r1
     e8a:	4328      	orrs	r0, r5
     e8c:	01d1      	lsls	r1, r2, #7
     e8e:	2280      	movs	r2, #128	; 0x80
     e90:	4390      	bics	r0, r2
     e92:	1c02      	adds	r2, r0, #0
     e94:	430a      	orrs	r2, r1
     e96:	4805      	ldr	r0, [pc, #20]	; (eac <system_clock_source_osc8m_set_config+0x3c>)
     e98:	2103      	movs	r1, #3
     e9a:	4021      	ands	r1, r4
     e9c:	0209      	lsls	r1, r1, #8
     e9e:	4002      	ands	r2, r0
     ea0:	430a      	orrs	r2, r1
     ea2:	621a      	str	r2, [r3, #32]
     ea4:	bd70      	pop	{r4, r5, r6, pc}
     ea6:	46c0      	nop			; (mov r8, r8)
     ea8:	40000800 	.word	0x40000800
     eac:	fffffcff 	.word	0xfffffcff

00000eb0 <system_clock_source_xosc32k_set_config>:
     eb0:	b5f0      	push	{r4, r5, r6, r7, lr}
     eb2:	4a23      	ldr	r2, [pc, #140]	; (f40 <system_clock_source_xosc32k_set_config+0x90>)
     eb4:	7841      	ldrb	r1, [r0, #1]
     eb6:	b085      	sub	sp, #20
     eb8:	1c03      	adds	r3, r0, #0
     eba:	8a97      	ldrh	r7, [r2, #20]
     ebc:	9103      	str	r1, [sp, #12]
     ebe:	789c      	ldrb	r4, [r3, #2]
     ec0:	7800      	ldrb	r0, [r0, #0]
     ec2:	9400      	str	r4, [sp, #0]
     ec4:	4241      	negs	r1, r0
     ec6:	4148      	adcs	r0, r1
     ec8:	7b59      	ldrb	r1, [r3, #13]
     eca:	78dd      	ldrb	r5, [r3, #3]
     ecc:	791e      	ldrb	r6, [r3, #4]
     ece:	9101      	str	r1, [sp, #4]
     ed0:	7b1c      	ldrb	r4, [r3, #12]
     ed2:	0080      	lsls	r0, r0, #2
     ed4:	9402      	str	r4, [sp, #8]
     ed6:	7b99      	ldrb	r1, [r3, #14]
     ed8:	689c      	ldr	r4, [r3, #8]
     eda:	4b1a      	ldr	r3, [pc, #104]	; (f44 <system_clock_source_xosc32k_set_config+0x94>)
     edc:	611c      	str	r4, [r3, #16]
     ede:	2404      	movs	r4, #4
     ee0:	2301      	movs	r3, #1
     ee2:	43a7      	bics	r7, r4
     ee4:	4338      	orrs	r0, r7
     ee6:	401e      	ands	r6, r3
     ee8:	2708      	movs	r7, #8
     eea:	43b8      	bics	r0, r7
     eec:	401d      	ands	r5, r3
     eee:	00f6      	lsls	r6, r6, #3
     ef0:	4306      	orrs	r6, r0
     ef2:	40a5      	lsls	r5, r4
     ef4:	2010      	movs	r0, #16
     ef6:	9c00      	ldr	r4, [sp, #0]
     ef8:	4386      	bics	r6, r0
     efa:	4335      	orrs	r5, r6
     efc:	401c      	ands	r4, r3
     efe:	0167      	lsls	r7, r4, #5
     f00:	2020      	movs	r0, #32
     f02:	1c2c      	adds	r4, r5, #0
     f04:	4384      	bics	r4, r0
     f06:	433c      	orrs	r4, r7
     f08:	9f02      	ldr	r7, [sp, #8]
     f0a:	2040      	movs	r0, #64	; 0x40
     f0c:	401f      	ands	r7, r3
     f0e:	4384      	bics	r4, r0
     f10:	9801      	ldr	r0, [sp, #4]
     f12:	01bf      	lsls	r7, r7, #6
     f14:	433c      	orrs	r4, r7
     f16:	4018      	ands	r0, r3
     f18:	2580      	movs	r5, #128	; 0x80
     f1a:	01c0      	lsls	r0, r0, #7
     f1c:	43ac      	bics	r4, r5
     f1e:	9d03      	ldr	r5, [sp, #12]
     f20:	4304      	orrs	r4, r0
     f22:	2007      	movs	r0, #7
     f24:	4028      	ands	r0, r5
     f26:	4d08      	ldr	r5, [pc, #32]	; (f48 <system_clock_source_xosc32k_set_config+0x98>)
     f28:	0200      	lsls	r0, r0, #8
     f2a:	402c      	ands	r4, r5
     f2c:	4304      	orrs	r4, r0
     f2e:	4807      	ldr	r0, [pc, #28]	; (f4c <system_clock_source_xosc32k_set_config+0x9c>)
     f30:	4019      	ands	r1, r3
     f32:	1c23      	adds	r3, r4, #0
     f34:	0309      	lsls	r1, r1, #12
     f36:	4003      	ands	r3, r0
     f38:	430b      	orrs	r3, r1
     f3a:	8293      	strh	r3, [r2, #20]
     f3c:	b005      	add	sp, #20
     f3e:	bdf0      	pop	{r4, r5, r6, r7, pc}
     f40:	40000800 	.word	0x40000800
     f44:	200000a8 	.word	0x200000a8
     f48:	fffff8ff 	.word	0xfffff8ff
     f4c:	ffffefff 	.word	0xffffefff

00000f50 <system_clock_source_dfll_set_config>:
     f50:	b530      	push	{r4, r5, lr}
     f52:	4b20      	ldr	r3, [pc, #128]	; (fd4 <system_clock_source_dfll_set_config+0x84>)
     f54:	7a01      	ldrb	r1, [r0, #8]
     f56:	699d      	ldr	r5, [r3, #24]
     f58:	8942      	ldrh	r2, [r0, #10]
     f5a:	052d      	lsls	r5, r5, #20
     f5c:	0f2d      	lsrs	r5, r5, #28
     f5e:	4b1e      	ldr	r3, [pc, #120]	; (fd8 <system_clock_source_dfll_set_config+0x88>)
     f60:	2d02      	cmp	r5, #2
     f62:	d807      	bhi.n	f74 <system_clock_source_dfll_set_config+0x24>
     f64:	24f8      	movs	r4, #248	; 0xf8
     f66:	0164      	lsls	r4, r4, #5
     f68:	0209      	lsls	r1, r1, #8
     f6a:	4021      	ands	r1, r4
     f6c:	b2d4      	uxtb	r4, r2
     f6e:	1c0a      	adds	r2, r1, #0
     f70:	4322      	orrs	r2, r4
     f72:	e004      	b.n	f7e <system_clock_source_dfll_set_config+0x2e>
     f74:	0689      	lsls	r1, r1, #26
     f76:	0592      	lsls	r2, r2, #22
     f78:	0c09      	lsrs	r1, r1, #16
     f7a:	0d92      	lsrs	r2, r2, #22
     f7c:	430a      	orrs	r2, r1
     f7e:	605a      	str	r2, [r3, #4]
     f80:	8842      	ldrh	r2, [r0, #2]
     f82:	8881      	ldrh	r1, [r0, #4]
     f84:	79c4      	ldrb	r4, [r0, #7]
     f86:	4311      	orrs	r1, r2
     f88:	7982      	ldrb	r2, [r0, #6]
     f8a:	4322      	orrs	r2, r4
     f8c:	430a      	orrs	r2, r1
     f8e:	7841      	ldrb	r1, [r0, #1]
     f90:	01c9      	lsls	r1, r1, #7
     f92:	430a      	orrs	r2, r1
     f94:	601a      	str	r2, [r3, #0]
     f96:	7802      	ldrb	r2, [r0, #0]
     f98:	2a04      	cmp	r2, #4
     f9a:	d119      	bne.n	fd0 <system_clock_source_dfll_set_config+0x80>
     f9c:	7b04      	ldrb	r4, [r0, #12]
     f9e:	89c2      	ldrh	r2, [r0, #14]
     fa0:	8a01      	ldrh	r1, [r0, #16]
     fa2:	2d02      	cmp	r5, #2
     fa4:	d809      	bhi.n	fba <system_clock_source_dfll_set_config+0x6a>
     fa6:	20f8      	movs	r0, #248	; 0xf8
     fa8:	0540      	lsls	r0, r0, #21
     faa:	0624      	lsls	r4, r4, #24
     fac:	4004      	ands	r4, r0
     fae:	20ff      	movs	r0, #255	; 0xff
     fb0:	0412      	lsls	r2, r2, #16
     fb2:	0400      	lsls	r0, r0, #16
     fb4:	4002      	ands	r2, r0
     fb6:	4322      	orrs	r2, r4
     fb8:	e004      	b.n	fc4 <system_clock_source_dfll_set_config+0x74>
     fba:	4808      	ldr	r0, [pc, #32]	; (fdc <system_clock_source_dfll_set_config+0x8c>)
     fbc:	06a4      	lsls	r4, r4, #26
     fbe:	0412      	lsls	r2, r2, #16
     fc0:	4321      	orrs	r1, r4
     fc2:	4002      	ands	r2, r0
     fc4:	4311      	orrs	r1, r2
     fc6:	6099      	str	r1, [r3, #8]
     fc8:	681a      	ldr	r2, [r3, #0]
     fca:	2104      	movs	r1, #4
     fcc:	430a      	orrs	r2, r1
     fce:	601a      	str	r2, [r3, #0]
     fd0:	bd30      	pop	{r4, r5, pc}
     fd2:	46c0      	nop			; (mov r8, r8)
     fd4:	41002000 	.word	0x41002000
     fd8:	200000a8 	.word	0x200000a8
     fdc:	03ff0000 	.word	0x03ff0000

00000fe0 <system_clock_source_enable>:
     fe0:	b508      	push	{r3, lr}
     fe2:	2807      	cmp	r0, #7
     fe4:	d821      	bhi.n	102a <STACK_SIZE+0x2a>
     fe6:	f002 facb 	bl	3580 <__gnu_thumb1_case_uqi>
     fea:	2010      	.short	0x2010
     fec:	160a1b20 	.word	0x160a1b20
     ff0:	1d04      	.short	0x1d04
     ff2:	4b0f      	ldr	r3, [pc, #60]	; (1030 <STACK_SIZE+0x30>)
     ff4:	2102      	movs	r1, #2
     ff6:	6a1a      	ldr	r2, [r3, #32]
     ff8:	430a      	orrs	r2, r1
     ffa:	621a      	str	r2, [r3, #32]
     ffc:	e010      	b.n	1020 <STACK_SIZE+0x20>
     ffe:	4b0c      	ldr	r3, [pc, #48]	; (1030 <STACK_SIZE+0x30>)
    1000:	2102      	movs	r1, #2
    1002:	699a      	ldr	r2, [r3, #24]
    1004:	430a      	orrs	r2, r1
    1006:	619a      	str	r2, [r3, #24]
    1008:	e00a      	b.n	1020 <STACK_SIZE+0x20>
    100a:	4b09      	ldr	r3, [pc, #36]	; (1030 <STACK_SIZE+0x30>)
    100c:	2102      	movs	r1, #2
    100e:	8a1a      	ldrh	r2, [r3, #16]
    1010:	430a      	orrs	r2, r1
    1012:	821a      	strh	r2, [r3, #16]
    1014:	e004      	b.n	1020 <STACK_SIZE+0x20>
    1016:	4b06      	ldr	r3, [pc, #24]	; (1030 <STACK_SIZE+0x30>)
    1018:	2102      	movs	r1, #2
    101a:	8a9a      	ldrh	r2, [r3, #20]
    101c:	430a      	orrs	r2, r1
    101e:	829a      	strh	r2, [r3, #20]
    1020:	2000      	movs	r0, #0
    1022:	e003      	b.n	102c <STACK_SIZE+0x2c>
    1024:	4b03      	ldr	r3, [pc, #12]	; (1034 <STACK_SIZE+0x34>)
    1026:	4798      	blx	r3
    1028:	e000      	b.n	102c <STACK_SIZE+0x2c>
    102a:	2017      	movs	r0, #23
    102c:	bd08      	pop	{r3, pc}
    102e:	46c0      	nop			; (mov r8, r8)
    1030:	40000800 	.word	0x40000800
    1034:	00000dbd 	.word	0x00000dbd

00001038 <system_clock_init>:
    1038:	b5f0      	push	{r4, r5, r6, r7, lr}
    103a:	23c2      	movs	r3, #194	; 0xc2
    103c:	4f40      	ldr	r7, [pc, #256]	; (1140 <system_clock_init+0x108>)
    103e:	00db      	lsls	r3, r3, #3
    1040:	60bb      	str	r3, [r7, #8]
    1042:	4b40      	ldr	r3, [pc, #256]	; (1144 <system_clock_init+0x10c>)
    1044:	211e      	movs	r1, #30
    1046:	685a      	ldr	r2, [r3, #4]
    1048:	b08f      	sub	sp, #60	; 0x3c
    104a:	438a      	bics	r2, r1
    104c:	2104      	movs	r1, #4
    104e:	430a      	orrs	r2, r1
    1050:	605a      	str	r2, [r3, #4]
    1052:	ae09      	add	r6, sp, #36	; 0x24
    1054:	2302      	movs	r3, #2
    1056:	7033      	strb	r3, [r6, #0]
    1058:	2400      	movs	r4, #0
    105a:	b2e0      	uxtb	r0, r4
    105c:	1c31      	adds	r1, r6, #0
    105e:	4d3a      	ldr	r5, [pc, #232]	; (1148 <system_clock_init+0x110>)
    1060:	3401      	adds	r4, #1
    1062:	47a8      	blx	r5
    1064:	2c1c      	cmp	r4, #28
    1066:	d1f8      	bne.n	105a <system_clock_init+0x22>
    1068:	2280      	movs	r2, #128	; 0x80
    106a:	a805      	add	r0, sp, #20
    106c:	0212      	lsls	r2, r2, #8
    106e:	2300      	movs	r3, #0
    1070:	6082      	str	r2, [r0, #8]
    1072:	2201      	movs	r2, #1
    1074:	7003      	strb	r3, [r0, #0]
    1076:	7083      	strb	r3, [r0, #2]
    1078:	70c3      	strb	r3, [r0, #3]
    107a:	7102      	strb	r2, [r0, #4]
    107c:	7303      	strb	r3, [r0, #12]
    107e:	7383      	strb	r3, [r0, #14]
    1080:	7343      	strb	r3, [r0, #13]
    1082:	2203      	movs	r2, #3
    1084:	4b31      	ldr	r3, [pc, #196]	; (114c <system_clock_init+0x114>)
    1086:	7042      	strb	r2, [r0, #1]
    1088:	4798      	blx	r3
    108a:	2005      	movs	r0, #5
    108c:	4c30      	ldr	r4, [pc, #192]	; (1150 <system_clock_init+0x118>)
    108e:	47a0      	blx	r4
    1090:	68fa      	ldr	r2, [r7, #12]
    1092:	4b2b      	ldr	r3, [pc, #172]	; (1140 <system_clock_init+0x108>)
    1094:	0791      	lsls	r1, r2, #30
    1096:	d5fb      	bpl.n	1090 <system_clock_init+0x58>
    1098:	8a9a      	ldrh	r2, [r3, #20]
    109a:	2180      	movs	r1, #128	; 0x80
    109c:	430a      	orrs	r2, r1
    109e:	2104      	movs	r1, #4
    10a0:	829a      	strh	r2, [r3, #20]
    10a2:	233f      	movs	r3, #63	; 0x3f
    10a4:	7031      	strb	r1, [r6, #0]
    10a6:	492b      	ldr	r1, [pc, #172]	; (1154 <system_clock_init+0x11c>)
    10a8:	2207      	movs	r2, #7
    10aa:	2500      	movs	r5, #0
    10ac:	8173      	strh	r3, [r6, #10]
    10ae:	81f3      	strh	r3, [r6, #14]
    10b0:	1c30      	adds	r0, r6, #0
    10b2:	4b29      	ldr	r3, [pc, #164]	; (1158 <system_clock_init+0x120>)
    10b4:	7232      	strb	r2, [r6, #8]
    10b6:	7332      	strb	r2, [r6, #12]
    10b8:	8231      	strh	r1, [r6, #16]
    10ba:	8075      	strh	r5, [r6, #2]
    10bc:	80b5      	strh	r5, [r6, #4]
    10be:	71b5      	strb	r5, [r6, #6]
    10c0:	71f5      	strb	r5, [r6, #7]
    10c2:	7075      	strb	r5, [r6, #1]
    10c4:	4798      	blx	r3
    10c6:	2601      	movs	r6, #1
    10c8:	a801      	add	r0, sp, #4
    10ca:	4b24      	ldr	r3, [pc, #144]	; (115c <system_clock_init+0x124>)
    10cc:	7086      	strb	r6, [r0, #2]
    10ce:	7045      	strb	r5, [r0, #1]
    10d0:	7005      	strb	r5, [r0, #0]
    10d2:	4798      	blx	r3
    10d4:	2006      	movs	r0, #6
    10d6:	47a0      	blx	r4
    10d8:	4b21      	ldr	r3, [pc, #132]	; (1160 <system_clock_init+0x128>)
    10da:	4798      	blx	r3
    10dc:	ac02      	add	r4, sp, #8
    10de:	2305      	movs	r3, #5
    10e0:	1c30      	adds	r0, r6, #0
    10e2:	7023      	strb	r3, [r4, #0]
    10e4:	1c21      	adds	r1, r4, #0
    10e6:	4b1f      	ldr	r3, [pc, #124]	; (1164 <system_clock_init+0x12c>)
    10e8:	6066      	str	r6, [r4, #4]
    10ea:	7266      	strb	r6, [r4, #9]
    10ec:	7065      	strb	r5, [r4, #1]
    10ee:	7225      	strb	r5, [r4, #8]
    10f0:	4798      	blx	r3
    10f2:	1c30      	adds	r0, r6, #0
    10f4:	491c      	ldr	r1, [pc, #112]	; (1168 <system_clock_init+0x130>)
    10f6:	4788      	blx	r1
    10f8:	1c21      	adds	r1, r4, #0
    10fa:	1c28      	adds	r0, r5, #0
    10fc:	4b12      	ldr	r3, [pc, #72]	; (1148 <system_clock_init+0x110>)
    10fe:	7026      	strb	r6, [r4, #0]
    1100:	4798      	blx	r3
    1102:	1c28      	adds	r0, r5, #0
    1104:	4b19      	ldr	r3, [pc, #100]	; (116c <system_clock_init+0x134>)
    1106:	4798      	blx	r3
    1108:	4b19      	ldr	r3, [pc, #100]	; (1170 <system_clock_init+0x138>)
    110a:	4798      	blx	r3
    110c:	4a15      	ldr	r2, [pc, #84]	; (1164 <system_clock_init+0x12c>)
    110e:	4e16      	ldr	r6, [pc, #88]	; (1168 <system_clock_init+0x130>)
    1110:	68f9      	ldr	r1, [r7, #12]
    1112:	23d0      	movs	r3, #208	; 0xd0
    1114:	400b      	ands	r3, r1
    1116:	2bd0      	cmp	r3, #208	; 0xd0
    1118:	d1fa      	bne.n	1110 <system_clock_init+0xd8>
    111a:	4b16      	ldr	r3, [pc, #88]	; (1174 <system_clock_init+0x13c>)
    111c:	2500      	movs	r5, #0
    111e:	721d      	strb	r5, [r3, #8]
    1120:	725d      	strb	r5, [r3, #9]
    1122:	729d      	strb	r5, [r3, #10]
    1124:	2301      	movs	r3, #1
    1126:	6063      	str	r3, [r4, #4]
    1128:	1c28      	adds	r0, r5, #0
    112a:	2307      	movs	r3, #7
    112c:	1c21      	adds	r1, r4, #0
    112e:	7023      	strb	r3, [r4, #0]
    1130:	7065      	strb	r5, [r4, #1]
    1132:	7225      	strb	r5, [r4, #8]
    1134:	7265      	strb	r5, [r4, #9]
    1136:	4790      	blx	r2
    1138:	1c28      	adds	r0, r5, #0
    113a:	47b0      	blx	r6
    113c:	b00f      	add	sp, #60	; 0x3c
    113e:	bdf0      	pop	{r4, r5, r6, r7, pc}
    1140:	40000800 	.word	0x40000800
    1144:	41004000 	.word	0x41004000
    1148:	00001399 	.word	0x00001399
    114c:	00000eb1 	.word	0x00000eb1
    1150:	00000fe1 	.word	0x00000fe1
    1154:	000005b9 	.word	0x000005b9
    1158:	00000f51 	.word	0x00000f51
    115c:	00000e71 	.word	0x00000e71
    1160:	00001185 	.word	0x00001185
    1164:	000011a5 	.word	0x000011a5
    1168:	00001249 	.word	0x00001249
    116c:	00001311 	.word	0x00001311
    1170:	00000dbd 	.word	0x00000dbd
    1174:	40000400 	.word	0x40000400

00001178 <system_gclk_is_syncing>:
    1178:	4b01      	ldr	r3, [pc, #4]	; (1180 <system_gclk_is_syncing+0x8>)
    117a:	7858      	ldrb	r0, [r3, #1]
    117c:	09c0      	lsrs	r0, r0, #7
    117e:	4770      	bx	lr
    1180:	40000c00 	.word	0x40000c00

00001184 <system_gclk_init>:
    1184:	4b05      	ldr	r3, [pc, #20]	; (119c <system_gclk_init+0x18>)
    1186:	2108      	movs	r1, #8
    1188:	699a      	ldr	r2, [r3, #24]
    118a:	430a      	orrs	r2, r1
    118c:	619a      	str	r2, [r3, #24]
    118e:	4b04      	ldr	r3, [pc, #16]	; (11a0 <system_gclk_init+0x1c>)
    1190:	2201      	movs	r2, #1
    1192:	701a      	strb	r2, [r3, #0]
    1194:	781a      	ldrb	r2, [r3, #0]
    1196:	07d1      	lsls	r1, r2, #31
    1198:	d4fc      	bmi.n	1194 <system_gclk_init+0x10>
    119a:	4770      	bx	lr
    119c:	40000400 	.word	0x40000400
    11a0:	40000c00 	.word	0x40000c00

000011a4 <system_gclk_gen_set_config>:
    11a4:	b5f8      	push	{r3, r4, r5, r6, r7, lr}
    11a6:	780c      	ldrb	r4, [r1, #0]
    11a8:	784b      	ldrb	r3, [r1, #1]
    11aa:	0224      	lsls	r4, r4, #8
    11ac:	1c05      	adds	r5, r0, #0
    11ae:	1c06      	adds	r6, r0, #0
    11b0:	4304      	orrs	r4, r0
    11b2:	2b00      	cmp	r3, #0
    11b4:	d002      	beq.n	11bc <system_gclk_gen_set_config+0x18>
    11b6:	2380      	movs	r3, #128	; 0x80
    11b8:	02db      	lsls	r3, r3, #11
    11ba:	431c      	orrs	r4, r3
    11bc:	7a4b      	ldrb	r3, [r1, #9]
    11be:	2b00      	cmp	r3, #0
    11c0:	d002      	beq.n	11c8 <system_gclk_gen_set_config+0x24>
    11c2:	2380      	movs	r3, #128	; 0x80
    11c4:	031b      	lsls	r3, r3, #12
    11c6:	431c      	orrs	r4, r3
    11c8:	684b      	ldr	r3, [r1, #4]
    11ca:	2b01      	cmp	r3, #1
    11cc:	d913      	bls.n	11f6 <system_gclk_gen_set_config+0x52>
    11ce:	1e5e      	subs	r6, r3, #1
    11d0:	401e      	ands	r6, r3
    11d2:	2202      	movs	r2, #2
    11d4:	2e00      	cmp	r6, #0
    11d6:	d109      	bne.n	11ec <system_gclk_gen_set_config+0x48>
    11d8:	429a      	cmp	r2, r3
    11da:	d202      	bcs.n	11e2 <system_gclk_gen_set_config+0x3e>
    11dc:	3601      	adds	r6, #1
    11de:	0052      	lsls	r2, r2, #1
    11e0:	e7fa      	b.n	11d8 <system_gclk_gen_set_config+0x34>
    11e2:	0236      	lsls	r6, r6, #8
    11e4:	2380      	movs	r3, #128	; 0x80
    11e6:	432e      	orrs	r6, r5
    11e8:	035b      	lsls	r3, r3, #13
    11ea:	e003      	b.n	11f4 <system_gclk_gen_set_config+0x50>
    11ec:	021e      	lsls	r6, r3, #8
    11ee:	2380      	movs	r3, #128	; 0x80
    11f0:	432e      	orrs	r6, r5
    11f2:	029b      	lsls	r3, r3, #10
    11f4:	431c      	orrs	r4, r3
    11f6:	7a0b      	ldrb	r3, [r1, #8]
    11f8:	2b00      	cmp	r3, #0
    11fa:	d002      	beq.n	1202 <system_gclk_gen_set_config+0x5e>
    11fc:	2380      	movs	r3, #128	; 0x80
    11fe:	039b      	lsls	r3, r3, #14
    1200:	431c      	orrs	r4, r3
    1202:	4f0c      	ldr	r7, [pc, #48]	; (1234 <system_gclk_gen_set_config+0x90>)
    1204:	47b8      	blx	r7
    1206:	2800      	cmp	r0, #0
    1208:	d1fb      	bne.n	1202 <system_gclk_gen_set_config+0x5e>
    120a:	4b0b      	ldr	r3, [pc, #44]	; (1238 <system_gclk_gen_set_config+0x94>)
    120c:	4798      	blx	r3
    120e:	4b0b      	ldr	r3, [pc, #44]	; (123c <system_gclk_gen_set_config+0x98>)
    1210:	701d      	strb	r5, [r3, #0]
    1212:	47b8      	blx	r7
    1214:	2800      	cmp	r0, #0
    1216:	d1fc      	bne.n	1212 <system_gclk_gen_set_config+0x6e>
    1218:	4d09      	ldr	r5, [pc, #36]	; (1240 <system_gclk_gen_set_config+0x9c>)
    121a:	60ae      	str	r6, [r5, #8]
    121c:	47b8      	blx	r7
    121e:	2800      	cmp	r0, #0
    1220:	d1fc      	bne.n	121c <system_gclk_gen_set_config+0x78>
    1222:	686a      	ldr	r2, [r5, #4]
    1224:	2380      	movs	r3, #128	; 0x80
    1226:	025b      	lsls	r3, r3, #9
    1228:	4013      	ands	r3, r2
    122a:	431c      	orrs	r4, r3
    122c:	606c      	str	r4, [r5, #4]
    122e:	4b05      	ldr	r3, [pc, #20]	; (1244 <system_gclk_gen_set_config+0xa0>)
    1230:	4798      	blx	r3
    1232:	bdf8      	pop	{r3, r4, r5, r6, r7, pc}
    1234:	00001179 	.word	0x00001179
    1238:	00000d59 	.word	0x00000d59
    123c:	40000c08 	.word	0x40000c08
    1240:	40000c00 	.word	0x40000c00
    1244:	00000d8d 	.word	0x00000d8d

00001248 <system_gclk_gen_enable>:
    1248:	b538      	push	{r3, r4, r5, lr}
    124a:	1c05      	adds	r5, r0, #0
    124c:	4c09      	ldr	r4, [pc, #36]	; (1274 <system_gclk_gen_enable+0x2c>)
    124e:	47a0      	blx	r4
    1250:	2800      	cmp	r0, #0
    1252:	d1fb      	bne.n	124c <system_gclk_gen_enable+0x4>
    1254:	4b08      	ldr	r3, [pc, #32]	; (1278 <system_gclk_gen_enable+0x30>)
    1256:	4798      	blx	r3
    1258:	4b08      	ldr	r3, [pc, #32]	; (127c <system_gclk_gen_enable+0x34>)
    125a:	701d      	strb	r5, [r3, #0]
    125c:	47a0      	blx	r4
    125e:	2800      	cmp	r0, #0
    1260:	d1fc      	bne.n	125c <system_gclk_gen_enable+0x14>
    1262:	4b07      	ldr	r3, [pc, #28]	; (1280 <system_gclk_gen_enable+0x38>)
    1264:	2280      	movs	r2, #128	; 0x80
    1266:	6859      	ldr	r1, [r3, #4]
    1268:	0252      	lsls	r2, r2, #9
    126a:	430a      	orrs	r2, r1
    126c:	605a      	str	r2, [r3, #4]
    126e:	4b05      	ldr	r3, [pc, #20]	; (1284 <system_gclk_gen_enable+0x3c>)
    1270:	4798      	blx	r3
    1272:	bd38      	pop	{r3, r4, r5, pc}
    1274:	00001179 	.word	0x00001179
    1278:	00000d59 	.word	0x00000d59
    127c:	40000c04 	.word	0x40000c04
    1280:	40000c00 	.word	0x40000c00
    1284:	00000d8d 	.word	0x00000d8d

00001288 <system_gclk_gen_get_hz>:
    1288:	b5f7      	push	{r0, r1, r2, r4, r5, r6, r7, lr}
    128a:	1c06      	adds	r6, r0, #0
    128c:	4f18      	ldr	r7, [pc, #96]	; (12f0 <system_gclk_gen_get_hz+0x68>)
    128e:	47b8      	blx	r7
    1290:	2800      	cmp	r0, #0
    1292:	d1fb      	bne.n	128c <system_gclk_gen_get_hz+0x4>
    1294:	4b17      	ldr	r3, [pc, #92]	; (12f4 <system_gclk_gen_get_hz+0x6c>)
    1296:	4798      	blx	r3
    1298:	4b17      	ldr	r3, [pc, #92]	; (12f8 <system_gclk_gen_get_hz+0x70>)
    129a:	701e      	strb	r6, [r3, #0]
    129c:	47b8      	blx	r7
    129e:	2800      	cmp	r0, #0
    12a0:	d1fc      	bne.n	129c <system_gclk_gen_get_hz+0x14>
    12a2:	4d16      	ldr	r5, [pc, #88]	; (12fc <system_gclk_gen_get_hz+0x74>)
    12a4:	4b16      	ldr	r3, [pc, #88]	; (1300 <system_gclk_gen_get_hz+0x78>)
    12a6:	6868      	ldr	r0, [r5, #4]
    12a8:	04c0      	lsls	r0, r0, #19
    12aa:	0ec0      	lsrs	r0, r0, #27
    12ac:	4798      	blx	r3
    12ae:	4b12      	ldr	r3, [pc, #72]	; (12f8 <system_gclk_gen_get_hz+0x70>)
    12b0:	1c04      	adds	r4, r0, #0
    12b2:	701e      	strb	r6, [r3, #0]
    12b4:	686b      	ldr	r3, [r5, #4]
    12b6:	02db      	lsls	r3, r3, #11
    12b8:	0fdb      	lsrs	r3, r3, #31
    12ba:	9301      	str	r3, [sp, #4]
    12bc:	4b11      	ldr	r3, [pc, #68]	; (1304 <system_gclk_gen_get_hz+0x7c>)
    12be:	701e      	strb	r6, [r3, #0]
    12c0:	47b8      	blx	r7
    12c2:	2800      	cmp	r0, #0
    12c4:	d1fc      	bne.n	12c0 <system_gclk_gen_get_hz+0x38>
    12c6:	68ad      	ldr	r5, [r5, #8]
    12c8:	4b0f      	ldr	r3, [pc, #60]	; (1308 <system_gclk_gen_get_hz+0x80>)
    12ca:	4798      	blx	r3
    12cc:	9b01      	ldr	r3, [sp, #4]
    12ce:	0a2d      	lsrs	r5, r5, #8
    12d0:	b2ad      	uxth	r5, r5
    12d2:	2b00      	cmp	r3, #0
    12d4:	d107      	bne.n	12e6 <system_gclk_gen_get_hz+0x5e>
    12d6:	2d01      	cmp	r5, #1
    12d8:	d907      	bls.n	12ea <system_gclk_gen_get_hz+0x62>
    12da:	1c20      	adds	r0, r4, #0
    12dc:	1c29      	adds	r1, r5, #0
    12de:	4b0b      	ldr	r3, [pc, #44]	; (130c <system_gclk_gen_get_hz+0x84>)
    12e0:	4798      	blx	r3
    12e2:	1c04      	adds	r4, r0, #0
    12e4:	e001      	b.n	12ea <system_gclk_gen_get_hz+0x62>
    12e6:	3501      	adds	r5, #1
    12e8:	40ec      	lsrs	r4, r5
    12ea:	1c20      	adds	r0, r4, #0
    12ec:	bdfe      	pop	{r1, r2, r3, r4, r5, r6, r7, pc}
    12ee:	46c0      	nop			; (mov r8, r8)
    12f0:	00001179 	.word	0x00001179
    12f4:	00000d59 	.word	0x00000d59
    12f8:	40000c04 	.word	0x40000c04
    12fc:	40000c00 	.word	0x40000c00
    1300:	00000df9 	.word	0x00000df9
    1304:	40000c08 	.word	0x40000c08
    1308:	00000d8d 	.word	0x00000d8d
    130c:	00003595 	.word	0x00003595

00001310 <system_gclk_chan_enable>:
    1310:	b510      	push	{r4, lr}
    1312:	4b07      	ldr	r3, [pc, #28]	; (1330 <system_gclk_chan_enable+0x20>)
    1314:	1c04      	adds	r4, r0, #0
    1316:	4798      	blx	r3
    1318:	4b06      	ldr	r3, [pc, #24]	; (1334 <system_gclk_chan_enable+0x24>)
    131a:	2280      	movs	r2, #128	; 0x80
    131c:	701c      	strb	r4, [r3, #0]
    131e:	4b06      	ldr	r3, [pc, #24]	; (1338 <system_gclk_chan_enable+0x28>)
    1320:	01d2      	lsls	r2, r2, #7
    1322:	8859      	ldrh	r1, [r3, #2]
    1324:	430a      	orrs	r2, r1
    1326:	805a      	strh	r2, [r3, #2]
    1328:	4b04      	ldr	r3, [pc, #16]	; (133c <system_gclk_chan_enable+0x2c>)
    132a:	4798      	blx	r3
    132c:	bd10      	pop	{r4, pc}
    132e:	46c0      	nop			; (mov r8, r8)
    1330:	00000d59 	.word	0x00000d59
    1334:	40000c02 	.word	0x40000c02
    1338:	40000c00 	.word	0x40000c00
    133c:	00000d8d 	.word	0x00000d8d

00001340 <system_gclk_chan_disable>:
    1340:	b538      	push	{r3, r4, r5, lr}
    1342:	4b0f      	ldr	r3, [pc, #60]	; (1380 <system_gclk_chan_disable+0x40>)
    1344:	1c04      	adds	r4, r0, #0
    1346:	4798      	blx	r3
    1348:	4b0e      	ldr	r3, [pc, #56]	; (1384 <system_gclk_chan_disable+0x44>)
    134a:	4a0f      	ldr	r2, [pc, #60]	; (1388 <system_gclk_chan_disable+0x48>)
    134c:	701c      	strb	r4, [r3, #0]
    134e:	4b0f      	ldr	r3, [pc, #60]	; (138c <system_gclk_chan_disable+0x4c>)
    1350:	8859      	ldrh	r1, [r3, #2]
    1352:	8858      	ldrh	r0, [r3, #2]
    1354:	0509      	lsls	r1, r1, #20
    1356:	4010      	ands	r0, r2
    1358:	8058      	strh	r0, [r3, #2]
    135a:	885c      	ldrh	r4, [r3, #2]
    135c:	480c      	ldr	r0, [pc, #48]	; (1390 <system_gclk_chan_disable+0x50>)
    135e:	0f09      	lsrs	r1, r1, #28
    1360:	4020      	ands	r0, r4
    1362:	8058      	strh	r0, [r3, #2]
    1364:	1c10      	adds	r0, r2, #0
    1366:	885c      	ldrh	r4, [r3, #2]
    1368:	4a08      	ldr	r2, [pc, #32]	; (138c <system_gclk_chan_disable+0x4c>)
    136a:	0465      	lsls	r5, r4, #17
    136c:	d4fb      	bmi.n	1366 <system_gclk_chan_disable+0x26>
    136e:	8853      	ldrh	r3, [r2, #2]
    1370:	0209      	lsls	r1, r1, #8
    1372:	4003      	ands	r3, r0
    1374:	430b      	orrs	r3, r1
    1376:	8053      	strh	r3, [r2, #2]
    1378:	4b06      	ldr	r3, [pc, #24]	; (1394 <system_gclk_chan_disable+0x54>)
    137a:	4798      	blx	r3
    137c:	bd38      	pop	{r3, r4, r5, pc}
    137e:	46c0      	nop			; (mov r8, r8)
    1380:	00000d59 	.word	0x00000d59
    1384:	40000c02 	.word	0x40000c02
    1388:	fffff0ff 	.word	0xfffff0ff
    138c:	40000c00 	.word	0x40000c00
    1390:	ffffbfff 	.word	0xffffbfff
    1394:	00000d8d 	.word	0x00000d8d

00001398 <system_gclk_chan_set_config>:
    1398:	b510      	push	{r4, lr}
    139a:	780c      	ldrb	r4, [r1, #0]
    139c:	4b03      	ldr	r3, [pc, #12]	; (13ac <system_gclk_chan_set_config+0x14>)
    139e:	0224      	lsls	r4, r4, #8
    13a0:	4304      	orrs	r4, r0
    13a2:	4798      	blx	r3
    13a4:	4b02      	ldr	r3, [pc, #8]	; (13b0 <system_gclk_chan_set_config+0x18>)
    13a6:	b2a4      	uxth	r4, r4
    13a8:	805c      	strh	r4, [r3, #2]
    13aa:	bd10      	pop	{r4, pc}
    13ac:	00001341 	.word	0x00001341
    13b0:	40000c00 	.word	0x40000c00

000013b4 <system_gclk_chan_get_hz>:
    13b4:	b510      	push	{r4, lr}
    13b6:	4b07      	ldr	r3, [pc, #28]	; (13d4 <system_gclk_chan_get_hz+0x20>)
    13b8:	1c04      	adds	r4, r0, #0
    13ba:	4798      	blx	r3
    13bc:	4b06      	ldr	r3, [pc, #24]	; (13d8 <system_gclk_chan_get_hz+0x24>)
    13be:	701c      	strb	r4, [r3, #0]
    13c0:	4b06      	ldr	r3, [pc, #24]	; (13dc <system_gclk_chan_get_hz+0x28>)
    13c2:	885c      	ldrh	r4, [r3, #2]
    13c4:	4b06      	ldr	r3, [pc, #24]	; (13e0 <system_gclk_chan_get_hz+0x2c>)
    13c6:	0524      	lsls	r4, r4, #20
    13c8:	0f24      	lsrs	r4, r4, #28
    13ca:	4798      	blx	r3
    13cc:	1c20      	adds	r0, r4, #0
    13ce:	4b05      	ldr	r3, [pc, #20]	; (13e4 <system_gclk_chan_get_hz+0x30>)
    13d0:	4798      	blx	r3
    13d2:	bd10      	pop	{r4, pc}
    13d4:	00000d59 	.word	0x00000d59
    13d8:	40000c02 	.word	0x40000c02
    13dc:	40000c00 	.word	0x40000c00
    13e0:	00000d8d 	.word	0x00000d8d
    13e4:	00001289 	.word	0x00001289

000013e8 <_system_pinmux_config>:
    13e8:	78d3      	ldrb	r3, [r2, #3]
    13ea:	b530      	push	{r4, r5, lr}
    13ec:	2b00      	cmp	r3, #0
    13ee:	d11b      	bne.n	1428 <_system_pinmux_config+0x40>
    13f0:	7814      	ldrb	r4, [r2, #0]
    13f2:	2c80      	cmp	r4, #128	; 0x80
    13f4:	d003      	beq.n	13fe <_system_pinmux_config+0x16>
    13f6:	2380      	movs	r3, #128	; 0x80
    13f8:	0624      	lsls	r4, r4, #24
    13fa:	025b      	lsls	r3, r3, #9
    13fc:	4323      	orrs	r3, r4
    13fe:	7854      	ldrb	r4, [r2, #1]
    1400:	2502      	movs	r5, #2
    1402:	43ac      	bics	r4, r5
    1404:	d109      	bne.n	141a <_system_pinmux_config+0x32>
    1406:	7894      	ldrb	r4, [r2, #2]
    1408:	2c00      	cmp	r4, #0
    140a:	d102      	bne.n	1412 <_system_pinmux_config+0x2a>
    140c:	2480      	movs	r4, #128	; 0x80
    140e:	02a4      	lsls	r4, r4, #10
    1410:	e001      	b.n	1416 <_system_pinmux_config+0x2e>
    1412:	24c0      	movs	r4, #192	; 0xc0
    1414:	02e4      	lsls	r4, r4, #11
    1416:	4323      	orrs	r3, r4
    1418:	6041      	str	r1, [r0, #4]
    141a:	7854      	ldrb	r4, [r2, #1]
    141c:	3c01      	subs	r4, #1
    141e:	2c01      	cmp	r4, #1
    1420:	d804      	bhi.n	142c <_system_pinmux_config+0x44>
    1422:	4c11      	ldr	r4, [pc, #68]	; (1468 <_system_pinmux_config+0x80>)
    1424:	4023      	ands	r3, r4
    1426:	e001      	b.n	142c <_system_pinmux_config+0x44>
    1428:	6041      	str	r1, [r0, #4]
    142a:	2300      	movs	r3, #0
    142c:	24a0      	movs	r4, #160	; 0xa0
    142e:	b28d      	uxth	r5, r1
    1430:	05e4      	lsls	r4, r4, #23
    1432:	432c      	orrs	r4, r5
    1434:	431c      	orrs	r4, r3
    1436:	6284      	str	r4, [r0, #40]	; 0x28
    1438:	24d0      	movs	r4, #208	; 0xd0
    143a:	0c0d      	lsrs	r5, r1, #16
    143c:	0624      	lsls	r4, r4, #24
    143e:	432c      	orrs	r4, r5
    1440:	431c      	orrs	r4, r3
    1442:	6284      	str	r4, [r0, #40]	; 0x28
    1444:	78d4      	ldrb	r4, [r2, #3]
    1446:	2c00      	cmp	r4, #0
    1448:	d10c      	bne.n	1464 <_system_pinmux_config+0x7c>
    144a:	035c      	lsls	r4, r3, #13
    144c:	d505      	bpl.n	145a <_system_pinmux_config+0x72>
    144e:	7893      	ldrb	r3, [r2, #2]
    1450:	2b01      	cmp	r3, #1
    1452:	d101      	bne.n	1458 <_system_pinmux_config+0x70>
    1454:	6181      	str	r1, [r0, #24]
    1456:	e000      	b.n	145a <_system_pinmux_config+0x72>
    1458:	6141      	str	r1, [r0, #20]
    145a:	7853      	ldrb	r3, [r2, #1]
    145c:	3b01      	subs	r3, #1
    145e:	2b01      	cmp	r3, #1
    1460:	d800      	bhi.n	1464 <_system_pinmux_config+0x7c>
    1462:	6081      	str	r1, [r0, #8]
    1464:	bd30      	pop	{r4, r5, pc}
    1466:	46c0      	nop			; (mov r8, r8)
    1468:	fffbffff 	.word	0xfffbffff

0000146c <system_pinmux_pin_set_config>:
    146c:	b508      	push	{r3, lr}
    146e:	1c03      	adds	r3, r0, #0
    1470:	1c0a      	adds	r2, r1, #0
    1472:	0940      	lsrs	r0, r0, #5
    1474:	09d9      	lsrs	r1, r3, #7
    1476:	d103      	bne.n	1480 <system_pinmux_pin_set_config+0x14>
    1478:	4905      	ldr	r1, [pc, #20]	; (1490 <system_pinmux_pin_set_config+0x24>)
    147a:	01c0      	lsls	r0, r0, #7
    147c:	1840      	adds	r0, r0, r1
    147e:	e000      	b.n	1482 <system_pinmux_pin_set_config+0x16>
    1480:	2000      	movs	r0, #0
    1482:	211f      	movs	r1, #31
    1484:	400b      	ands	r3, r1
    1486:	2101      	movs	r1, #1
    1488:	4099      	lsls	r1, r3
    148a:	4b02      	ldr	r3, [pc, #8]	; (1494 <system_pinmux_pin_set_config+0x28>)
    148c:	4798      	blx	r3
    148e:	bd08      	pop	{r3, pc}
    1490:	41004400 	.word	0x41004400
    1494:	000013e9 	.word	0x000013e9

00001498 <_system_dummy_init>:
    1498:	4770      	bx	lr
	...

0000149c <system_init>:
    149c:	b508      	push	{r3, lr}
    149e:	4b04      	ldr	r3, [pc, #16]	; (14b0 <system_init+0x14>)
    14a0:	4798      	blx	r3
    14a2:	4b04      	ldr	r3, [pc, #16]	; (14b4 <system_init+0x18>)
    14a4:	4798      	blx	r3
    14a6:	4b04      	ldr	r3, [pc, #16]	; (14b8 <system_init+0x1c>)
    14a8:	4798      	blx	r3
    14aa:	4b04      	ldr	r3, [pc, #16]	; (14bc <system_init+0x20>)
    14ac:	4798      	blx	r3
    14ae:	bd08      	pop	{r3, pc}
    14b0:	00001039 	.word	0x00001039
    14b4:	00000d55 	.word	0x00000d55
    14b8:	00001499 	.word	0x00001499
    14bc:	00001499 	.word	0x00001499

000014c0 <Dummy_Handler>:
    14c0:	e7fe      	b.n	14c0 <Dummy_Handler>
	...

000014c4 <Reset_Handler>:
    14c4:	4811      	ldr	r0, [pc, #68]	; (150c <Reset_Handler+0x48>)
    14c6:	4912      	ldr	r1, [pc, #72]	; (1510 <Reset_Handler+0x4c>)
    14c8:	b510      	push	{r4, lr}
    14ca:	4288      	cmp	r0, r1
    14cc:	d001      	beq.n	14d2 <Reset_Handler+0xe>
    14ce:	2300      	movs	r3, #0
    14d0:	e001      	b.n	14d6 <Reset_Handler+0x12>
    14d2:	4b10      	ldr	r3, [pc, #64]	; (1514 <Reset_Handler+0x50>)
    14d4:	e007      	b.n	14e6 <Reset_Handler+0x22>
    14d6:	4c10      	ldr	r4, [pc, #64]	; (1518 <Reset_Handler+0x54>)
    14d8:	18ca      	adds	r2, r1, r3
    14da:	42a2      	cmp	r2, r4
    14dc:	d2f9      	bcs.n	14d2 <Reset_Handler+0xe>
    14de:	58c4      	ldr	r4, [r0, r3]
    14e0:	3304      	adds	r3, #4
    14e2:	6014      	str	r4, [r2, #0]
    14e4:	e7f7      	b.n	14d6 <Reset_Handler+0x12>
    14e6:	4a0d      	ldr	r2, [pc, #52]	; (151c <Reset_Handler+0x58>)
    14e8:	1d19      	adds	r1, r3, #4
    14ea:	3b04      	subs	r3, #4
    14ec:	4293      	cmp	r3, r2
    14ee:	d203      	bcs.n	14f8 <Reset_Handler+0x34>
    14f0:	2200      	movs	r2, #0
    14f2:	601a      	str	r2, [r3, #0]
    14f4:	1c0b      	adds	r3, r1, #0
    14f6:	e7f6      	b.n	14e6 <Reset_Handler+0x22>
    14f8:	4a09      	ldr	r2, [pc, #36]	; (1520 <Reset_Handler+0x5c>)
    14fa:	4b0a      	ldr	r3, [pc, #40]	; (1524 <Reset_Handler+0x60>)
    14fc:	217f      	movs	r1, #127	; 0x7f
    14fe:	438a      	bics	r2, r1
    1500:	609a      	str	r2, [r3, #8]
    1502:	4b09      	ldr	r3, [pc, #36]	; (1528 <Reset_Handler+0x64>)
    1504:	4798      	blx	r3
    1506:	4b09      	ldr	r3, [pc, #36]	; (152c <Reset_Handler+0x68>)
    1508:	4798      	blx	r3
    150a:	e7fe      	b.n	150a <Reset_Handler+0x46>
    150c:	0000692c 	.word	0x0000692c
    1510:	20000000 	.word	0x20000000
    1514:	20000084 	.word	0x20000084
    1518:	20000080 	.word	0x20000080
    151c:	200001a8 	.word	0x200001a8
    1520:	00000000 	.word	0x00000000
    1524:	e000ed00 	.word	0xe000ed00
    1528:	00006171 	.word	0x00006171
    152c:	0000321d 	.word	0x0000321d

00001530 <Cal_Disp2Point>:
    1530:	b5f7      	push	{r0, r1, r2, r4, r5, r6, r7, lr}
    1532:	2707      	movs	r7, #7
    1534:	1c05      	adds	r5, r0, #0
    1536:	4c0f      	ldr	r4, [pc, #60]	; (1574 <Cal_Disp2Point+0x44>)
    1538:	6840      	ldr	r0, [r0, #4]
    153a:	2100      	movs	r1, #0
    153c:	9700      	str	r7, [sp, #0]
    153e:	2205      	movs	r2, #5
    1540:	2303      	movs	r3, #3
    1542:	47a0      	blx	r4
    1544:	8928      	ldrh	r0, [r5, #8]
    1546:	2612      	movs	r6, #18
    1548:	2203      	movs	r2, #3
    154a:	9600      	str	r6, [sp, #0]
    154c:	1c13      	adds	r3, r2, #0
    154e:	b280      	uxth	r0, r0
    1550:	2100      	movs	r1, #0
    1552:	47a0      	blx	r4
    1554:	8968      	ldrh	r0, [r5, #10]
    1556:	9700      	str	r7, [sp, #0]
    1558:	b280      	uxth	r0, r0
    155a:	2100      	movs	r1, #0
    155c:	2205      	movs	r2, #5
    155e:	2304      	movs	r3, #4
    1560:	47a0      	blx	r4
    1562:	89a8      	ldrh	r0, [r5, #12]
    1564:	9600      	str	r6, [sp, #0]
    1566:	b280      	uxth	r0, r0
    1568:	2100      	movs	r1, #0
    156a:	2203      	movs	r2, #3
    156c:	2304      	movs	r3, #4
    156e:	47a0      	blx	r4
    1570:	bdf7      	pop	{r0, r1, r2, r4, r5, r6, r7, pc}
    1572:	46c0      	nop			; (mov r8, r8)
    1574:	00000aa9 	.word	0x00000aa9

00001578 <CalEdit_AbsPres>:
    1578:	b5f7      	push	{r0, r1, r2, r4, r5, r6, r7, lr}
    157a:	4c19      	ldr	r4, [pc, #100]	; (15e0 <CalEdit_AbsPres+0x68>)
    157c:	4b19      	ldr	r3, [pc, #100]	; (15e4 <CalEdit_AbsPres+0x6c>)
    157e:	1c20      	adds	r0, r4, #0
    1580:	2707      	movs	r7, #7
    1582:	4798      	blx	r3
    1584:	6860      	ldr	r0, [r4, #4]
    1586:	2303      	movs	r3, #3
    1588:	9700      	str	r7, [sp, #0]
    158a:	2100      	movs	r1, #0
    158c:	2205      	movs	r2, #5
    158e:	4d16      	ldr	r5, [pc, #88]	; (15e8 <CalEdit_AbsPres+0x70>)
    1590:	47a8      	blx	r5
    1592:	1c43      	adds	r3, r0, #1
    1594:	d022      	beq.n	15dc <CalEdit_AbsPres+0x64>
    1596:	6060      	str	r0, [r4, #4]
    1598:	8920      	ldrh	r0, [r4, #8]
    159a:	2612      	movs	r6, #18
    159c:	2203      	movs	r2, #3
    159e:	1c13      	adds	r3, r2, #0
    15a0:	b280      	uxth	r0, r0
    15a2:	9600      	str	r6, [sp, #0]
    15a4:	2100      	movs	r1, #0
    15a6:	47a8      	blx	r5
    15a8:	1c43      	adds	r3, r0, #1
    15aa:	d017      	beq.n	15dc <CalEdit_AbsPres+0x64>
    15ac:	b280      	uxth	r0, r0
    15ae:	8120      	strh	r0, [r4, #8]
    15b0:	8960      	ldrh	r0, [r4, #10]
    15b2:	2304      	movs	r3, #4
    15b4:	b280      	uxth	r0, r0
    15b6:	9700      	str	r7, [sp, #0]
    15b8:	2100      	movs	r1, #0
    15ba:	2205      	movs	r2, #5
    15bc:	47a8      	blx	r5
    15be:	1c43      	adds	r3, r0, #1
    15c0:	d00c      	beq.n	15dc <CalEdit_AbsPres+0x64>
    15c2:	b280      	uxth	r0, r0
    15c4:	8160      	strh	r0, [r4, #10]
    15c6:	89a0      	ldrh	r0, [r4, #12]
    15c8:	2304      	movs	r3, #4
    15ca:	b280      	uxth	r0, r0
    15cc:	9600      	str	r6, [sp, #0]
    15ce:	2100      	movs	r1, #0
    15d0:	2203      	movs	r2, #3
    15d2:	47a8      	blx	r5
    15d4:	1c43      	adds	r3, r0, #1
    15d6:	d001      	beq.n	15dc <CalEdit_AbsPres+0x64>
    15d8:	b280      	uxth	r0, r0
    15da:	81a0      	strh	r0, [r4, #12]
    15dc:	bdf7      	pop	{r0, r1, r2, r4, r5, r6, r7, pc}
    15de:	46c0      	nop			; (mov r8, r8)
    15e0:	20000150 	.word	0x20000150
    15e4:	00001531 	.word	0x00001531
    15e8:	00000bf1 	.word	0x00000bf1

000015ec <Calibrate_AbsPres>:
    15ec:	b530      	push	{r4, r5, lr}
    15ee:	b085      	sub	sp, #20
    15f0:	481b      	ldr	r0, [pc, #108]	; (1660 <Calibrate_AbsPres+0x74>)
    15f2:	491c      	ldr	r1, [pc, #112]	; (1664 <Calibrate_AbsPres+0x78>)
    15f4:	4a1c      	ldr	r2, [pc, #112]	; (1668 <Calibrate_AbsPres+0x7c>)
    15f6:	4b1d      	ldr	r3, [pc, #116]	; (166c <Calibrate_AbsPres+0x80>)
    15f8:	4c1d      	ldr	r4, [pc, #116]	; (1670 <Calibrate_AbsPres+0x84>)
    15fa:	47a0      	blx	r4
    15fc:	2308      	movs	r3, #8
    15fe:	9300      	str	r3, [sp, #0]
    1600:	220e      	movs	r2, #14
    1602:	2303      	movs	r3, #3
    1604:	2001      	movs	r0, #1
    1606:	1c19      	adds	r1, r3, #0
    1608:	9301      	str	r3, [sp, #4]
    160a:	9202      	str	r2, [sp, #8]
    160c:	4d19      	ldr	r5, [pc, #100]	; (1674 <Calibrate_AbsPres+0x88>)
    160e:	1c02      	adds	r2, r0, #0
    1610:	47a8      	blx	r5
    1612:	4b19      	ldr	r3, [pc, #100]	; (1678 <Calibrate_AbsPres+0x8c>)
    1614:	b2c5      	uxtb	r5, r0
    1616:	4798      	blx	r3
    1618:	b26b      	sxtb	r3, r5
    161a:	2b01      	cmp	r3, #1
    161c:	d108      	bne.n	1630 <Calibrate_AbsPres+0x44>
    161e:	4817      	ldr	r0, [pc, #92]	; (167c <Calibrate_AbsPres+0x90>)
    1620:	4917      	ldr	r1, [pc, #92]	; (1680 <Calibrate_AbsPres+0x94>)
    1622:	4a18      	ldr	r2, [pc, #96]	; (1684 <Calibrate_AbsPres+0x98>)
    1624:	4b18      	ldr	r3, [pc, #96]	; (1688 <Calibrate_AbsPres+0x9c>)
    1626:	47a0      	blx	r4
    1628:	4818      	ldr	r0, [pc, #96]	; (168c <Calibrate_AbsPres+0xa0>)
    162a:	4b19      	ldr	r3, [pc, #100]	; (1690 <Calibrate_AbsPres+0xa4>)
    162c:	4798      	blx	r3
    162e:	e00f      	b.n	1650 <Calibrate_AbsPres+0x64>
    1630:	2b02      	cmp	r3, #2
    1632:	d107      	bne.n	1644 <Calibrate_AbsPres+0x58>
    1634:	4817      	ldr	r0, [pc, #92]	; (1694 <Calibrate_AbsPres+0xa8>)
    1636:	4912      	ldr	r1, [pc, #72]	; (1680 <Calibrate_AbsPres+0x94>)
    1638:	4a12      	ldr	r2, [pc, #72]	; (1684 <Calibrate_AbsPres+0x98>)
    163a:	4b13      	ldr	r3, [pc, #76]	; (1688 <Calibrate_AbsPres+0x9c>)
    163c:	47a0      	blx	r4
    163e:	4b16      	ldr	r3, [pc, #88]	; (1698 <Calibrate_AbsPres+0xac>)
    1640:	4798      	blx	r3
    1642:	e7d5      	b.n	15f0 <Calibrate_AbsPres+0x4>
    1644:	2b03      	cmp	r3, #3
    1646:	d106      	bne.n	1656 <Calibrate_AbsPres+0x6a>
    1648:	2002      	movs	r0, #2
    164a:	4914      	ldr	r1, [pc, #80]	; (169c <Calibrate_AbsPres+0xb0>)
    164c:	4b14      	ldr	r3, [pc, #80]	; (16a0 <Calibrate_AbsPres+0xb4>)
    164e:	4798      	blx	r3
    1650:	4b14      	ldr	r3, [pc, #80]	; (16a4 <Calibrate_AbsPres+0xb8>)
    1652:	4798      	blx	r3
    1654:	e7cc      	b.n	15f0 <Calibrate_AbsPres+0x4>
    1656:	2d00      	cmp	r5, #0
    1658:	d1ca      	bne.n	15f0 <Calibrate_AbsPres+0x4>
    165a:	b005      	add	sp, #20
    165c:	bd30      	pop	{r4, r5, pc}
    165e:	46c0      	nop			; (mov r8, r8)
    1660:	0000629c 	.word	0x0000629c
    1664:	000062b1 	.word	0x000062b1
    1668:	000062c6 	.word	0x000062c6
    166c:	000062db 	.word	0x000062db
    1670:	00002659 	.word	0x00002659
    1674:	00002e35 	.word	0x00002e35
    1678:	0000067d 	.word	0x0000067d
    167c:	000062f0 	.word	0x000062f0
    1680:	00006305 	.word	0x00006305
    1684:	0000631a 	.word	0x0000631a
    1688:	0000632f 	.word	0x0000632f
    168c:	20000150 	.word	0x20000150
    1690:	00001531 	.word	0x00001531
    1694:	00006344 	.word	0x00006344
    1698:	00001579 	.word	0x00001579
    169c:	00006359 	.word	0x00006359
    16a0:	00002635 	.word	0x00002635
    16a4:	000006bd 	.word	0x000006bd

000016a8 <Cal_Disp1Point>:
    16a8:	b5f7      	push	{r0, r1, r2, r4, r5, r6, r7, lr}
    16aa:	1c05      	adds	r5, r0, #0
    16ac:	88c0      	ldrh	r0, [r0, #6]
    16ae:	230e      	movs	r3, #14
    16b0:	1c0f      	adds	r7, r1, #0
    16b2:	1c16      	adds	r6, r2, #0
    16b4:	9300      	str	r3, [sp, #0]
    16b6:	4c07      	ldr	r4, [pc, #28]	; (16d4 <Cal_Disp1Point+0x2c>)
    16b8:	b280      	uxth	r0, r0
    16ba:	2100      	movs	r1, #0
    16bc:	2205      	movs	r2, #5
    16be:	2303      	movs	r3, #3
    16c0:	47a0      	blx	r4
    16c2:	8928      	ldrh	r0, [r5, #8]
    16c4:	2306      	movs	r3, #6
    16c6:	b2fa      	uxtb	r2, r7
    16c8:	9300      	str	r3, [sp, #0]
    16ca:	1c31      	adds	r1, r6, #0
    16cc:	b280      	uxth	r0, r0
    16ce:	2304      	movs	r3, #4
    16d0:	47a0      	blx	r4
    16d2:	bdf7      	pop	{r0, r1, r2, r4, r5, r6, r7, pc}
    16d4:	00000aa9 	.word	0x00000aa9

000016d8 <CalEdit_OrifPartDP>:
    16d8:	b537      	push	{r0, r1, r2, r4, r5, lr}
    16da:	4c10      	ldr	r4, [pc, #64]	; (171c <CalEdit_OrifPartDP+0x44>)
    16dc:	2104      	movs	r1, #4
    16de:	1c20      	adds	r0, r4, #0
    16e0:	2201      	movs	r2, #1
    16e2:	4b0f      	ldr	r3, [pc, #60]	; (1720 <CalEdit_OrifPartDP+0x48>)
    16e4:	4798      	blx	r3
    16e6:	88e0      	ldrh	r0, [r4, #6]
    16e8:	230e      	movs	r3, #14
    16ea:	9300      	str	r3, [sp, #0]
    16ec:	b280      	uxth	r0, r0
    16ee:	2303      	movs	r3, #3
    16f0:	2100      	movs	r1, #0
    16f2:	2205      	movs	r2, #5
    16f4:	4d0b      	ldr	r5, [pc, #44]	; (1724 <CalEdit_OrifPartDP+0x4c>)
    16f6:	47a8      	blx	r5
    16f8:	1c43      	adds	r3, r0, #1
    16fa:	d00d      	beq.n	1718 <CalEdit_OrifPartDP+0x40>
    16fc:	b280      	uxth	r0, r0
    16fe:	80e0      	strh	r0, [r4, #6]
    1700:	8920      	ldrh	r0, [r4, #8]
    1702:	2306      	movs	r3, #6
    1704:	2204      	movs	r2, #4
    1706:	9300      	str	r3, [sp, #0]
    1708:	b280      	uxth	r0, r0
    170a:	1c13      	adds	r3, r2, #0
    170c:	2101      	movs	r1, #1
    170e:	47a8      	blx	r5
    1710:	1c43      	adds	r3, r0, #1
    1712:	d001      	beq.n	1718 <CalEdit_OrifPartDP+0x40>
    1714:	b280      	uxth	r0, r0
    1716:	8120      	strh	r0, [r4, #8]
    1718:	bd37      	pop	{r0, r1, r2, r4, r5, pc}
    171a:	46c0      	nop			; (mov r8, r8)
    171c:	20000138 	.word	0x20000138
    1720:	000016a9 	.word	0x000016a9
    1724:	00000bf1 	.word	0x00000bf1

00001728 <Calibrate_OrifPartDP>:
    1728:	b57f      	push	{r0, r1, r2, r3, r4, r5, r6, lr}
    172a:	481c      	ldr	r0, [pc, #112]	; (179c <Calibrate_OrifPartDP+0x74>)
    172c:	491c      	ldr	r1, [pc, #112]	; (17a0 <Calibrate_OrifPartDP+0x78>)
    172e:	4a1d      	ldr	r2, [pc, #116]	; (17a4 <Calibrate_OrifPartDP+0x7c>)
    1730:	4b1d      	ldr	r3, [pc, #116]	; (17a8 <Calibrate_OrifPartDP+0x80>)
    1732:	4d1e      	ldr	r5, [pc, #120]	; (17ac <Calibrate_OrifPartDP+0x84>)
    1734:	47a8      	blx	r5
    1736:	2308      	movs	r3, #8
    1738:	9300      	str	r3, [sp, #0]
    173a:	220e      	movs	r2, #14
    173c:	2303      	movs	r3, #3
    173e:	2001      	movs	r0, #1
    1740:	1c19      	adds	r1, r3, #0
    1742:	9301      	str	r3, [sp, #4]
    1744:	9202      	str	r2, [sp, #8]
    1746:	4c1a      	ldr	r4, [pc, #104]	; (17b0 <Calibrate_OrifPartDP+0x88>)
    1748:	1c02      	adds	r2, r0, #0
    174a:	47a0      	blx	r4
    174c:	b2c6      	uxtb	r6, r0
    174e:	4b19      	ldr	r3, [pc, #100]	; (17b4 <Calibrate_OrifPartDP+0x8c>)
    1750:	b274      	sxtb	r4, r6
    1752:	4798      	blx	r3
    1754:	2c01      	cmp	r4, #1
    1756:	d10a      	bne.n	176e <Calibrate_OrifPartDP+0x46>
    1758:	4817      	ldr	r0, [pc, #92]	; (17b8 <Calibrate_OrifPartDP+0x90>)
    175a:	4918      	ldr	r1, [pc, #96]	; (17bc <Calibrate_OrifPartDP+0x94>)
    175c:	4a18      	ldr	r2, [pc, #96]	; (17c0 <Calibrate_OrifPartDP+0x98>)
    175e:	4b19      	ldr	r3, [pc, #100]	; (17c4 <Calibrate_OrifPartDP+0x9c>)
    1760:	47a8      	blx	r5
    1762:	4819      	ldr	r0, [pc, #100]	; (17c8 <Calibrate_OrifPartDP+0xa0>)
    1764:	2104      	movs	r1, #4
    1766:	1c22      	adds	r2, r4, #0
    1768:	4b18      	ldr	r3, [pc, #96]	; (17cc <Calibrate_OrifPartDP+0xa4>)
    176a:	4798      	blx	r3
    176c:	e00f      	b.n	178e <Calibrate_OrifPartDP+0x66>
    176e:	2c02      	cmp	r4, #2
    1770:	d107      	bne.n	1782 <Calibrate_OrifPartDP+0x5a>
    1772:	4817      	ldr	r0, [pc, #92]	; (17d0 <Calibrate_OrifPartDP+0xa8>)
    1774:	4911      	ldr	r1, [pc, #68]	; (17bc <Calibrate_OrifPartDP+0x94>)
    1776:	4a12      	ldr	r2, [pc, #72]	; (17c0 <Calibrate_OrifPartDP+0x98>)
    1778:	4b12      	ldr	r3, [pc, #72]	; (17c4 <Calibrate_OrifPartDP+0x9c>)
    177a:	47a8      	blx	r5
    177c:	4b15      	ldr	r3, [pc, #84]	; (17d4 <Calibrate_OrifPartDP+0xac>)
    177e:	4798      	blx	r3
    1780:	e7d3      	b.n	172a <Calibrate_OrifPartDP+0x2>
    1782:	2c03      	cmp	r4, #3
    1784:	d106      	bne.n	1794 <Calibrate_OrifPartDP+0x6c>
    1786:	2002      	movs	r0, #2
    1788:	4913      	ldr	r1, [pc, #76]	; (17d8 <Calibrate_OrifPartDP+0xb0>)
    178a:	4b14      	ldr	r3, [pc, #80]	; (17dc <Calibrate_OrifPartDP+0xb4>)
    178c:	4798      	blx	r3
    178e:	4b14      	ldr	r3, [pc, #80]	; (17e0 <Calibrate_OrifPartDP+0xb8>)
    1790:	4798      	blx	r3
    1792:	e7ca      	b.n	172a <Calibrate_OrifPartDP+0x2>
    1794:	2e00      	cmp	r6, #0
    1796:	d1c8      	bne.n	172a <Calibrate_OrifPartDP+0x2>
    1798:	bd7f      	pop	{r0, r1, r2, r3, r4, r5, r6, pc}
    179a:	46c0      	nop			; (mov r8, r8)
    179c:	0000636e 	.word	0x0000636e
    17a0:	00006383 	.word	0x00006383
    17a4:	000062c6 	.word	0x000062c6
    17a8:	000062db 	.word	0x000062db
    17ac:	00002659 	.word	0x00002659
    17b0:	00002e35 	.word	0x00002e35
    17b4:	0000067d 	.word	0x0000067d
    17b8:	00006398 	.word	0x00006398
    17bc:	000063ad 	.word	0x000063ad
    17c0:	000063c2 	.word	0x000063c2
    17c4:	000063d7 	.word	0x000063d7
    17c8:	20000138 	.word	0x20000138
    17cc:	000016a9 	.word	0x000016a9
    17d0:	000063ec 	.word	0x000063ec
    17d4:	000016d9 	.word	0x000016d9
    17d8:	00006359 	.word	0x00006359
    17dc:	00002635 	.word	0x00002635
    17e0:	000006bd 	.word	0x000006bd

000017e4 <CalEdit_OrifGasDP>:
    17e4:	b537      	push	{r0, r1, r2, r4, r5, lr}
    17e6:	4c11      	ldr	r4, [pc, #68]	; (182c <CalEdit_OrifGasDP+0x48>)
    17e8:	2104      	movs	r1, #4
    17ea:	1c20      	adds	r0, r4, #0
    17ec:	2201      	movs	r2, #1
    17ee:	4b10      	ldr	r3, [pc, #64]	; (1830 <CalEdit_OrifGasDP+0x4c>)
    17f0:	4798      	blx	r3
    17f2:	88e0      	ldrh	r0, [r4, #6]
    17f4:	230e      	movs	r3, #14
    17f6:	9300      	str	r3, [sp, #0]
    17f8:	b280      	uxth	r0, r0
    17fa:	2303      	movs	r3, #3
    17fc:	2100      	movs	r1, #0
    17fe:	2205      	movs	r2, #5
    1800:	4d0c      	ldr	r5, [pc, #48]	; (1834 <CalEdit_OrifGasDP+0x50>)
    1802:	47a8      	blx	r5
    1804:	4b0c      	ldr	r3, [pc, #48]	; (1838 <CalEdit_OrifGasDP+0x54>)
    1806:	781b      	ldrb	r3, [r3, #0]
    1808:	2b00      	cmp	r3, #0
    180a:	d10d      	bne.n	1828 <CalEdit_OrifGasDP+0x44>
    180c:	b280      	uxth	r0, r0
    180e:	80e0      	strh	r0, [r4, #6]
    1810:	8920      	ldrh	r0, [r4, #8]
    1812:	2306      	movs	r3, #6
    1814:	2204      	movs	r2, #4
    1816:	9300      	str	r3, [sp, #0]
    1818:	b280      	uxth	r0, r0
    181a:	1c13      	adds	r3, r2, #0
    181c:	2101      	movs	r1, #1
    181e:	47a8      	blx	r5
    1820:	1c43      	adds	r3, r0, #1
    1822:	d001      	beq.n	1828 <CalEdit_OrifGasDP+0x44>
    1824:	b280      	uxth	r0, r0
    1826:	8120      	strh	r0, [r4, #8]
    1828:	bd37      	pop	{r0, r1, r2, r4, r5, pc}
    182a:	46c0      	nop			; (mov r8, r8)
    182c:	20000188 	.word	0x20000188
    1830:	000016a9 	.word	0x000016a9
    1834:	00000bf1 	.word	0x00000bf1
    1838:	200000bd 	.word	0x200000bd

0000183c <Calibrate_OrifGasDP>:
    183c:	b57f      	push	{r0, r1, r2, r3, r4, r5, r6, lr}
    183e:	481c      	ldr	r0, [pc, #112]	; (18b0 <Calibrate_OrifGasDP+0x74>)
    1840:	491c      	ldr	r1, [pc, #112]	; (18b4 <Calibrate_OrifGasDP+0x78>)
    1842:	4a1d      	ldr	r2, [pc, #116]	; (18b8 <Calibrate_OrifGasDP+0x7c>)
    1844:	4b1d      	ldr	r3, [pc, #116]	; (18bc <Calibrate_OrifGasDP+0x80>)
    1846:	4d1e      	ldr	r5, [pc, #120]	; (18c0 <Calibrate_OrifGasDP+0x84>)
    1848:	47a8      	blx	r5
    184a:	2308      	movs	r3, #8
    184c:	9300      	str	r3, [sp, #0]
    184e:	220e      	movs	r2, #14
    1850:	2303      	movs	r3, #3
    1852:	2001      	movs	r0, #1
    1854:	1c19      	adds	r1, r3, #0
    1856:	9301      	str	r3, [sp, #4]
    1858:	9202      	str	r2, [sp, #8]
    185a:	4c1a      	ldr	r4, [pc, #104]	; (18c4 <Calibrate_OrifGasDP+0x88>)
    185c:	1c02      	adds	r2, r0, #0
    185e:	47a0      	blx	r4
    1860:	b2c6      	uxtb	r6, r0
    1862:	4b19      	ldr	r3, [pc, #100]	; (18c8 <Calibrate_OrifGasDP+0x8c>)
    1864:	b274      	sxtb	r4, r6
    1866:	4798      	blx	r3
    1868:	2c01      	cmp	r4, #1
    186a:	d10a      	bne.n	1882 <Calibrate_OrifGasDP+0x46>
    186c:	4817      	ldr	r0, [pc, #92]	; (18cc <Calibrate_OrifGasDP+0x90>)
    186e:	4918      	ldr	r1, [pc, #96]	; (18d0 <Calibrate_OrifGasDP+0x94>)
    1870:	4a18      	ldr	r2, [pc, #96]	; (18d4 <Calibrate_OrifGasDP+0x98>)
    1872:	4b19      	ldr	r3, [pc, #100]	; (18d8 <Calibrate_OrifGasDP+0x9c>)
    1874:	47a8      	blx	r5
    1876:	4819      	ldr	r0, [pc, #100]	; (18dc <Calibrate_OrifGasDP+0xa0>)
    1878:	2104      	movs	r1, #4
    187a:	1c22      	adds	r2, r4, #0
    187c:	4b18      	ldr	r3, [pc, #96]	; (18e0 <Calibrate_OrifGasDP+0xa4>)
    187e:	4798      	blx	r3
    1880:	e00f      	b.n	18a2 <Calibrate_OrifGasDP+0x66>
    1882:	2c02      	cmp	r4, #2
    1884:	d107      	bne.n	1896 <Calibrate_OrifGasDP+0x5a>
    1886:	4817      	ldr	r0, [pc, #92]	; (18e4 <Calibrate_OrifGasDP+0xa8>)
    1888:	4917      	ldr	r1, [pc, #92]	; (18e8 <Calibrate_OrifGasDP+0xac>)
    188a:	4a12      	ldr	r2, [pc, #72]	; (18d4 <Calibrate_OrifGasDP+0x98>)
    188c:	4b12      	ldr	r3, [pc, #72]	; (18d8 <Calibrate_OrifGasDP+0x9c>)
    188e:	47a8      	blx	r5
    1890:	4b16      	ldr	r3, [pc, #88]	; (18ec <Calibrate_OrifGasDP+0xb0>)
    1892:	4798      	blx	r3
    1894:	e7d3      	b.n	183e <Calibrate_OrifGasDP+0x2>
    1896:	2c03      	cmp	r4, #3
    1898:	d106      	bne.n	18a8 <Calibrate_OrifGasDP+0x6c>
    189a:	2002      	movs	r0, #2
    189c:	4914      	ldr	r1, [pc, #80]	; (18f0 <Calibrate_OrifGasDP+0xb4>)
    189e:	4b15      	ldr	r3, [pc, #84]	; (18f4 <Calibrate_OrifGasDP+0xb8>)
    18a0:	4798      	blx	r3
    18a2:	4b15      	ldr	r3, [pc, #84]	; (18f8 <Calibrate_OrifGasDP+0xbc>)
    18a4:	4798      	blx	r3
    18a6:	e7ca      	b.n	183e <Calibrate_OrifGasDP+0x2>
    18a8:	2e00      	cmp	r6, #0
    18aa:	d1c8      	bne.n	183e <Calibrate_OrifGasDP+0x2>
    18ac:	bd7f      	pop	{r0, r1, r2, r3, r4, r5, r6, pc}
    18ae:	46c0      	nop			; (mov r8, r8)
    18b0:	0000636e 	.word	0x0000636e
    18b4:	00006401 	.word	0x00006401
    18b8:	000062c6 	.word	0x000062c6
    18bc:	000062db 	.word	0x000062db
    18c0:	00002659 	.word	0x00002659
    18c4:	00002e35 	.word	0x00002e35
    18c8:	0000067d 	.word	0x0000067d
    18cc:	00006416 	.word	0x00006416
    18d0:	0000642b 	.word	0x0000642b
    18d4:	000063c2 	.word	0x000063c2
    18d8:	000063d7 	.word	0x000063d7
    18dc:	20000188 	.word	0x20000188
    18e0:	000016a9 	.word	0x000016a9
    18e4:	000063ec 	.word	0x000063ec
    18e8:	000063ad 	.word	0x000063ad
    18ec:	000017e5 	.word	0x000017e5
    18f0:	00006359 	.word	0x00006359
    18f4:	00002635 	.word	0x00002635
    18f8:	000006bd 	.word	0x000006bd

000018fc <CalEdit_PitotDP>:
    18fc:	b537      	push	{r0, r1, r2, r4, r5, lr}
    18fe:	4c11      	ldr	r4, [pc, #68]	; (1944 <CalEdit_PitotDP+0x48>)
    1900:	2105      	movs	r1, #5
    1902:	1c20      	adds	r0, r4, #0
    1904:	2201      	movs	r2, #1
    1906:	4b10      	ldr	r3, [pc, #64]	; (1948 <CalEdit_PitotDP+0x4c>)
    1908:	4798      	blx	r3
    190a:	88e0      	ldrh	r0, [r4, #6]
    190c:	230e      	movs	r3, #14
    190e:	9300      	str	r3, [sp, #0]
    1910:	b280      	uxth	r0, r0
    1912:	2303      	movs	r3, #3
    1914:	2100      	movs	r1, #0
    1916:	2205      	movs	r2, #5
    1918:	4d0c      	ldr	r5, [pc, #48]	; (194c <CalEdit_PitotDP+0x50>)
    191a:	47a8      	blx	r5
    191c:	4b0c      	ldr	r3, [pc, #48]	; (1950 <CalEdit_PitotDP+0x54>)
    191e:	781b      	ldrb	r3, [r3, #0]
    1920:	2b00      	cmp	r3, #0
    1922:	d10d      	bne.n	1940 <CalEdit_PitotDP+0x44>
    1924:	b280      	uxth	r0, r0
    1926:	80e0      	strh	r0, [r4, #6]
    1928:	8920      	ldrh	r0, [r4, #8]
    192a:	2306      	movs	r3, #6
    192c:	9300      	str	r3, [sp, #0]
    192e:	b280      	uxth	r0, r0
    1930:	2304      	movs	r3, #4
    1932:	2101      	movs	r1, #1
    1934:	2205      	movs	r2, #5
    1936:	47a8      	blx	r5
    1938:	1c43      	adds	r3, r0, #1
    193a:	d001      	beq.n	1940 <CalEdit_PitotDP+0x44>
    193c:	b280      	uxth	r0, r0
    193e:	8120      	strh	r0, [r4, #8]
    1940:	bd37      	pop	{r0, r1, r2, r4, r5, pc}
    1942:	46c0      	nop			; (mov r8, r8)
    1944:	20000170 	.word	0x20000170
    1948:	000016a9 	.word	0x000016a9
    194c:	00000bf1 	.word	0x00000bf1
    1950:	200000bd 	.word	0x200000bd

00001954 <Calibrate_PitotDP>:
    1954:	b57f      	push	{r0, r1, r2, r3, r4, r5, r6, lr}
    1956:	481c      	ldr	r0, [pc, #112]	; (19c8 <Calibrate_PitotDP+0x74>)
    1958:	491c      	ldr	r1, [pc, #112]	; (19cc <Calibrate_PitotDP+0x78>)
    195a:	4a1d      	ldr	r2, [pc, #116]	; (19d0 <Calibrate_PitotDP+0x7c>)
    195c:	4b1d      	ldr	r3, [pc, #116]	; (19d4 <Calibrate_PitotDP+0x80>)
    195e:	4d1e      	ldr	r5, [pc, #120]	; (19d8 <Calibrate_PitotDP+0x84>)
    1960:	47a8      	blx	r5
    1962:	2308      	movs	r3, #8
    1964:	9300      	str	r3, [sp, #0]
    1966:	220e      	movs	r2, #14
    1968:	2303      	movs	r3, #3
    196a:	2001      	movs	r0, #1
    196c:	1c19      	adds	r1, r3, #0
    196e:	9301      	str	r3, [sp, #4]
    1970:	9202      	str	r2, [sp, #8]
    1972:	4c1a      	ldr	r4, [pc, #104]	; (19dc <Calibrate_PitotDP+0x88>)
    1974:	1c02      	adds	r2, r0, #0
    1976:	47a0      	blx	r4
    1978:	b2c6      	uxtb	r6, r0
    197a:	4b19      	ldr	r3, [pc, #100]	; (19e0 <Calibrate_PitotDP+0x8c>)
    197c:	b274      	sxtb	r4, r6
    197e:	4798      	blx	r3
    1980:	2c01      	cmp	r4, #1
    1982:	d10a      	bne.n	199a <Calibrate_PitotDP+0x46>
    1984:	4817      	ldr	r0, [pc, #92]	; (19e4 <Calibrate_PitotDP+0x90>)
    1986:	4918      	ldr	r1, [pc, #96]	; (19e8 <Calibrate_PitotDP+0x94>)
    1988:	4a18      	ldr	r2, [pc, #96]	; (19ec <Calibrate_PitotDP+0x98>)
    198a:	4b19      	ldr	r3, [pc, #100]	; (19f0 <Calibrate_PitotDP+0x9c>)
    198c:	47a8      	blx	r5
    198e:	4819      	ldr	r0, [pc, #100]	; (19f4 <Calibrate_PitotDP+0xa0>)
    1990:	2105      	movs	r1, #5
    1992:	1c22      	adds	r2, r4, #0
    1994:	4b18      	ldr	r3, [pc, #96]	; (19f8 <Calibrate_PitotDP+0xa4>)
    1996:	4798      	blx	r3
    1998:	e00f      	b.n	19ba <Calibrate_PitotDP+0x66>
    199a:	2c02      	cmp	r4, #2
    199c:	d107      	bne.n	19ae <Calibrate_PitotDP+0x5a>
    199e:	4817      	ldr	r0, [pc, #92]	; (19fc <Calibrate_PitotDP+0xa8>)
    19a0:	4911      	ldr	r1, [pc, #68]	; (19e8 <Calibrate_PitotDP+0x94>)
    19a2:	4a12      	ldr	r2, [pc, #72]	; (19ec <Calibrate_PitotDP+0x98>)
    19a4:	4b16      	ldr	r3, [pc, #88]	; (1a00 <Calibrate_PitotDP+0xac>)
    19a6:	47a8      	blx	r5
    19a8:	4b16      	ldr	r3, [pc, #88]	; (1a04 <Calibrate_PitotDP+0xb0>)
    19aa:	4798      	blx	r3
    19ac:	e7d3      	b.n	1956 <Calibrate_PitotDP+0x2>
    19ae:	2c03      	cmp	r4, #3
    19b0:	d106      	bne.n	19c0 <Calibrate_PitotDP+0x6c>
    19b2:	2002      	movs	r0, #2
    19b4:	4914      	ldr	r1, [pc, #80]	; (1a08 <Calibrate_PitotDP+0xb4>)
    19b6:	4b15      	ldr	r3, [pc, #84]	; (1a0c <Calibrate_PitotDP+0xb8>)
    19b8:	4798      	blx	r3
    19ba:	4b15      	ldr	r3, [pc, #84]	; (1a10 <Calibrate_PitotDP+0xbc>)
    19bc:	4798      	blx	r3
    19be:	e7ca      	b.n	1956 <Calibrate_PitotDP+0x2>
    19c0:	2e00      	cmp	r6, #0
    19c2:	d1c8      	bne.n	1956 <Calibrate_PitotDP+0x2>
    19c4:	bd7f      	pop	{r0, r1, r2, r3, r4, r5, r6, pc}
    19c6:	46c0      	nop			; (mov r8, r8)
    19c8:	0000636e 	.word	0x0000636e
    19cc:	00006440 	.word	0x00006440
    19d0:	000062c6 	.word	0x000062c6
    19d4:	000062db 	.word	0x000062db
    19d8:	00002659 	.word	0x00002659
    19dc:	00002e35 	.word	0x00002e35
    19e0:	0000067d 	.word	0x0000067d
    19e4:	00006455 	.word	0x00006455
    19e8:	0000646a 	.word	0x0000646a
    19ec:	000063c2 	.word	0x000063c2
    19f0:	0000647f 	.word	0x0000647f
    19f4:	20000170 	.word	0x20000170
    19f8:	000016a9 	.word	0x000016a9
    19fc:	00006494 	.word	0x00006494
    1a00:	000063d7 	.word	0x000063d7
    1a04:	000018fd 	.word	0x000018fd
    1a08:	00006359 	.word	0x00006359
    1a0c:	00002635 	.word	0x00002635
    1a10:	000006bd 	.word	0x000006bd

00001a14 <GetTCSTDfromUserWithTempDisplay>:
    1a14:	b5f0      	push	{r4, r5, r6, r7, lr}
    1a16:	4b46      	ldr	r3, [pc, #280]	; (1b30 <GetTCSTDfromUserWithTempDisplay+0x11c>)
    1a18:	b085      	sub	sp, #20
    1a1a:	891c      	ldrh	r4, [r3, #8]
    1a1c:	2204      	movs	r2, #4
    1a1e:	b2a4      	uxth	r4, r4
    1a20:	2506      	movs	r5, #6
    1a22:	1c20      	adds	r0, r4, #0
    1a24:	1c13      	adds	r3, r2, #0
    1a26:	2102      	movs	r1, #2
    1a28:	9500      	str	r5, [sp, #0]
    1a2a:	4e42      	ldr	r6, [pc, #264]	; (1b34 <GetTCSTDfromUserWithTempDisplay+0x120>)
    1a2c:	47b0      	blx	r6
    1a2e:	1c20      	adds	r0, r4, #0
    1a30:	2204      	movs	r2, #4
    1a32:	a903      	add	r1, sp, #12
    1a34:	4b40      	ldr	r3, [pc, #256]	; (1b38 <GetTCSTDfromUserWithTempDisplay+0x124>)
    1a36:	4798      	blx	r3
    1a38:	4b40      	ldr	r3, [pc, #256]	; (1b3c <GetTCSTDfromUserWithTempDisplay+0x128>)
    1a3a:	4798      	blx	r3
    1a3c:	2004      	movs	r0, #4
    1a3e:	1c29      	adds	r1, r5, #0
    1a40:	4b3f      	ldr	r3, [pc, #252]	; (1b40 <GetTCSTDfromUserWithTempDisplay+0x12c>)
    1a42:	4798      	blx	r3
    1a44:	4b3f      	ldr	r3, [pc, #252]	; (1b44 <GetTCSTDfromUserWithTempDisplay+0x130>)
    1a46:	4798      	blx	r3
    1a48:	2403      	movs	r4, #3
    1a4a:	4b3f      	ldr	r3, [pc, #252]	; (1b48 <GetTCSTDfromUserWithTempDisplay+0x134>)
    1a4c:	4798      	blx	r3
    1a4e:	2800      	cmp	r0, #0
    1a50:	d0fb      	beq.n	1a4a <GetTCSTDfromUserWithTempDisplay+0x36>
    1a52:	4b3e      	ldr	r3, [pc, #248]	; (1b4c <GetTCSTDfromUserWithTempDisplay+0x138>)
    1a54:	4798      	blx	r3
    1a56:	4b3e      	ldr	r3, [pc, #248]	; (1b50 <GetTCSTDfromUserWithTempDisplay+0x13c>)
    1a58:	781b      	ldrb	r3, [r3, #0]
    1a5a:	2b00      	cmp	r3, #0
    1a5c:	d009      	beq.n	1a72 <GetTCSTDfromUserWithTempDisplay+0x5e>
    1a5e:	b266      	sxtb	r6, r4
    1a60:	af03      	add	r7, sp, #12
    1a62:	5db8      	ldrb	r0, [r7, r6]
    1a64:	4b3b      	ldr	r3, [pc, #236]	; (1b54 <GetTCSTDfromUserWithTempDisplay+0x140>)
    1a66:	3001      	adds	r0, #1
    1a68:	b2c0      	uxtb	r0, r0
    1a6a:	55b8      	strb	r0, [r7, r6]
    1a6c:	b240      	sxtb	r0, r0
    1a6e:	4798      	blx	r3
    1a70:	55b8      	strb	r0, [r7, r6]
    1a72:	4b39      	ldr	r3, [pc, #228]	; (1b58 <GetTCSTDfromUserWithTempDisplay+0x144>)
    1a74:	781b      	ldrb	r3, [r3, #0]
    1a76:	2b00      	cmp	r3, #0
    1a78:	d009      	beq.n	1a8e <GetTCSTDfromUserWithTempDisplay+0x7a>
    1a7a:	b266      	sxtb	r6, r4
    1a7c:	af03      	add	r7, sp, #12
    1a7e:	5db8      	ldrb	r0, [r7, r6]
    1a80:	4b34      	ldr	r3, [pc, #208]	; (1b54 <GetTCSTDfromUserWithTempDisplay+0x140>)
    1a82:	3801      	subs	r0, #1
    1a84:	b2c0      	uxtb	r0, r0
    1a86:	55b8      	strb	r0, [r7, r6]
    1a88:	b240      	sxtb	r0, r0
    1a8a:	4798      	blx	r3
    1a8c:	55b8      	strb	r0, [r7, r6]
    1a8e:	4a33      	ldr	r2, [pc, #204]	; (1b5c <GetTCSTDfromUserWithTempDisplay+0x148>)
    1a90:	4b33      	ldr	r3, [pc, #204]	; (1b60 <GetTCSTDfromUserWithTempDisplay+0x14c>)
    1a92:	7811      	ldrb	r1, [r2, #0]
    1a94:	2900      	cmp	r1, #0
    1a96:	d102      	bne.n	1a9e <GetTCSTDfromUserWithTempDisplay+0x8a>
    1a98:	7819      	ldrb	r1, [r3, #0]
    1a9a:	2900      	cmp	r1, #0
    1a9c:	d01a      	beq.n	1ad4 <GetTCSTDfromUserWithTempDisplay+0xc0>
    1a9e:	7812      	ldrb	r2, [r2, #0]
    1aa0:	2a00      	cmp	r2, #0
    1aa2:	d001      	beq.n	1aa8 <GetTCSTDfromUserWithTempDisplay+0x94>
    1aa4:	3c01      	subs	r4, #1
    1aa6:	b2e4      	uxtb	r4, r4
    1aa8:	781b      	ldrb	r3, [r3, #0]
    1aaa:	2b00      	cmp	r3, #0
    1aac:	d001      	beq.n	1ab2 <GetTCSTDfromUserWithTempDisplay+0x9e>
    1aae:	3401      	adds	r4, #1
    1ab0:	b2e4      	uxtb	r4, r4
    1ab2:	b263      	sxtb	r3, r4
    1ab4:	2b03      	cmp	r3, #3
    1ab6:	dc03      	bgt.n	1ac0 <GetTCSTDfromUserWithTempDisplay+0xac>
    1ab8:	2b00      	cmp	r3, #0
    1aba:	da02      	bge.n	1ac2 <GetTCSTDfromUserWithTempDisplay+0xae>
    1abc:	2403      	movs	r4, #3
    1abe:	e000      	b.n	1ac2 <GetTCSTDfromUserWithTempDisplay+0xae>
    1ac0:	2400      	movs	r4, #0
    1ac2:	b2e3      	uxtb	r3, r4
    1ac4:	2509      	movs	r5, #9
    1ac6:	1aed      	subs	r5, r5, r3
    1ac8:	b2ed      	uxtb	r5, r5
    1aca:	2d07      	cmp	r5, #7
    1acc:	dd02      	ble.n	1ad4 <GetTCSTDfromUserWithTempDisplay+0xc0>
    1ace:	250a      	movs	r5, #10
    1ad0:	1aed      	subs	r5, r5, r3
    1ad2:	b2ed      	uxtb	r5, r5
    1ad4:	4b23      	ldr	r3, [pc, #140]	; (1b64 <GetTCSTDfromUserWithTempDisplay+0x150>)
    1ad6:	781b      	ldrb	r3, [r3, #0]
    1ad8:	2b00      	cmp	r3, #0
    1ada:	d004      	beq.n	1ae6 <GetTCSTDfromUserWithTempDisplay+0xd2>
    1adc:	a803      	add	r0, sp, #12
    1ade:	2104      	movs	r1, #4
    1ae0:	4b21      	ldr	r3, [pc, #132]	; (1b68 <GetTCSTDfromUserWithTempDisplay+0x154>)
    1ae2:	4798      	blx	r3
    1ae4:	e022      	b.n	1b2c <GetTCSTDfromUserWithTempDisplay+0x118>
    1ae6:	4b21      	ldr	r3, [pc, #132]	; (1b6c <GetTCSTDfromUserWithTempDisplay+0x158>)
    1ae8:	781e      	ldrb	r6, [r3, #0]
    1aea:	b2f6      	uxtb	r6, r6
    1aec:	2e00      	cmp	r6, #0
    1aee:	d11b      	bne.n	1b28 <GetTCSTDfromUserWithTempDisplay+0x114>
    1af0:	1c29      	adds	r1, r5, #0
    1af2:	2004      	movs	r0, #4
    1af4:	4b12      	ldr	r3, [pc, #72]	; (1b40 <GetTCSTDfromUserWithTempDisplay+0x12c>)
    1af6:	4798      	blx	r3
    1af8:	af03      	add	r7, sp, #12
    1afa:	b263      	sxtb	r3, r4
    1afc:	5cf8      	ldrb	r0, [r7, r3]
    1afe:	4b1c      	ldr	r3, [pc, #112]	; (1b70 <GetTCSTDfromUserWithTempDisplay+0x15c>)
    1b00:	4798      	blx	r3
    1b02:	2104      	movs	r1, #4
    1b04:	1c38      	adds	r0, r7, #0
    1b06:	4b18      	ldr	r3, [pc, #96]	; (1b68 <GetTCSTDfromUserWithTempDisplay+0x154>)
    1b08:	4798      	blx	r3
    1b0a:	4b1a      	ldr	r3, [pc, #104]	; (1b74 <GetTCSTDfromUserWithTempDisplay+0x160>)
    1b0c:	b280      	uxth	r0, r0
    1b0e:	4798      	blx	r3
    1b10:	2204      	movs	r2, #4
    1b12:	230f      	movs	r3, #15
    1b14:	9300      	str	r3, [sp, #0]
    1b16:	1c31      	adds	r1, r6, #0
    1b18:	1c13      	adds	r3, r2, #0
    1b1a:	4e06      	ldr	r6, [pc, #24]	; (1b34 <GetTCSTDfromUserWithTempDisplay+0x120>)
    1b1c:	47b0      	blx	r6
    1b1e:	2004      	movs	r0, #4
    1b20:	1c29      	adds	r1, r5, #0
    1b22:	4e07      	ldr	r6, [pc, #28]	; (1b40 <GetTCSTDfromUserWithTempDisplay+0x12c>)
    1b24:	47b0      	blx	r6
    1b26:	e790      	b.n	1a4a <GetTCSTDfromUserWithTempDisplay+0x36>
    1b28:	2001      	movs	r0, #1
    1b2a:	4240      	negs	r0, r0
    1b2c:	b005      	add	sp, #20
    1b2e:	bdf0      	pop	{r4, r5, r6, r7, pc}
    1b30:	20000104 	.word	0x20000104
    1b34:	00000aa9 	.word	0x00000aa9
    1b38:	00000a71 	.word	0x00000a71
    1b3c:	00002721 	.word	0x00002721
    1b40:	00002609 	.word	0x00002609
    1b44:	0000067d 	.word	0x0000067d
    1b48:	0000048d 	.word	0x0000048d
    1b4c:	000004c5 	.word	0x000004c5
    1b50:	200000c0 	.word	0x200000c0
    1b54:	00000a59 	.word	0x00000a59
    1b58:	200000c1 	.word	0x200000c1
    1b5c:	200000bc 	.word	0x200000bc
    1b60:	200000be 	.word	0x200000be
    1b64:	200000bf 	.word	0x200000bf
    1b68:	00000b6d 	.word	0x00000b6d
    1b6c:	200000bd 	.word	0x200000bd
    1b70:	000025c5 	.word	0x000025c5
    1b74:	0000285d 	.word	0x0000285d

00001b78 <CalEdit_StackTC>:
    1b78:	b537      	push	{r0, r1, r2, r4, r5, lr}
    1b7a:	4c16      	ldr	r4, [pc, #88]	; (1bd4 <CalEdit_StackTC+0x5c>)
    1b7c:	2104      	movs	r1, #4
    1b7e:	2202      	movs	r2, #2
    1b80:	1c20      	adds	r0, r4, #0
    1b82:	4b15      	ldr	r3, [pc, #84]	; (1bd8 <CalEdit_StackTC+0x60>)
    1b84:	4798      	blx	r3
    1b86:	8920      	ldrh	r0, [r4, #8]
    1b88:	4b14      	ldr	r3, [pc, #80]	; (1bdc <CalEdit_StackTC+0x64>)
    1b8a:	b280      	uxth	r0, r0
    1b8c:	4798      	blx	r3
    1b8e:	2204      	movs	r2, #4
    1b90:	230f      	movs	r3, #15
    1b92:	9300      	str	r3, [sp, #0]
    1b94:	2100      	movs	r1, #0
    1b96:	1c13      	adds	r3, r2, #0
    1b98:	4d11      	ldr	r5, [pc, #68]	; (1be0 <CalEdit_StackTC+0x68>)
    1b9a:	47a8      	blx	r5
    1b9c:	2113      	movs	r1, #19
    1b9e:	2004      	movs	r0, #4
    1ba0:	4b10      	ldr	r3, [pc, #64]	; (1be4 <CalEdit_StackTC+0x6c>)
    1ba2:	4798      	blx	r3
    1ba4:	2002      	movs	r0, #2
    1ba6:	4b10      	ldr	r3, [pc, #64]	; (1be8 <CalEdit_StackTC+0x70>)
    1ba8:	4798      	blx	r3
    1baa:	88e0      	ldrh	r0, [r4, #6]
    1bac:	230e      	movs	r3, #14
    1bae:	9300      	str	r3, [sp, #0]
    1bb0:	b280      	uxth	r0, r0
    1bb2:	2303      	movs	r3, #3
    1bb4:	2100      	movs	r1, #0
    1bb6:	2205      	movs	r2, #5
    1bb8:	4d0c      	ldr	r5, [pc, #48]	; (1bec <CalEdit_StackTC+0x74>)
    1bba:	47a8      	blx	r5
    1bbc:	1c43      	adds	r3, r0, #1
    1bbe:	d007      	beq.n	1bd0 <CalEdit_StackTC+0x58>
    1bc0:	b280      	uxth	r0, r0
    1bc2:	4b0b      	ldr	r3, [pc, #44]	; (1bf0 <CalEdit_StackTC+0x78>)
    1bc4:	80e0      	strh	r0, [r4, #6]
    1bc6:	4798      	blx	r3
    1bc8:	1c43      	adds	r3, r0, #1
    1bca:	d001      	beq.n	1bd0 <CalEdit_StackTC+0x58>
    1bcc:	b280      	uxth	r0, r0
    1bce:	8120      	strh	r0, [r4, #8]
    1bd0:	bd37      	pop	{r0, r1, r2, r4, r5, pc}
    1bd2:	46c0      	nop			; (mov r8, r8)
    1bd4:	20000104 	.word	0x20000104
    1bd8:	000016a9 	.word	0x000016a9
    1bdc:	0000285d 	.word	0x0000285d
    1be0:	00000aa9 	.word	0x00000aa9
    1be4:	00002609 	.word	0x00002609
    1be8:	00002579 	.word	0x00002579
    1bec:	00000bf1 	.word	0x00000bf1
    1bf0:	00001a15 	.word	0x00001a15

00001bf4 <Calibrate_StackTC>:
    1bf4:	b530      	push	{r4, r5, lr}
    1bf6:	b085      	sub	sp, #20
    1bf8:	4825      	ldr	r0, [pc, #148]	; (1c90 <Calibrate_StackTC+0x9c>)
    1bfa:	4926      	ldr	r1, [pc, #152]	; (1c94 <Calibrate_StackTC+0xa0>)
    1bfc:	4a26      	ldr	r2, [pc, #152]	; (1c98 <Calibrate_StackTC+0xa4>)
    1bfe:	4b27      	ldr	r3, [pc, #156]	; (1c9c <Calibrate_StackTC+0xa8>)
    1c00:	4c27      	ldr	r4, [pc, #156]	; (1ca0 <Calibrate_StackTC+0xac>)
    1c02:	47a0      	blx	r4
    1c04:	2308      	movs	r3, #8
    1c06:	9300      	str	r3, [sp, #0]
    1c08:	220e      	movs	r2, #14
    1c0a:	2303      	movs	r3, #3
    1c0c:	2001      	movs	r0, #1
    1c0e:	1c19      	adds	r1, r3, #0
    1c10:	9301      	str	r3, [sp, #4]
    1c12:	9202      	str	r2, [sp, #8]
    1c14:	4d23      	ldr	r5, [pc, #140]	; (1ca4 <Calibrate_StackTC+0xb0>)
    1c16:	1c02      	adds	r2, r0, #0
    1c18:	47a8      	blx	r5
    1c1a:	4b23      	ldr	r3, [pc, #140]	; (1ca8 <Calibrate_StackTC+0xb4>)
    1c1c:	b2c5      	uxtb	r5, r0
    1c1e:	4798      	blx	r3
    1c20:	b26b      	sxtb	r3, r5
    1c22:	2b01      	cmp	r3, #1
    1c24:	d11d      	bne.n	1c62 <Calibrate_StackTC+0x6e>
    1c26:	4821      	ldr	r0, [pc, #132]	; (1cac <Calibrate_StackTC+0xb8>)
    1c28:	4921      	ldr	r1, [pc, #132]	; (1cb0 <Calibrate_StackTC+0xbc>)
    1c2a:	4a22      	ldr	r2, [pc, #136]	; (1cb4 <Calibrate_StackTC+0xc0>)
    1c2c:	4b22      	ldr	r3, [pc, #136]	; (1cb8 <Calibrate_StackTC+0xc4>)
    1c2e:	47a0      	blx	r4
    1c30:	4c22      	ldr	r4, [pc, #136]	; (1cbc <Calibrate_StackTC+0xc8>)
    1c32:	2104      	movs	r1, #4
    1c34:	1c20      	adds	r0, r4, #0
    1c36:	2202      	movs	r2, #2
    1c38:	4b21      	ldr	r3, [pc, #132]	; (1cc0 <Calibrate_StackTC+0xcc>)
    1c3a:	4798      	blx	r3
    1c3c:	8920      	ldrh	r0, [r4, #8]
    1c3e:	4b21      	ldr	r3, [pc, #132]	; (1cc4 <Calibrate_StackTC+0xd0>)
    1c40:	b280      	uxth	r0, r0
    1c42:	4798      	blx	r3
    1c44:	2204      	movs	r2, #4
    1c46:	230f      	movs	r3, #15
    1c48:	9300      	str	r3, [sp, #0]
    1c4a:	2100      	movs	r1, #0
    1c4c:	1c13      	adds	r3, r2, #0
    1c4e:	4c1e      	ldr	r4, [pc, #120]	; (1cc8 <Calibrate_StackTC+0xd4>)
    1c50:	47a0      	blx	r4
    1c52:	2004      	movs	r0, #4
    1c54:	2113      	movs	r1, #19
    1c56:	4b1d      	ldr	r3, [pc, #116]	; (1ccc <Calibrate_StackTC+0xd8>)
    1c58:	4798      	blx	r3
    1c5a:	2002      	movs	r0, #2
    1c5c:	4b1c      	ldr	r3, [pc, #112]	; (1cd0 <Calibrate_StackTC+0xdc>)
    1c5e:	4798      	blx	r3
    1c60:	e00f      	b.n	1c82 <Calibrate_StackTC+0x8e>
    1c62:	2b02      	cmp	r3, #2
    1c64:	d107      	bne.n	1c76 <Calibrate_StackTC+0x82>
    1c66:	481b      	ldr	r0, [pc, #108]	; (1cd4 <Calibrate_StackTC+0xe0>)
    1c68:	4911      	ldr	r1, [pc, #68]	; (1cb0 <Calibrate_StackTC+0xbc>)
    1c6a:	4a12      	ldr	r2, [pc, #72]	; (1cb4 <Calibrate_StackTC+0xc0>)
    1c6c:	4b12      	ldr	r3, [pc, #72]	; (1cb8 <Calibrate_StackTC+0xc4>)
    1c6e:	47a0      	blx	r4
    1c70:	4b19      	ldr	r3, [pc, #100]	; (1cd8 <Calibrate_StackTC+0xe4>)
    1c72:	4798      	blx	r3
    1c74:	e7c0      	b.n	1bf8 <Calibrate_StackTC+0x4>
    1c76:	2b03      	cmp	r3, #3
    1c78:	d106      	bne.n	1c88 <Calibrate_StackTC+0x94>
    1c7a:	2002      	movs	r0, #2
    1c7c:	4917      	ldr	r1, [pc, #92]	; (1cdc <Calibrate_StackTC+0xe8>)
    1c7e:	4b18      	ldr	r3, [pc, #96]	; (1ce0 <Calibrate_StackTC+0xec>)
    1c80:	4798      	blx	r3
    1c82:	4b18      	ldr	r3, [pc, #96]	; (1ce4 <Calibrate_StackTC+0xf0>)
    1c84:	4798      	blx	r3
    1c86:	e7b7      	b.n	1bf8 <Calibrate_StackTC+0x4>
    1c88:	2d00      	cmp	r5, #0
    1c8a:	d1b5      	bne.n	1bf8 <Calibrate_StackTC+0x4>
    1c8c:	b005      	add	sp, #20
    1c8e:	bd30      	pop	{r4, r5, pc}
    1c90:	0000636e 	.word	0x0000636e
    1c94:	000064a9 	.word	0x000064a9
    1c98:	000062c6 	.word	0x000062c6
    1c9c:	000062db 	.word	0x000062db
    1ca0:	00002659 	.word	0x00002659
    1ca4:	00002e35 	.word	0x00002e35
    1ca8:	0000067d 	.word	0x0000067d
    1cac:	000064be 	.word	0x000064be
    1cb0:	0000646a 	.word	0x0000646a
    1cb4:	000063c2 	.word	0x000063c2
    1cb8:	000064d3 	.word	0x000064d3
    1cbc:	20000104 	.word	0x20000104
    1cc0:	000016a9 	.word	0x000016a9
    1cc4:	0000285d 	.word	0x0000285d
    1cc8:	00000aa9 	.word	0x00000aa9
    1ccc:	00002609 	.word	0x00002609
    1cd0:	00002579 	.word	0x00002579
    1cd4:	000064e8 	.word	0x000064e8
    1cd8:	00001b79 	.word	0x00001b79
    1cdc:	00006359 	.word	0x00006359
    1ce0:	00002635 	.word	0x00002635
    1ce4:	000006bd 	.word	0x000006bd

00001ce8 <DispPt100TempWithSign>:
    1ce8:	b5f7      	push	{r0, r1, r2, r4, r5, r6, r7, lr}
    1cea:	4b0d      	ldr	r3, [pc, #52]	; (1d20 <DispPt100TempWithSign+0x38>)
    1cec:	1c0c      	adds	r4, r1, #0
    1cee:	1c15      	adds	r5, r2, #0
    1cf0:	4798      	blx	r3
    1cf2:	4b0c      	ldr	r3, [pc, #48]	; (1d24 <DispPt100TempWithSign+0x3c>)
    1cf4:	1e69      	subs	r1, r5, #1
    1cf6:	781f      	ldrb	r7, [r3, #0]
    1cf8:	1c06      	adds	r6, r0, #0
    1cfa:	4b0b      	ldr	r3, [pc, #44]	; (1d28 <DispPt100TempWithSign+0x40>)
    1cfc:	1c20      	adds	r0, r4, #0
    1cfe:	b2c9      	uxtb	r1, r1
    1d00:	b2ff      	uxtb	r7, r7
    1d02:	4798      	blx	r3
    1d04:	4b09      	ldr	r3, [pc, #36]	; (1d2c <DispPt100TempWithSign+0x44>)
    1d06:	202d      	movs	r0, #45	; 0x2d
    1d08:	2f00      	cmp	r7, #0
    1d0a:	d100      	bne.n	1d0e <DispPt100TempWithSign+0x26>
    1d0c:	202b      	movs	r0, #43	; 0x2b
    1d0e:	4798      	blx	r3
    1d10:	9500      	str	r5, [sp, #0]
    1d12:	1c30      	adds	r0, r6, #0
    1d14:	1c23      	adds	r3, r4, #0
    1d16:	2101      	movs	r1, #1
    1d18:	2204      	movs	r2, #4
    1d1a:	4c05      	ldr	r4, [pc, #20]	; (1d30 <DispPt100TempWithSign+0x48>)
    1d1c:	47a0      	blx	r4
    1d1e:	bdf7      	pop	{r0, r1, r2, r4, r5, r6, r7, pc}
    1d20:	00002a61 	.word	0x00002a61
    1d24:	2000014c 	.word	0x2000014c
    1d28:	00002609 	.word	0x00002609
    1d2c:	00002579 	.word	0x00002579
    1d30:	00000aa9 	.word	0x00000aa9

00001d34 <Cal_DispPT100Points>:
    1d34:	b5f7      	push	{r0, r1, r2, r4, r5, r6, r7, lr}
    1d36:	2405      	movs	r4, #5
    1d38:	1c05      	adds	r5, r0, #0
    1d3a:	4e15      	ldr	r6, [pc, #84]	; (1d90 <Cal_DispPT100Points+0x5c>)
    1d3c:	6840      	ldr	r0, [r0, #4]
    1d3e:	1c22      	adds	r2, r4, #0
    1d40:	9400      	str	r4, [sp, #0]
    1d42:	2100      	movs	r1, #0
    1d44:	2302      	movs	r3, #2
    1d46:	47b0      	blx	r6
    1d48:	8968      	ldrh	r0, [r5, #10]
    1d4a:	230f      	movs	r3, #15
    1d4c:	9300      	str	r3, [sp, #0]
    1d4e:	1c22      	adds	r2, r4, #0
    1d50:	b280      	uxth	r0, r0
    1d52:	2100      	movs	r1, #0
    1d54:	2302      	movs	r3, #2
    1d56:	47b0      	blx	r6
    1d58:	8928      	ldrh	r0, [r5, #8]
    1d5a:	1c22      	adds	r2, r4, #0
    1d5c:	b280      	uxth	r0, r0
    1d5e:	9400      	str	r4, [sp, #0]
    1d60:	2102      	movs	r1, #2
    1d62:	2303      	movs	r3, #3
    1d64:	47b0      	blx	r6
    1d66:	8928      	ldrh	r0, [r5, #8]
    1d68:	1c22      	adds	r2, r4, #0
    1d6a:	b280      	uxth	r0, r0
    1d6c:	2104      	movs	r1, #4
    1d6e:	4b09      	ldr	r3, [pc, #36]	; (1d94 <Cal_DispPT100Points+0x60>)
    1d70:	4798      	blx	r3
    1d72:	89a8      	ldrh	r0, [r5, #12]
    1d74:	270e      	movs	r7, #14
    1d76:	9700      	str	r7, [sp, #0]
    1d78:	1c22      	adds	r2, r4, #0
    1d7a:	b280      	uxth	r0, r0
    1d7c:	2102      	movs	r1, #2
    1d7e:	2303      	movs	r3, #3
    1d80:	47b0      	blx	r6
    1d82:	89a8      	ldrh	r0, [r5, #12]
    1d84:	1c3a      	adds	r2, r7, #0
    1d86:	b280      	uxth	r0, r0
    1d88:	2104      	movs	r1, #4
    1d8a:	4b02      	ldr	r3, [pc, #8]	; (1d94 <Cal_DispPT100Points+0x60>)
    1d8c:	4798      	blx	r3
    1d8e:	bdf7      	pop	{r0, r1, r2, r4, r5, r6, r7, pc}
    1d90:	00000aa9 	.word	0x00000aa9
    1d94:	00001ce9 	.word	0x00001ce9

00001d98 <GetPT100STDfromUserWithTempDisplay>:
    1d98:	b5f0      	push	{r4, r5, r6, r7, lr}
    1d9a:	1c0b      	adds	r3, r1, #0
    1d9c:	b089      	sub	sp, #36	; 0x24
    1d9e:	3301      	adds	r3, #1
    1da0:	9104      	str	r1, [sp, #16]
    1da2:	b2db      	uxtb	r3, r3
    1da4:	1c04      	adds	r4, r0, #0
    1da6:	1c15      	adds	r5, r2, #0
    1da8:	9305      	str	r3, [sp, #20]
    1daa:	9200      	str	r2, [sp, #0]
    1dac:	2102      	movs	r1, #2
    1dae:	2205      	movs	r2, #5
    1db0:	9b04      	ldr	r3, [sp, #16]
    1db2:	4e3f      	ldr	r6, [pc, #252]	; (1eb0 <GetPT100STDfromUserWithTempDisplay+0x118>)
    1db4:	47b0      	blx	r6
    1db6:	1c20      	adds	r0, r4, #0
    1db8:	2205      	movs	r2, #5
    1dba:	a906      	add	r1, sp, #24
    1dbc:	4b3d      	ldr	r3, [pc, #244]	; (1eb4 <GetPT100STDfromUserWithTempDisplay+0x11c>)
    1dbe:	4798      	blx	r3
    1dc0:	4b3d      	ldr	r3, [pc, #244]	; (1eb8 <GetPT100STDfromUserWithTempDisplay+0x120>)
    1dc2:	4798      	blx	r3
    1dc4:	9804      	ldr	r0, [sp, #16]
    1dc6:	1c29      	adds	r1, r5, #0
    1dc8:	4b3c      	ldr	r3, [pc, #240]	; (1ebc <GetPT100STDfromUserWithTempDisplay+0x124>)
    1dca:	4798      	blx	r3
    1dcc:	4b3c      	ldr	r3, [pc, #240]	; (1ec0 <GetPT100STDfromUserWithTempDisplay+0x128>)
    1dce:	4798      	blx	r3
    1dd0:	2404      	movs	r4, #4
    1dd2:	9503      	str	r5, [sp, #12]
    1dd4:	4b3b      	ldr	r3, [pc, #236]	; (1ec4 <GetPT100STDfromUserWithTempDisplay+0x12c>)
    1dd6:	4798      	blx	r3
    1dd8:	2800      	cmp	r0, #0
    1dda:	d0fb      	beq.n	1dd4 <GetPT100STDfromUserWithTempDisplay+0x3c>
    1ddc:	4b3a      	ldr	r3, [pc, #232]	; (1ec8 <GetPT100STDfromUserWithTempDisplay+0x130>)
    1dde:	4798      	blx	r3
    1de0:	4b3a      	ldr	r3, [pc, #232]	; (1ecc <GetPT100STDfromUserWithTempDisplay+0x134>)
    1de2:	781b      	ldrb	r3, [r3, #0]
    1de4:	2b00      	cmp	r3, #0
    1de6:	d009      	beq.n	1dfc <GetPT100STDfromUserWithTempDisplay+0x64>
    1de8:	b266      	sxtb	r6, r4
    1dea:	af06      	add	r7, sp, #24
    1dec:	5db8      	ldrb	r0, [r7, r6]
    1dee:	4b38      	ldr	r3, [pc, #224]	; (1ed0 <GetPT100STDfromUserWithTempDisplay+0x138>)
    1df0:	3001      	adds	r0, #1
    1df2:	b2c0      	uxtb	r0, r0
    1df4:	55b8      	strb	r0, [r7, r6]
    1df6:	b240      	sxtb	r0, r0
    1df8:	4798      	blx	r3
    1dfa:	55b8      	strb	r0, [r7, r6]
    1dfc:	4b35      	ldr	r3, [pc, #212]	; (1ed4 <GetPT100STDfromUserWithTempDisplay+0x13c>)
    1dfe:	781b      	ldrb	r3, [r3, #0]
    1e00:	2b00      	cmp	r3, #0
    1e02:	d009      	beq.n	1e18 <GetPT100STDfromUserWithTempDisplay+0x80>
    1e04:	b266      	sxtb	r6, r4
    1e06:	af06      	add	r7, sp, #24
    1e08:	5db8      	ldrb	r0, [r7, r6]
    1e0a:	4b31      	ldr	r3, [pc, #196]	; (1ed0 <GetPT100STDfromUserWithTempDisplay+0x138>)
    1e0c:	3801      	subs	r0, #1
    1e0e:	b2c0      	uxtb	r0, r0
    1e10:	55b8      	strb	r0, [r7, r6]
    1e12:	b240      	sxtb	r0, r0
    1e14:	4798      	blx	r3
    1e16:	55b8      	strb	r0, [r7, r6]
    1e18:	4a2f      	ldr	r2, [pc, #188]	; (1ed8 <GetPT100STDfromUserWithTempDisplay+0x140>)
    1e1a:	4b30      	ldr	r3, [pc, #192]	; (1edc <GetPT100STDfromUserWithTempDisplay+0x144>)
    1e1c:	7811      	ldrb	r1, [r2, #0]
    1e1e:	2900      	cmp	r1, #0
    1e20:	d102      	bne.n	1e28 <GetPT100STDfromUserWithTempDisplay+0x90>
    1e22:	7819      	ldrb	r1, [r3, #0]
    1e24:	2900      	cmp	r1, #0
    1e26:	d01b      	beq.n	1e60 <GetPT100STDfromUserWithTempDisplay+0xc8>
    1e28:	7812      	ldrb	r2, [r2, #0]
    1e2a:	2a00      	cmp	r2, #0
    1e2c:	d001      	beq.n	1e32 <GetPT100STDfromUserWithTempDisplay+0x9a>
    1e2e:	3c01      	subs	r4, #1
    1e30:	b2e4      	uxtb	r4, r4
    1e32:	781b      	ldrb	r3, [r3, #0]
    1e34:	2b00      	cmp	r3, #0
    1e36:	d001      	beq.n	1e3c <GetPT100STDfromUserWithTempDisplay+0xa4>
    1e38:	3401      	adds	r4, #1
    1e3a:	b2e4      	uxtb	r4, r4
    1e3c:	b263      	sxtb	r3, r4
    1e3e:	2b04      	cmp	r3, #4
    1e40:	dc03      	bgt.n	1e4a <GetPT100STDfromUserWithTempDisplay+0xb2>
    1e42:	2b00      	cmp	r3, #0
    1e44:	da02      	bge.n	1e4c <GetPT100STDfromUserWithTempDisplay+0xb4>
    1e46:	2404      	movs	r4, #4
    1e48:	e000      	b.n	1e4c <GetPT100STDfromUserWithTempDisplay+0xb4>
    1e4a:	2400      	movs	r4, #0
    1e4c:	1d6b      	adds	r3, r5, #5
    1e4e:	1b1b      	subs	r3, r3, r4
    1e50:	b2db      	uxtb	r3, r3
    1e52:	9303      	str	r3, [sp, #12]
    1e54:	3b01      	subs	r3, #1
    1e56:	b2db      	uxtb	r3, r3
    1e58:	1cea      	adds	r2, r5, #3
    1e5a:	4293      	cmp	r3, r2
    1e5c:	da00      	bge.n	1e60 <GetPT100STDfromUserWithTempDisplay+0xc8>
    1e5e:	9303      	str	r3, [sp, #12]
    1e60:	4b1f      	ldr	r3, [pc, #124]	; (1ee0 <GetPT100STDfromUserWithTempDisplay+0x148>)
    1e62:	781b      	ldrb	r3, [r3, #0]
    1e64:	2b00      	cmp	r3, #0
    1e66:	d004      	beq.n	1e72 <GetPT100STDfromUserWithTempDisplay+0xda>
    1e68:	a806      	add	r0, sp, #24
    1e6a:	2105      	movs	r1, #5
    1e6c:	4b1d      	ldr	r3, [pc, #116]	; (1ee4 <GetPT100STDfromUserWithTempDisplay+0x14c>)
    1e6e:	4798      	blx	r3
    1e70:	e01b      	b.n	1eaa <GetPT100STDfromUserWithTempDisplay+0x112>
    1e72:	4b1d      	ldr	r3, [pc, #116]	; (1ee8 <GetPT100STDfromUserWithTempDisplay+0x150>)
    1e74:	781b      	ldrb	r3, [r3, #0]
    1e76:	2b00      	cmp	r3, #0
    1e78:	d115      	bne.n	1ea6 <GetPT100STDfromUserWithTempDisplay+0x10e>
    1e7a:	9903      	ldr	r1, [sp, #12]
    1e7c:	9804      	ldr	r0, [sp, #16]
    1e7e:	4f0f      	ldr	r7, [pc, #60]	; (1ebc <GetPT100STDfromUserWithTempDisplay+0x124>)
    1e80:	47b8      	blx	r7
    1e82:	ae06      	add	r6, sp, #24
    1e84:	b263      	sxtb	r3, r4
    1e86:	5cf0      	ldrb	r0, [r6, r3]
    1e88:	4b18      	ldr	r3, [pc, #96]	; (1eec <GetPT100STDfromUserWithTempDisplay+0x154>)
    1e8a:	4798      	blx	r3
    1e8c:	1c30      	adds	r0, r6, #0
    1e8e:	2105      	movs	r1, #5
    1e90:	4b14      	ldr	r3, [pc, #80]	; (1ee4 <GetPT100STDfromUserWithTempDisplay+0x14c>)
    1e92:	4798      	blx	r3
    1e94:	9905      	ldr	r1, [sp, #20]
    1e96:	b280      	uxth	r0, r0
    1e98:	1c2a      	adds	r2, r5, #0
    1e9a:	4b15      	ldr	r3, [pc, #84]	; (1ef0 <GetPT100STDfromUserWithTempDisplay+0x158>)
    1e9c:	4798      	blx	r3
    1e9e:	9804      	ldr	r0, [sp, #16]
    1ea0:	9903      	ldr	r1, [sp, #12]
    1ea2:	47b8      	blx	r7
    1ea4:	e796      	b.n	1dd4 <GetPT100STDfromUserWithTempDisplay+0x3c>
    1ea6:	2001      	movs	r0, #1
    1ea8:	4240      	negs	r0, r0
    1eaa:	b009      	add	sp, #36	; 0x24
    1eac:	bdf0      	pop	{r4, r5, r6, r7, pc}
    1eae:	46c0      	nop			; (mov r8, r8)
    1eb0:	00000aa9 	.word	0x00000aa9
    1eb4:	00000a71 	.word	0x00000a71
    1eb8:	00002721 	.word	0x00002721
    1ebc:	00002609 	.word	0x00002609
    1ec0:	0000067d 	.word	0x0000067d
    1ec4:	0000048d 	.word	0x0000048d
    1ec8:	000004c5 	.word	0x000004c5
    1ecc:	200000c0 	.word	0x200000c0
    1ed0:	00000a59 	.word	0x00000a59
    1ed4:	200000c1 	.word	0x200000c1
    1ed8:	200000bc 	.word	0x200000bc
    1edc:	200000be 	.word	0x200000be
    1ee0:	200000bf 	.word	0x200000bf
    1ee4:	00000b6d 	.word	0x00000b6d
    1ee8:	200000bd 	.word	0x200000bd
    1eec:	000025c5 	.word	0x000025c5
    1ef0:	00001ce9 	.word	0x00001ce9

00001ef4 <CalEdit_AmbTemp>:
    1ef4:	b5f7      	push	{r0, r1, r2, r4, r5, r6, r7, lr}
    1ef6:	4c17      	ldr	r4, [pc, #92]	; (1f54 <CalEdit_AmbTemp+0x60>)
    1ef8:	4b17      	ldr	r3, [pc, #92]	; (1f58 <CalEdit_AmbTemp+0x64>)
    1efa:	1c20      	adds	r0, r4, #0
    1efc:	2505      	movs	r5, #5
    1efe:	4798      	blx	r3
    1f00:	6860      	ldr	r0, [r4, #4]
    1f02:	2302      	movs	r3, #2
    1f04:	9500      	str	r5, [sp, #0]
    1f06:	2100      	movs	r1, #0
    1f08:	1c2a      	adds	r2, r5, #0
    1f0a:	4f14      	ldr	r7, [pc, #80]	; (1f5c <CalEdit_AmbTemp+0x68>)
    1f0c:	47b8      	blx	r7
    1f0e:	1c43      	adds	r3, r0, #1
    1f10:	d01f      	beq.n	1f52 <CalEdit_AmbTemp+0x5e>
    1f12:	6060      	str	r0, [r4, #4]
    1f14:	8920      	ldrh	r0, [r4, #8]
    1f16:	2103      	movs	r1, #3
    1f18:	b280      	uxth	r0, r0
    1f1a:	1c2a      	adds	r2, r5, #0
    1f1c:	4e10      	ldr	r6, [pc, #64]	; (1f60 <CalEdit_AmbTemp+0x6c>)
    1f1e:	47b0      	blx	r6
    1f20:	1c43      	adds	r3, r0, #1
    1f22:	d016      	beq.n	1f52 <CalEdit_AmbTemp+0x5e>
    1f24:	b280      	uxth	r0, r0
    1f26:	8120      	strh	r0, [r4, #8]
    1f28:	8960      	ldrh	r0, [r4, #10]
    1f2a:	230f      	movs	r3, #15
    1f2c:	9300      	str	r3, [sp, #0]
    1f2e:	b280      	uxth	r0, r0
    1f30:	2302      	movs	r3, #2
    1f32:	2100      	movs	r1, #0
    1f34:	1c2a      	adds	r2, r5, #0
    1f36:	47b8      	blx	r7
    1f38:	1c43      	adds	r3, r0, #1
    1f3a:	d00a      	beq.n	1f52 <CalEdit_AmbTemp+0x5e>
    1f3c:	b280      	uxth	r0, r0
    1f3e:	8160      	strh	r0, [r4, #10]
    1f40:	89a0      	ldrh	r0, [r4, #12]
    1f42:	2103      	movs	r1, #3
    1f44:	b280      	uxth	r0, r0
    1f46:	220e      	movs	r2, #14
    1f48:	47b0      	blx	r6
    1f4a:	1c43      	adds	r3, r0, #1
    1f4c:	d001      	beq.n	1f52 <CalEdit_AmbTemp+0x5e>
    1f4e:	b280      	uxth	r0, r0
    1f50:	81a0      	strh	r0, [r4, #12]
    1f52:	bdf7      	pop	{r0, r1, r2, r4, r5, r6, r7, pc}
    1f54:	200000e4 	.word	0x200000e4
    1f58:	00001d35 	.word	0x00001d35
    1f5c:	00000bf1 	.word	0x00000bf1
    1f60:	00001d99 	.word	0x00001d99

00001f64 <Calibrate_AmbTemp>:
    1f64:	b5f0      	push	{r4, r5, r6, r7, lr}
    1f66:	b085      	sub	sp, #20
    1f68:	4827      	ldr	r0, [pc, #156]	; (2008 <Calibrate_AmbTemp+0xa4>)
    1f6a:	4928      	ldr	r1, [pc, #160]	; (200c <Calibrate_AmbTemp+0xa8>)
    1f6c:	4a28      	ldr	r2, [pc, #160]	; (2010 <Calibrate_AmbTemp+0xac>)
    1f6e:	4b29      	ldr	r3, [pc, #164]	; (2014 <Calibrate_AmbTemp+0xb0>)
    1f70:	4e29      	ldr	r6, [pc, #164]	; (2018 <Calibrate_AmbTemp+0xb4>)
    1f72:	47b0      	blx	r6
    1f74:	2308      	movs	r3, #8
    1f76:	2404      	movs	r4, #4
    1f78:	9300      	str	r3, [sp, #0]
    1f7a:	2001      	movs	r0, #1
    1f7c:	230e      	movs	r3, #14
    1f7e:	9302      	str	r3, [sp, #8]
    1f80:	1c21      	adds	r1, r4, #0
    1f82:	1c02      	adds	r2, r0, #0
    1f84:	1c23      	adds	r3, r4, #0
    1f86:	4d25      	ldr	r5, [pc, #148]	; (201c <Calibrate_AmbTemp+0xb8>)
    1f88:	9401      	str	r4, [sp, #4]
    1f8a:	47a8      	blx	r5
    1f8c:	b2c7      	uxtb	r7, r0
    1f8e:	4b24      	ldr	r3, [pc, #144]	; (2020 <Calibrate_AmbTemp+0xbc>)
    1f90:	b27d      	sxtb	r5, r7
    1f92:	4798      	blx	r3
    1f94:	2d01      	cmp	r5, #1
    1f96:	d114      	bne.n	1fc2 <Calibrate_AmbTemp+0x5e>
    1f98:	4a22      	ldr	r2, [pc, #136]	; (2024 <Calibrate_AmbTemp+0xc0>)
    1f9a:	4923      	ldr	r1, [pc, #140]	; (2028 <Calibrate_AmbTemp+0xc4>)
    1f9c:	4823      	ldr	r0, [pc, #140]	; (202c <Calibrate_AmbTemp+0xc8>)
    1f9e:	4b24      	ldr	r3, [pc, #144]	; (2030 <Calibrate_AmbTemp+0xcc>)
    1fa0:	47b0      	blx	r6
    1fa2:	4b24      	ldr	r3, [pc, #144]	; (2034 <Calibrate_AmbTemp+0xd0>)
    1fa4:	4824      	ldr	r0, [pc, #144]	; (2038 <Calibrate_AmbTemp+0xd4>)
    1fa6:	4798      	blx	r3
    1fa8:	1c20      	adds	r0, r4, #0
    1faa:	2113      	movs	r1, #19
    1fac:	4e23      	ldr	r6, [pc, #140]	; (203c <Calibrate_AmbTemp+0xd8>)
    1fae:	47b0      	blx	r6
    1fb0:	2002      	movs	r0, #2
    1fb2:	4d23      	ldr	r5, [pc, #140]	; (2040 <Calibrate_AmbTemp+0xdc>)
    1fb4:	47a8      	blx	r5
    1fb6:	1c20      	adds	r0, r4, #0
    1fb8:	210a      	movs	r1, #10
    1fba:	47b0      	blx	r6
    1fbc:	2002      	movs	r0, #2
    1fbe:	47a8      	blx	r5
    1fc0:	e01b      	b.n	1ffa <Calibrate_AmbTemp+0x96>
    1fc2:	2d02      	cmp	r5, #2
    1fc4:	d113      	bne.n	1fee <Calibrate_AmbTemp+0x8a>
    1fc6:	4a17      	ldr	r2, [pc, #92]	; (2024 <Calibrate_AmbTemp+0xc0>)
    1fc8:	4b19      	ldr	r3, [pc, #100]	; (2030 <Calibrate_AmbTemp+0xcc>)
    1fca:	481e      	ldr	r0, [pc, #120]	; (2044 <Calibrate_AmbTemp+0xe0>)
    1fcc:	4916      	ldr	r1, [pc, #88]	; (2028 <Calibrate_AmbTemp+0xc4>)
    1fce:	47b0      	blx	r6
    1fd0:	1c20      	adds	r0, r4, #0
    1fd2:	2113      	movs	r1, #19
    1fd4:	4f19      	ldr	r7, [pc, #100]	; (203c <Calibrate_AmbTemp+0xd8>)
    1fd6:	47b8      	blx	r7
    1fd8:	1c28      	adds	r0, r5, #0
    1fda:	4e19      	ldr	r6, [pc, #100]	; (2040 <Calibrate_AmbTemp+0xdc>)
    1fdc:	47b0      	blx	r6
    1fde:	1c20      	adds	r0, r4, #0
    1fe0:	210a      	movs	r1, #10
    1fe2:	47b8      	blx	r7
    1fe4:	1c28      	adds	r0, r5, #0
    1fe6:	47b0      	blx	r6
    1fe8:	4b17      	ldr	r3, [pc, #92]	; (2048 <Calibrate_AmbTemp+0xe4>)
    1fea:	4798      	blx	r3
    1fec:	e7bc      	b.n	1f68 <Calibrate_AmbTemp+0x4>
    1fee:	2d03      	cmp	r5, #3
    1ff0:	d106      	bne.n	2000 <Calibrate_AmbTemp+0x9c>
    1ff2:	2002      	movs	r0, #2
    1ff4:	4915      	ldr	r1, [pc, #84]	; (204c <Calibrate_AmbTemp+0xe8>)
    1ff6:	4b16      	ldr	r3, [pc, #88]	; (2050 <Calibrate_AmbTemp+0xec>)
    1ff8:	4798      	blx	r3
    1ffa:	4b16      	ldr	r3, [pc, #88]	; (2054 <Calibrate_AmbTemp+0xf0>)
    1ffc:	4798      	blx	r3
    1ffe:	e7b3      	b.n	1f68 <Calibrate_AmbTemp+0x4>
    2000:	2f00      	cmp	r7, #0
    2002:	d1b1      	bne.n	1f68 <Calibrate_AmbTemp+0x4>
    2004:	b005      	add	sp, #20
    2006:	bdf0      	pop	{r4, r5, r6, r7, pc}
    2008:	000064fd 	.word	0x000064fd
    200c:	00006512 	.word	0x00006512
    2010:	00006527 	.word	0x00006527
    2014:	000062c6 	.word	0x000062c6
    2018:	00002659 	.word	0x00002659
    201c:	00002e35 	.word	0x00002e35
    2020:	0000067d 	.word	0x0000067d
    2024:	00006566 	.word	0x00006566
    2028:	00006551 	.word	0x00006551
    202c:	0000653c 	.word	0x0000653c
    2030:	0000657b 	.word	0x0000657b
    2034:	00001d35 	.word	0x00001d35
    2038:	200000e4 	.word	0x200000e4
    203c:	00002609 	.word	0x00002609
    2040:	00002579 	.word	0x00002579
    2044:	00006590 	.word	0x00006590
    2048:	00001ef5 	.word	0x00001ef5
    204c:	00006359 	.word	0x00006359
    2050:	00002635 	.word	0x00002635
    2054:	000006bd 	.word	0x000006bd

00002058 <CalEdit_OrificeTemp>:
    2058:	b5f7      	push	{r0, r1, r2, r4, r5, r6, r7, lr}
    205a:	4c17      	ldr	r4, [pc, #92]	; (20b8 <CalEdit_OrificeTemp+0x60>)
    205c:	4b17      	ldr	r3, [pc, #92]	; (20bc <CalEdit_OrificeTemp+0x64>)
    205e:	1c20      	adds	r0, r4, #0
    2060:	2505      	movs	r5, #5
    2062:	4798      	blx	r3
    2064:	6860      	ldr	r0, [r4, #4]
    2066:	2302      	movs	r3, #2
    2068:	9500      	str	r5, [sp, #0]
    206a:	2100      	movs	r1, #0
    206c:	1c2a      	adds	r2, r5, #0
    206e:	4f14      	ldr	r7, [pc, #80]	; (20c0 <CalEdit_OrificeTemp+0x68>)
    2070:	47b8      	blx	r7
    2072:	1c43      	adds	r3, r0, #1
    2074:	d01f      	beq.n	20b6 <CalEdit_OrificeTemp+0x5e>
    2076:	6060      	str	r0, [r4, #4]
    2078:	8920      	ldrh	r0, [r4, #8]
    207a:	2103      	movs	r1, #3
    207c:	b280      	uxth	r0, r0
    207e:	1c2a      	adds	r2, r5, #0
    2080:	4e10      	ldr	r6, [pc, #64]	; (20c4 <CalEdit_OrificeTemp+0x6c>)
    2082:	47b0      	blx	r6
    2084:	1c43      	adds	r3, r0, #1
    2086:	d016      	beq.n	20b6 <CalEdit_OrificeTemp+0x5e>
    2088:	b280      	uxth	r0, r0
    208a:	8120      	strh	r0, [r4, #8]
    208c:	8960      	ldrh	r0, [r4, #10]
    208e:	230f      	movs	r3, #15
    2090:	9300      	str	r3, [sp, #0]
    2092:	b280      	uxth	r0, r0
    2094:	2302      	movs	r3, #2
    2096:	2100      	movs	r1, #0
    2098:	1c2a      	adds	r2, r5, #0
    209a:	47b8      	blx	r7
    209c:	1c43      	adds	r3, r0, #1
    209e:	d00a      	beq.n	20b6 <CalEdit_OrificeTemp+0x5e>
    20a0:	b280      	uxth	r0, r0
    20a2:	8160      	strh	r0, [r4, #10]
    20a4:	89a0      	ldrh	r0, [r4, #12]
    20a6:	2103      	movs	r1, #3
    20a8:	b280      	uxth	r0, r0
    20aa:	220e      	movs	r2, #14
    20ac:	47b0      	blx	r6
    20ae:	1c43      	adds	r3, r0, #1
    20b0:	d001      	beq.n	20b6 <CalEdit_OrificeTemp+0x5e>
    20b2:	b280      	uxth	r0, r0
    20b4:	81a0      	strh	r0, [r4, #12]
    20b6:	bdf7      	pop	{r0, r1, r2, r4, r5, r6, r7, pc}
    20b8:	200000c8 	.word	0x200000c8
    20bc:	00001d35 	.word	0x00001d35
    20c0:	00000bf1 	.word	0x00000bf1
    20c4:	00001d99 	.word	0x00001d99

000020c8 <Calibrate_OrifTemp>:
    20c8:	b5f0      	push	{r4, r5, r6, r7, lr}
    20ca:	b085      	sub	sp, #20
    20cc:	4827      	ldr	r0, [pc, #156]	; (216c <Calibrate_OrifTemp+0xa4>)
    20ce:	4928      	ldr	r1, [pc, #160]	; (2170 <Calibrate_OrifTemp+0xa8>)
    20d0:	4a28      	ldr	r2, [pc, #160]	; (2174 <Calibrate_OrifTemp+0xac>)
    20d2:	4b29      	ldr	r3, [pc, #164]	; (2178 <Calibrate_OrifTemp+0xb0>)
    20d4:	4e29      	ldr	r6, [pc, #164]	; (217c <Calibrate_OrifTemp+0xb4>)
    20d6:	47b0      	blx	r6
    20d8:	2308      	movs	r3, #8
    20da:	2404      	movs	r4, #4
    20dc:	9300      	str	r3, [sp, #0]
    20de:	2001      	movs	r0, #1
    20e0:	230e      	movs	r3, #14
    20e2:	9302      	str	r3, [sp, #8]
    20e4:	1c21      	adds	r1, r4, #0
    20e6:	1c02      	adds	r2, r0, #0
    20e8:	1c23      	adds	r3, r4, #0
    20ea:	4d25      	ldr	r5, [pc, #148]	; (2180 <Calibrate_OrifTemp+0xb8>)
    20ec:	9401      	str	r4, [sp, #4]
    20ee:	47a8      	blx	r5
    20f0:	b2c7      	uxtb	r7, r0
    20f2:	4b24      	ldr	r3, [pc, #144]	; (2184 <Calibrate_OrifTemp+0xbc>)
    20f4:	b27d      	sxtb	r5, r7
    20f6:	4798      	blx	r3
    20f8:	2d01      	cmp	r5, #1
    20fa:	d114      	bne.n	2126 <Calibrate_OrifTemp+0x5e>
    20fc:	4a22      	ldr	r2, [pc, #136]	; (2188 <Calibrate_OrifTemp+0xc0>)
    20fe:	4923      	ldr	r1, [pc, #140]	; (218c <Calibrate_OrifTemp+0xc4>)
    2100:	4823      	ldr	r0, [pc, #140]	; (2190 <Calibrate_OrifTemp+0xc8>)
    2102:	4b24      	ldr	r3, [pc, #144]	; (2194 <Calibrate_OrifTemp+0xcc>)
    2104:	47b0      	blx	r6
    2106:	4b24      	ldr	r3, [pc, #144]	; (2198 <Calibrate_OrifTemp+0xd0>)
    2108:	4824      	ldr	r0, [pc, #144]	; (219c <Calibrate_OrifTemp+0xd4>)
    210a:	4798      	blx	r3
    210c:	1c20      	adds	r0, r4, #0
    210e:	2113      	movs	r1, #19
    2110:	4e23      	ldr	r6, [pc, #140]	; (21a0 <Calibrate_OrifTemp+0xd8>)
    2112:	47b0      	blx	r6
    2114:	2002      	movs	r0, #2
    2116:	4d23      	ldr	r5, [pc, #140]	; (21a4 <Calibrate_OrifTemp+0xdc>)
    2118:	47a8      	blx	r5
    211a:	1c20      	adds	r0, r4, #0
    211c:	210a      	movs	r1, #10
    211e:	47b0      	blx	r6
    2120:	2002      	movs	r0, #2
    2122:	47a8      	blx	r5
    2124:	e01b      	b.n	215e <Calibrate_OrifTemp+0x96>
    2126:	2d02      	cmp	r5, #2
    2128:	d113      	bne.n	2152 <Calibrate_OrifTemp+0x8a>
    212a:	4a17      	ldr	r2, [pc, #92]	; (2188 <Calibrate_OrifTemp+0xc0>)
    212c:	4b19      	ldr	r3, [pc, #100]	; (2194 <Calibrate_OrifTemp+0xcc>)
    212e:	481e      	ldr	r0, [pc, #120]	; (21a8 <Calibrate_OrifTemp+0xe0>)
    2130:	4916      	ldr	r1, [pc, #88]	; (218c <Calibrate_OrifTemp+0xc4>)
    2132:	47b0      	blx	r6
    2134:	1c20      	adds	r0, r4, #0
    2136:	2113      	movs	r1, #19
    2138:	4f19      	ldr	r7, [pc, #100]	; (21a0 <Calibrate_OrifTemp+0xd8>)
    213a:	47b8      	blx	r7
    213c:	1c28      	adds	r0, r5, #0
    213e:	4e19      	ldr	r6, [pc, #100]	; (21a4 <Calibrate_OrifTemp+0xdc>)
    2140:	47b0      	blx	r6
    2142:	1c20      	adds	r0, r4, #0
    2144:	210a      	movs	r1, #10
    2146:	47b8      	blx	r7
    2148:	1c28      	adds	r0, r5, #0
    214a:	47b0      	blx	r6
    214c:	4b17      	ldr	r3, [pc, #92]	; (21ac <Calibrate_OrifTemp+0xe4>)
    214e:	4798      	blx	r3
    2150:	e7bc      	b.n	20cc <Calibrate_OrifTemp+0x4>
    2152:	2d03      	cmp	r5, #3
    2154:	d106      	bne.n	2164 <Calibrate_OrifTemp+0x9c>
    2156:	2002      	movs	r0, #2
    2158:	4915      	ldr	r1, [pc, #84]	; (21b0 <Calibrate_OrifTemp+0xe8>)
    215a:	4b16      	ldr	r3, [pc, #88]	; (21b4 <Calibrate_OrifTemp+0xec>)
    215c:	4798      	blx	r3
    215e:	4b16      	ldr	r3, [pc, #88]	; (21b8 <Calibrate_OrifTemp+0xf0>)
    2160:	4798      	blx	r3
    2162:	e7b3      	b.n	20cc <Calibrate_OrifTemp+0x4>
    2164:	2f00      	cmp	r7, #0
    2166:	d1b1      	bne.n	20cc <Calibrate_OrifTemp+0x4>
    2168:	b005      	add	sp, #20
    216a:	bdf0      	pop	{r4, r5, r6, r7, pc}
    216c:	000065a5 	.word	0x000065a5
    2170:	00006512 	.word	0x00006512
    2174:	00006527 	.word	0x00006527
    2178:	000062c6 	.word	0x000062c6
    217c:	00002659 	.word	0x00002659
    2180:	00002e35 	.word	0x00002e35
    2184:	0000067d 	.word	0x0000067d
    2188:	00006566 	.word	0x00006566
    218c:	00006551 	.word	0x00006551
    2190:	000065ba 	.word	0x000065ba
    2194:	0000657b 	.word	0x0000657b
    2198:	00001d35 	.word	0x00001d35
    219c:	200000c8 	.word	0x200000c8
    21a0:	00002609 	.word	0x00002609
    21a4:	00002579 	.word	0x00002579
    21a8:	000065cf 	.word	0x000065cf
    21ac:	00002059 	.word	0x00002059
    21b0:	000065e4 	.word	0x000065e4
    21b4:	00002635 	.word	0x00002635
    21b8:	000006bd 	.word	0x000006bd

000021bc <CalEdit_AuxPT100>:
    21bc:	b5f7      	push	{r0, r1, r2, r4, r5, r6, r7, lr}
    21be:	4c17      	ldr	r4, [pc, #92]	; (221c <CalEdit_AuxPT100+0x60>)
    21c0:	4b17      	ldr	r3, [pc, #92]	; (2220 <CalEdit_AuxPT100+0x64>)
    21c2:	1c20      	adds	r0, r4, #0
    21c4:	2505      	movs	r5, #5
    21c6:	4798      	blx	r3
    21c8:	6860      	ldr	r0, [r4, #4]
    21ca:	2302      	movs	r3, #2
    21cc:	9500      	str	r5, [sp, #0]
    21ce:	2100      	movs	r1, #0
    21d0:	1c2a      	adds	r2, r5, #0
    21d2:	4f14      	ldr	r7, [pc, #80]	; (2224 <CalEdit_AuxPT100+0x68>)
    21d4:	47b8      	blx	r7
    21d6:	1c43      	adds	r3, r0, #1
    21d8:	d01f      	beq.n	221a <CalEdit_AuxPT100+0x5e>
    21da:	6060      	str	r0, [r4, #4]
    21dc:	8920      	ldrh	r0, [r4, #8]
    21de:	2103      	movs	r1, #3
    21e0:	b280      	uxth	r0, r0
    21e2:	1c2a      	adds	r2, r5, #0
    21e4:	4e10      	ldr	r6, [pc, #64]	; (2228 <CalEdit_AuxPT100+0x6c>)
    21e6:	47b0      	blx	r6
    21e8:	1c43      	adds	r3, r0, #1
    21ea:	d016      	beq.n	221a <CalEdit_AuxPT100+0x5e>
    21ec:	b280      	uxth	r0, r0
    21ee:	8120      	strh	r0, [r4, #8]
    21f0:	8960      	ldrh	r0, [r4, #10]
    21f2:	230f      	movs	r3, #15
    21f4:	9300      	str	r3, [sp, #0]
    21f6:	b280      	uxth	r0, r0
    21f8:	2302      	movs	r3, #2
    21fa:	2100      	movs	r1, #0
    21fc:	1c2a      	adds	r2, r5, #0
    21fe:	47b8      	blx	r7
    2200:	1c43      	adds	r3, r0, #1
    2202:	d00a      	beq.n	221a <CalEdit_AuxPT100+0x5e>
    2204:	b280      	uxth	r0, r0
    2206:	8160      	strh	r0, [r4, #10]
    2208:	89a0      	ldrh	r0, [r4, #12]
    220a:	2103      	movs	r1, #3
    220c:	b280      	uxth	r0, r0
    220e:	220e      	movs	r2, #14
    2210:	47b0      	blx	r6
    2212:	1c43      	adds	r3, r0, #1
    2214:	d001      	beq.n	221a <CalEdit_AuxPT100+0x5e>
    2216:	b280      	uxth	r0, r0
    2218:	81a0      	strh	r0, [r4, #12]
    221a:	bdf7      	pop	{r0, r1, r2, r4, r5, r6, r7, pc}
    221c:	2000011c 	.word	0x2000011c
    2220:	00001d35 	.word	0x00001d35
    2224:	00000bf1 	.word	0x00000bf1
    2228:	00001d99 	.word	0x00001d99

0000222c <Calibrate_AuxTemp>:
    222c:	b5f0      	push	{r4, r5, r6, r7, lr}
    222e:	b085      	sub	sp, #20
    2230:	4827      	ldr	r0, [pc, #156]	; (22d0 <Calibrate_AuxTemp+0xa4>)
    2232:	4928      	ldr	r1, [pc, #160]	; (22d4 <Calibrate_AuxTemp+0xa8>)
    2234:	4a28      	ldr	r2, [pc, #160]	; (22d8 <Calibrate_AuxTemp+0xac>)
    2236:	4b29      	ldr	r3, [pc, #164]	; (22dc <Calibrate_AuxTemp+0xb0>)
    2238:	4e29      	ldr	r6, [pc, #164]	; (22e0 <Calibrate_AuxTemp+0xb4>)
    223a:	47b0      	blx	r6
    223c:	2308      	movs	r3, #8
    223e:	2404      	movs	r4, #4
    2240:	9300      	str	r3, [sp, #0]
    2242:	2001      	movs	r0, #1
    2244:	230e      	movs	r3, #14
    2246:	9302      	str	r3, [sp, #8]
    2248:	1c21      	adds	r1, r4, #0
    224a:	1c02      	adds	r2, r0, #0
    224c:	1c23      	adds	r3, r4, #0
    224e:	4d25      	ldr	r5, [pc, #148]	; (22e4 <Calibrate_AuxTemp+0xb8>)
    2250:	9401      	str	r4, [sp, #4]
    2252:	47a8      	blx	r5
    2254:	b2c7      	uxtb	r7, r0
    2256:	4b24      	ldr	r3, [pc, #144]	; (22e8 <Calibrate_AuxTemp+0xbc>)
    2258:	b27d      	sxtb	r5, r7
    225a:	4798      	blx	r3
    225c:	2d01      	cmp	r5, #1
    225e:	d114      	bne.n	228a <Calibrate_AuxTemp+0x5e>
    2260:	4a22      	ldr	r2, [pc, #136]	; (22ec <Calibrate_AuxTemp+0xc0>)
    2262:	4923      	ldr	r1, [pc, #140]	; (22f0 <Calibrate_AuxTemp+0xc4>)
    2264:	4823      	ldr	r0, [pc, #140]	; (22f4 <Calibrate_AuxTemp+0xc8>)
    2266:	4b24      	ldr	r3, [pc, #144]	; (22f8 <Calibrate_AuxTemp+0xcc>)
    2268:	47b0      	blx	r6
    226a:	4b24      	ldr	r3, [pc, #144]	; (22fc <Calibrate_AuxTemp+0xd0>)
    226c:	4824      	ldr	r0, [pc, #144]	; (2300 <Calibrate_AuxTemp+0xd4>)
    226e:	4798      	blx	r3
    2270:	1c20      	adds	r0, r4, #0
    2272:	2113      	movs	r1, #19
    2274:	4e23      	ldr	r6, [pc, #140]	; (2304 <Calibrate_AuxTemp+0xd8>)
    2276:	47b0      	blx	r6
    2278:	2002      	movs	r0, #2
    227a:	4d23      	ldr	r5, [pc, #140]	; (2308 <Calibrate_AuxTemp+0xdc>)
    227c:	47a8      	blx	r5
    227e:	1c20      	adds	r0, r4, #0
    2280:	210a      	movs	r1, #10
    2282:	47b0      	blx	r6
    2284:	2002      	movs	r0, #2
    2286:	47a8      	blx	r5
    2288:	e01b      	b.n	22c2 <Calibrate_AuxTemp+0x96>
    228a:	2d02      	cmp	r5, #2
    228c:	d113      	bne.n	22b6 <Calibrate_AuxTemp+0x8a>
    228e:	4a17      	ldr	r2, [pc, #92]	; (22ec <Calibrate_AuxTemp+0xc0>)
    2290:	4b19      	ldr	r3, [pc, #100]	; (22f8 <Calibrate_AuxTemp+0xcc>)
    2292:	481e      	ldr	r0, [pc, #120]	; (230c <Calibrate_AuxTemp+0xe0>)
    2294:	4916      	ldr	r1, [pc, #88]	; (22f0 <Calibrate_AuxTemp+0xc4>)
    2296:	47b0      	blx	r6
    2298:	1c20      	adds	r0, r4, #0
    229a:	2113      	movs	r1, #19
    229c:	4f19      	ldr	r7, [pc, #100]	; (2304 <Calibrate_AuxTemp+0xd8>)
    229e:	47b8      	blx	r7
    22a0:	1c28      	adds	r0, r5, #0
    22a2:	4e19      	ldr	r6, [pc, #100]	; (2308 <Calibrate_AuxTemp+0xdc>)
    22a4:	47b0      	blx	r6
    22a6:	1c20      	adds	r0, r4, #0
    22a8:	210a      	movs	r1, #10
    22aa:	47b8      	blx	r7
    22ac:	1c28      	adds	r0, r5, #0
    22ae:	47b0      	blx	r6
    22b0:	4b17      	ldr	r3, [pc, #92]	; (2310 <Calibrate_AuxTemp+0xe4>)
    22b2:	4798      	blx	r3
    22b4:	e7bc      	b.n	2230 <Calibrate_AuxTemp+0x4>
    22b6:	2d03      	cmp	r5, #3
    22b8:	d106      	bne.n	22c8 <Calibrate_AuxTemp+0x9c>
    22ba:	2002      	movs	r0, #2
    22bc:	4915      	ldr	r1, [pc, #84]	; (2314 <Calibrate_AuxTemp+0xe8>)
    22be:	4b16      	ldr	r3, [pc, #88]	; (2318 <Calibrate_AuxTemp+0xec>)
    22c0:	4798      	blx	r3
    22c2:	4b16      	ldr	r3, [pc, #88]	; (231c <Calibrate_AuxTemp+0xf0>)
    22c4:	4798      	blx	r3
    22c6:	e7b3      	b.n	2230 <Calibrate_AuxTemp+0x4>
    22c8:	2f00      	cmp	r7, #0
    22ca:	d1b1      	bne.n	2230 <Calibrate_AuxTemp+0x4>
    22cc:	b005      	add	sp, #20
    22ce:	bdf0      	pop	{r4, r5, r6, r7, pc}
    22d0:	000065f9 	.word	0x000065f9
    22d4:	00006512 	.word	0x00006512
    22d8:	00006527 	.word	0x00006527
    22dc:	000062c6 	.word	0x000062c6
    22e0:	00002659 	.word	0x00002659
    22e4:	00002e35 	.word	0x00002e35
    22e8:	0000067d 	.word	0x0000067d
    22ec:	00006566 	.word	0x00006566
    22f0:	00006551 	.word	0x00006551
    22f4:	0000660e 	.word	0x0000660e
    22f8:	0000657b 	.word	0x0000657b
    22fc:	00001d35 	.word	0x00001d35
    2300:	2000011c 	.word	0x2000011c
    2304:	00002609 	.word	0x00002609
    2308:	00002579 	.word	0x00002579
    230c:	00006623 	.word	0x00006623
    2310:	000021bd 	.word	0x000021bd
    2314:	000065e4 	.word	0x000065e4
    2318:	00002635 	.word	0x00002635
    231c:	000006bd 	.word	0x000006bd

00002320 <DoCalibration>:
    2320:	b510      	push	{r4, lr}
    2322:	4b15      	ldr	r3, [pc, #84]	; (2378 <DoCalibration+0x58>)
    2324:	4798      	blx	r3
    2326:	200a      	movs	r0, #10
    2328:	4914      	ldr	r1, [pc, #80]	; (237c <DoCalibration+0x5c>)
    232a:	4b15      	ldr	r3, [pc, #84]	; (2380 <DoCalibration+0x60>)
    232c:	4798      	blx	r3
    232e:	b2c4      	uxtb	r4, r0
    2330:	b260      	sxtb	r0, r4
    2332:	280a      	cmp	r0, #10
    2334:	d818      	bhi.n	2368 <DoCalibration+0x48>
    2336:	f001 f923 	bl	3580 <__gnu_thumb1_case_uqi>
    233a:	061b      	.short	0x061b
    233c:	0e0c0a08 	.word	0x0e0c0a08
    2340:	1b141210 	.word	0x1b141210
    2344:	1b          	.byte	0x1b
    2345:	00          	.byte	0x00
    2346:	4b0f      	ldr	r3, [pc, #60]	; (2384 <DoCalibration+0x64>)
    2348:	e00c      	b.n	2364 <DoCalibration+0x44>
    234a:	4b0f      	ldr	r3, [pc, #60]	; (2388 <DoCalibration+0x68>)
    234c:	e00a      	b.n	2364 <DoCalibration+0x44>
    234e:	4b0f      	ldr	r3, [pc, #60]	; (238c <DoCalibration+0x6c>)
    2350:	e008      	b.n	2364 <DoCalibration+0x44>
    2352:	4b0f      	ldr	r3, [pc, #60]	; (2390 <DoCalibration+0x70>)
    2354:	e006      	b.n	2364 <DoCalibration+0x44>
    2356:	4b0f      	ldr	r3, [pc, #60]	; (2394 <DoCalibration+0x74>)
    2358:	e004      	b.n	2364 <DoCalibration+0x44>
    235a:	4b0f      	ldr	r3, [pc, #60]	; (2398 <DoCalibration+0x78>)
    235c:	e002      	b.n	2364 <DoCalibration+0x44>
    235e:	4b0f      	ldr	r3, [pc, #60]	; (239c <DoCalibration+0x7c>)
    2360:	e000      	b.n	2364 <DoCalibration+0x44>
    2362:	4b0f      	ldr	r3, [pc, #60]	; (23a0 <DoCalibration+0x80>)
    2364:	4798      	blx	r3
    2366:	e7de      	b.n	2326 <DoCalibration+0x6>
    2368:	2002      	movs	r0, #2
    236a:	490e      	ldr	r1, [pc, #56]	; (23a4 <DoCalibration+0x84>)
    236c:	4b0e      	ldr	r3, [pc, #56]	; (23a8 <DoCalibration+0x88>)
    236e:	4798      	blx	r3
    2370:	2c00      	cmp	r4, #0
    2372:	d1d8      	bne.n	2326 <DoCalibration+0x6>
    2374:	bd10      	pop	{r4, pc}
    2376:	46c0      	nop			; (mov r8, r8)
    2378:	00002731 	.word	0x00002731
    237c:	000061d4 	.word	0x000061d4
    2380:	00002cf5 	.word	0x00002cf5
    2384:	000015ed 	.word	0x000015ed
    2388:	00001729 	.word	0x00001729
    238c:	0000183d 	.word	0x0000183d
    2390:	00001955 	.word	0x00001955
    2394:	00001bf5 	.word	0x00001bf5
    2398:	00001f65 	.word	0x00001f65
    239c:	000020c9 	.word	0x000020c9
    23a0:	0000222d 	.word	0x0000222d
    23a4:	00006638 	.word	0x00006638
    23a8:	00002635 	.word	0x00002635

000023ac <CalibrationModeChk>:
    23ac:	b5f7      	push	{r0, r1, r2, r4, r5, r6, r7, lr}
    23ae:	4b26      	ldr	r3, [pc, #152]	; (2448 <CalibrationModeChk+0x9c>)
    23b0:	4798      	blx	r3
    23b2:	2800      	cmp	r0, #0
    23b4:	d047      	beq.n	2446 <CalibrationModeChk+0x9a>
    23b6:	4b25      	ldr	r3, [pc, #148]	; (244c <CalibrationModeChk+0xa0>)
    23b8:	4798      	blx	r3
    23ba:	4f25      	ldr	r7, [pc, #148]	; (2450 <CalibrationModeChk+0xa4>)
    23bc:	783b      	ldrb	r3, [r7, #0]
    23be:	2b00      	cmp	r3, #0
    23c0:	d041      	beq.n	2446 <CalibrationModeChk+0x9a>
    23c2:	4b24      	ldr	r3, [pc, #144]	; (2454 <CalibrationModeChk+0xa8>)
    23c4:	781b      	ldrb	r3, [r3, #0]
    23c6:	2b00      	cmp	r3, #0
    23c8:	d03d      	beq.n	2446 <CalibrationModeChk+0x9a>
    23ca:	4b23      	ldr	r3, [pc, #140]	; (2458 <CalibrationModeChk+0xac>)
    23cc:	781b      	ldrb	r3, [r3, #0]
    23ce:	2b00      	cmp	r3, #0
    23d0:	d139      	bne.n	2446 <CalibrationModeChk+0x9a>
    23d2:	4b22      	ldr	r3, [pc, #136]	; (245c <CalibrationModeChk+0xb0>)
    23d4:	781b      	ldrb	r3, [r3, #0]
    23d6:	2b00      	cmp	r3, #0
    23d8:	d135      	bne.n	2446 <CalibrationModeChk+0x9a>
    23da:	4c21      	ldr	r4, [pc, #132]	; (2460 <CalibrationModeChk+0xb4>)
    23dc:	7823      	ldrb	r3, [r4, #0]
    23de:	2b00      	cmp	r3, #0
    23e0:	d131      	bne.n	2446 <CalibrationModeChk+0x9a>
    23e2:	4b20      	ldr	r3, [pc, #128]	; (2464 <CalibrationModeChk+0xb8>)
    23e4:	781b      	ldrb	r3, [r3, #0]
    23e6:	2b00      	cmp	r3, #0
    23e8:	d12d      	bne.n	2446 <CalibrationModeChk+0x9a>
    23ea:	4b1f      	ldr	r3, [pc, #124]	; (2468 <CalibrationModeChk+0xbc>)
    23ec:	4798      	blx	r3
    23ee:	4e1f      	ldr	r6, [pc, #124]	; (246c <CalibrationModeChk+0xc0>)
    23f0:	2001      	movs	r0, #1
    23f2:	1c31      	adds	r1, r6, #0
    23f4:	4d1e      	ldr	r5, [pc, #120]	; (2470 <CalibrationModeChk+0xc4>)
    23f6:	47a8      	blx	r5
    23f8:	4b1e      	ldr	r3, [pc, #120]	; (2474 <CalibrationModeChk+0xc8>)
    23fa:	4798      	blx	r3
    23fc:	783b      	ldrb	r3, [r7, #0]
    23fe:	2b00      	cmp	r3, #0
    2400:	d1fa      	bne.n	23f8 <CalibrationModeChk+0x4c>
    2402:	7823      	ldrb	r3, [r4, #0]
    2404:	2b00      	cmp	r3, #0
    2406:	d1f7      	bne.n	23f8 <CalibrationModeChk+0x4c>
    2408:	4c1b      	ldr	r4, [pc, #108]	; (2478 <CalibrationModeChk+0xcc>)
    240a:	1c30      	adds	r0, r6, #0
    240c:	491b      	ldr	r1, [pc, #108]	; (247c <CalibrationModeChk+0xd0>)
    240e:	1c22      	adds	r2, r4, #0
    2410:	1c23      	adds	r3, r4, #0
    2412:	4f1b      	ldr	r7, [pc, #108]	; (2480 <CalibrationModeChk+0xd4>)
    2414:	47b8      	blx	r7
    2416:	2308      	movs	r3, #8
    2418:	2000      	movs	r0, #0
    241a:	9300      	str	r3, [sp, #0]
    241c:	1c01      	adds	r1, r0, #0
    241e:	2303      	movs	r3, #3
    2420:	2207      	movs	r2, #7
    2422:	4f18      	ldr	r7, [pc, #96]	; (2484 <CalibrationModeChk+0xd8>)
    2424:	47b8      	blx	r7
    2426:	1c43      	adds	r3, r0, #1
    2428:	d00d      	beq.n	2446 <CalibrationModeChk+0x9a>
    242a:	2800      	cmp	r0, #0
    242c:	d009      	beq.n	2442 <CalibrationModeChk+0x96>
    242e:	4916      	ldr	r1, [pc, #88]	; (2488 <CalibrationModeChk+0xdc>)
    2430:	2004      	movs	r0, #4
    2432:	47a8      	blx	r5
    2434:	2001      	movs	r0, #1
    2436:	4b15      	ldr	r3, [pc, #84]	; (248c <CalibrationModeChk+0xe0>)
    2438:	4798      	blx	r3
    243a:	2004      	movs	r0, #4
    243c:	1c21      	adds	r1, r4, #0
    243e:	47a8      	blx	r5
    2440:	e7e2      	b.n	2408 <CalibrationModeChk+0x5c>
    2442:	4b13      	ldr	r3, [pc, #76]	; (2490 <CalibrationModeChk+0xe4>)
    2444:	4798      	blx	r3
    2446:	bdf7      	pop	{r0, r1, r2, r4, r5, r6, r7, pc}
    2448:	0000048d 	.word	0x0000048d
    244c:	000005a9 	.word	0x000005a9
    2450:	200000bd 	.word	0x200000bd
    2454:	200000c0 	.word	0x200000c0
    2458:	200000be 	.word	0x200000be
    245c:	200000c1 	.word	0x200000c1
    2460:	200000bc 	.word	0x200000bc
    2464:	200000bf 	.word	0x200000bf
    2468:	00002741 	.word	0x00002741
    246c:	0000664b 	.word	0x0000664b
    2470:	00002635 	.word	0x00002635
    2474:	000004c5 	.word	0x000004c5
    2478:	000062db 	.word	0x000062db
    247c:	00006660 	.word	0x00006660
    2480:	00002659 	.word	0x00002659
    2484:	00000bf1 	.word	0x00000bf1
    2488:	00006675 	.word	0x00006675
    248c:	00002ba9 	.word	0x00002ba9
    2490:	00002321 	.word	0x00002321

00002494 <PulseLCD_EN>:
    2494:	b510      	push	{r4, lr}
    2496:	4b05      	ldr	r3, [pc, #20]	; (24ac <PulseLCD_EN+0x18>)
    2498:	2480      	movs	r4, #128	; 0x80
    249a:	0264      	lsls	r4, r4, #9
    249c:	601c      	str	r4, [r3, #0]
    249e:	2002      	movs	r0, #2
    24a0:	4b03      	ldr	r3, [pc, #12]	; (24b0 <PulseLCD_EN+0x1c>)
    24a2:	4798      	blx	r3
    24a4:	4b03      	ldr	r3, [pc, #12]	; (24b4 <PulseLCD_EN+0x20>)
    24a6:	601c      	str	r4, [r3, #0]
    24a8:	bd10      	pop	{r4, pc}
    24aa:	46c0      	nop			; (mov r8, r8)
    24ac:	41004498 	.word	0x41004498
    24b0:	00002b5d 	.word	0x00002b5d
    24b4:	41004494 	.word	0x41004494

000024b8 <write4bits>:
    24b8:	b570      	push	{r4, r5, r6, lr}
    24ba:	1c06      	adds	r6, r0, #0
    24bc:	2400      	movs	r4, #0
    24be:	4d0b      	ldr	r5, [pc, #44]	; (24ec <write4bits+0x34>)
    24c0:	2100      	movs	r1, #0
    24c2:	1965      	adds	r5, r4, r5
    24c4:	7828      	ldrb	r0, [r5, #0]
    24c6:	4b0a      	ldr	r3, [pc, #40]	; (24f0 <write4bits+0x38>)
    24c8:	4798      	blx	r3
    24ca:	1c31      	adds	r1, r6, #0
    24cc:	4121      	asrs	r1, r4
    24ce:	2301      	movs	r3, #1
    24d0:	4019      	ands	r1, r3
    24d2:	7828      	ldrb	r0, [r5, #0]
    24d4:	4b07      	ldr	r3, [pc, #28]	; (24f4 <write4bits+0x3c>)
    24d6:	3401      	adds	r4, #1
    24d8:	4798      	blx	r3
    24da:	2c04      	cmp	r4, #4
    24dc:	d1ef      	bne.n	24be <write4bits+0x6>
    24de:	2005      	movs	r0, #5
    24e0:	4b05      	ldr	r3, [pc, #20]	; (24f8 <write4bits+0x40>)
    24e2:	4798      	blx	r3
    24e4:	4b05      	ldr	r3, [pc, #20]	; (24fc <write4bits+0x44>)
    24e6:	4798      	blx	r3
    24e8:	bd70      	pop	{r4, r5, r6, pc}
    24ea:	46c0      	nop			; (mov r8, r8)
    24ec:	200000c2 	.word	0x200000c2
    24f0:	000006e9 	.word	0x000006e9
    24f4:	000007dd 	.word	0x000007dd
    24f8:	00002b5d 	.word	0x00002b5d
    24fc:	00002495 	.word	0x00002495

00002500 <checkbusy>:
    2500:	b5f7      	push	{r0, r1, r2, r4, r5, r6, r7, lr}
    2502:	466e      	mov	r6, sp
    2504:	2301      	movs	r3, #1
    2506:	3607      	adds	r6, #7
    2508:	2013      	movs	r0, #19
    250a:	2102      	movs	r1, #2
    250c:	4c14      	ldr	r4, [pc, #80]	; (2560 <checkbusy+0x60>)
    250e:	7033      	strb	r3, [r6, #0]
    2510:	47a0      	blx	r4
    2512:	4b14      	ldr	r3, [pc, #80]	; (2564 <checkbusy+0x64>)
    2514:	2280      	movs	r2, #128	; 0x80
    2516:	0352      	lsls	r2, r2, #13
    2518:	601a      	str	r2, [r3, #0]
    251a:	4f13      	ldr	r7, [pc, #76]	; (2568 <checkbusy+0x68>)
    251c:	2380      	movs	r3, #128	; 0x80
    251e:	029b      	lsls	r3, r3, #10
    2520:	603b      	str	r3, [r7, #0]
    2522:	7831      	ldrb	r1, [r6, #0]
    2524:	4d11      	ldr	r5, [pc, #68]	; (256c <checkbusy+0x6c>)
    2526:	2480      	movs	r4, #128	; 0x80
    2528:	0264      	lsls	r4, r4, #9
    252a:	b2c9      	uxtb	r1, r1
    252c:	602c      	str	r4, [r5, #0]
    252e:	2900      	cmp	r1, #0
    2530:	d00e      	beq.n	2550 <checkbusy+0x50>
    2532:	2002      	movs	r0, #2
    2534:	4b0e      	ldr	r3, [pc, #56]	; (2570 <checkbusy+0x70>)
    2536:	4798      	blx	r3
    2538:	4b0e      	ldr	r3, [pc, #56]	; (2574 <checkbusy+0x74>)
    253a:	603c      	str	r4, [r7, #0]
    253c:	681b      	ldr	r3, [r3, #0]
    253e:	2002      	movs	r0, #2
    2540:	031b      	lsls	r3, r3, #12
    2542:	0fdb      	lsrs	r3, r3, #31
    2544:	7033      	strb	r3, [r6, #0]
    2546:	602c      	str	r4, [r5, #0]
    2548:	4b09      	ldr	r3, [pc, #36]	; (2570 <checkbusy+0x70>)
    254a:	4798      	blx	r3
    254c:	603c      	str	r4, [r7, #0]
    254e:	e7e8      	b.n	2522 <checkbusy+0x22>
    2550:	2380      	movs	r3, #128	; 0x80
    2552:	029b      	lsls	r3, r3, #10
    2554:	602b      	str	r3, [r5, #0]
    2556:	2013      	movs	r0, #19
    2558:	4b01      	ldr	r3, [pc, #4]	; (2560 <checkbusy+0x60>)
    255a:	4798      	blx	r3
    255c:	bdf7      	pop	{r0, r1, r2, r4, r5, r6, r7, pc}
    255e:	46c0      	nop			; (mov r8, r8)
    2560:	000006e9 	.word	0x000006e9
    2564:	41004414 	.word	0x41004414
    2568:	41004498 	.word	0x41004498
    256c:	41004494 	.word	0x41004494
    2570:	00002b5d 	.word	0x00002b5d
    2574:	41004420 	.word	0x41004420

00002578 <LCD_DataWrite>:
    2578:	b538      	push	{r3, r4, r5, lr}
    257a:	2280      	movs	r2, #128	; 0x80
    257c:	4b07      	ldr	r3, [pc, #28]	; (259c <LCD_DataWrite+0x24>)
    257e:	0352      	lsls	r2, r2, #13
    2580:	601a      	str	r2, [r3, #0]
    2582:	4b07      	ldr	r3, [pc, #28]	; (25a0 <LCD_DataWrite+0x28>)
    2584:	2280      	movs	r2, #128	; 0x80
    2586:	0292      	lsls	r2, r2, #10
    2588:	601a      	str	r2, [r3, #0]
    258a:	1c05      	adds	r5, r0, #0
    258c:	4c05      	ldr	r4, [pc, #20]	; (25a4 <LCD_DataWrite+0x2c>)
    258e:	0900      	lsrs	r0, r0, #4
    2590:	47a0      	blx	r4
    2592:	1c28      	adds	r0, r5, #0
    2594:	47a0      	blx	r4
    2596:	4b04      	ldr	r3, [pc, #16]	; (25a8 <LCD_DataWrite+0x30>)
    2598:	4798      	blx	r3
    259a:	bd38      	pop	{r3, r4, r5, pc}
    259c:	41004418 	.word	0x41004418
    25a0:	41004494 	.word	0x41004494
    25a4:	000024b9 	.word	0x000024b9
    25a8:	00002501 	.word	0x00002501

000025ac <LCD_Print>:
    25ac:	b510      	push	{r4, lr}
    25ae:	1c04      	adds	r4, r0, #0
    25b0:	7820      	ldrb	r0, [r4, #0]
    25b2:	2800      	cmp	r0, #0
    25b4:	d003      	beq.n	25be <LCD_Print+0x12>
    25b6:	4b02      	ldr	r3, [pc, #8]	; (25c0 <LCD_Print+0x14>)
    25b8:	3401      	adds	r4, #1
    25ba:	4798      	blx	r3
    25bc:	e7f8      	b.n	25b0 <LCD_Print+0x4>
    25be:	bd10      	pop	{r4, pc}
    25c0:	00002579 	.word	0x00002579

000025c4 <LCD_DispAscii>:
    25c4:	b508      	push	{r3, lr}
    25c6:	3030      	adds	r0, #48	; 0x30
    25c8:	b2c0      	uxtb	r0, r0
    25ca:	4b01      	ldr	r3, [pc, #4]	; (25d0 <LCD_DispAscii+0xc>)
    25cc:	4798      	blx	r3
    25ce:	bd08      	pop	{r3, pc}
    25d0:	00002579 	.word	0x00002579

000025d4 <LCD_CmdWrite>:
    25d4:	b538      	push	{r3, r4, r5, lr}
    25d6:	2280      	movs	r2, #128	; 0x80
    25d8:	4b07      	ldr	r3, [pc, #28]	; (25f8 <LCD_CmdWrite+0x24>)
    25da:	0352      	lsls	r2, r2, #13
    25dc:	601a      	str	r2, [r3, #0]
    25de:	4b07      	ldr	r3, [pc, #28]	; (25fc <LCD_CmdWrite+0x28>)
    25e0:	2280      	movs	r2, #128	; 0x80
    25e2:	0292      	lsls	r2, r2, #10
    25e4:	601a      	str	r2, [r3, #0]
    25e6:	1c05      	adds	r5, r0, #0
    25e8:	4c05      	ldr	r4, [pc, #20]	; (2600 <LCD_CmdWrite+0x2c>)
    25ea:	0900      	lsrs	r0, r0, #4
    25ec:	47a0      	blx	r4
    25ee:	1c28      	adds	r0, r5, #0
    25f0:	47a0      	blx	r4
    25f2:	4b04      	ldr	r3, [pc, #16]	; (2604 <LCD_CmdWrite+0x30>)
    25f4:	4798      	blx	r3
    25f6:	bd38      	pop	{r3, r4, r5, pc}
    25f8:	41004414 	.word	0x41004414
    25fc:	41004494 	.word	0x41004494
    2600:	000024b9 	.word	0x000024b9
    2604:	00002501 	.word	0x00002501

00002608 <LCD_Setcursor>:
    2608:	3801      	subs	r0, #1
    260a:	b508      	push	{r3, lr}
    260c:	2803      	cmp	r0, #3
    260e:	d80d      	bhi.n	262c <LCD_Setcursor+0x24>
    2610:	4b07      	ldr	r3, [pc, #28]	; (2630 <LCD_Setcursor+0x28>)
    2612:	f000 ffb5 	bl	3580 <__gnu_thumb1_case_uqi>
    2616:	0402      	.short	0x0402
    2618:	0806      	.short	0x0806
    261a:	317f      	adds	r1, #127	; 0x7f
    261c:	e004      	b.n	2628 <LCD_Setcursor+0x20>
    261e:	3941      	subs	r1, #65	; 0x41
    2620:	e002      	b.n	2628 <LCD_Setcursor+0x20>
    2622:	396d      	subs	r1, #109	; 0x6d
    2624:	e000      	b.n	2628 <LCD_Setcursor+0x20>
    2626:	392d      	subs	r1, #45	; 0x2d
    2628:	b2c8      	uxtb	r0, r1
    262a:	4798      	blx	r3
    262c:	bd08      	pop	{r3, pc}
    262e:	46c0      	nop			; (mov r8, r8)
    2630:	000025d5 	.word	0x000025d5

00002634 <LCD_OneLine>:
    2634:	b510      	push	{r4, lr}
    2636:	4b06      	ldr	r3, [pc, #24]	; (2650 <LCD_OneLine+0x1c>)
    2638:	1c0c      	adds	r4, r1, #0
    263a:	2101      	movs	r1, #1
    263c:	4798      	blx	r3
    263e:	7820      	ldrb	r0, [r4, #0]
    2640:	2800      	cmp	r0, #0
    2642:	d003      	beq.n	264c <LCD_OneLine+0x18>
    2644:	4b03      	ldr	r3, [pc, #12]	; (2654 <LCD_OneLine+0x20>)
    2646:	3401      	adds	r4, #1
    2648:	4798      	blx	r3
    264a:	e7f8      	b.n	263e <LCD_OneLine+0xa>
    264c:	bd10      	pop	{r4, pc}
    264e:	46c0      	nop			; (mov r8, r8)
    2650:	00002609 	.word	0x00002609
    2654:	00002579 	.word	0x00002579

00002658 <LCD_FullDisp>:
    2658:	b5f7      	push	{r0, r1, r2, r4, r5, r6, r7, lr}
    265a:	4d0b      	ldr	r5, [pc, #44]	; (2688 <LCD_FullDisp+0x30>)
    265c:	1c04      	adds	r4, r0, #0
    265e:	2080      	movs	r0, #128	; 0x80
    2660:	1c0f      	adds	r7, r1, #0
    2662:	1c16      	adds	r6, r2, #0
    2664:	9301      	str	r3, [sp, #4]
    2666:	47a8      	blx	r5
    2668:	1c20      	adds	r0, r4, #0
    266a:	4c08      	ldr	r4, [pc, #32]	; (268c <LCD_FullDisp+0x34>)
    266c:	47a0      	blx	r4
    266e:	20c0      	movs	r0, #192	; 0xc0
    2670:	47a8      	blx	r5
    2672:	1c38      	adds	r0, r7, #0
    2674:	47a0      	blx	r4
    2676:	2094      	movs	r0, #148	; 0x94
    2678:	47a8      	blx	r5
    267a:	1c30      	adds	r0, r6, #0
    267c:	47a0      	blx	r4
    267e:	20d4      	movs	r0, #212	; 0xd4
    2680:	47a8      	blx	r5
    2682:	9801      	ldr	r0, [sp, #4]
    2684:	47a0      	blx	r4
    2686:	bdf7      	pop	{r0, r1, r2, r4, r5, r6, r7, pc}
    2688:	000025d5 	.word	0x000025d5
    268c:	000025ad 	.word	0x000025ad

00002690 <LCD_build>:
    2690:	b538      	push	{r3, r4, r5, lr}
    2692:	1c0d      	adds	r5, r1, #0
    2694:	2807      	cmp	r0, #7
    2696:	d80b      	bhi.n	26b0 <LCD_build+0x20>
    2698:	3008      	adds	r0, #8
    269a:	00c0      	lsls	r0, r0, #3
    269c:	b2c0      	uxtb	r0, r0
    269e:	4b05      	ldr	r3, [pc, #20]	; (26b4 <LCD_build+0x24>)
    26a0:	4798      	blx	r3
    26a2:	2400      	movs	r4, #0
    26a4:	5d28      	ldrb	r0, [r5, r4]
    26a6:	4b04      	ldr	r3, [pc, #16]	; (26b8 <LCD_build+0x28>)
    26a8:	3401      	adds	r4, #1
    26aa:	4798      	blx	r3
    26ac:	2c08      	cmp	r4, #8
    26ae:	d1f9      	bne.n	26a4 <LCD_build+0x14>
    26b0:	bd38      	pop	{r3, r4, r5, pc}
    26b2:	46c0      	nop			; (mov r8, r8)
    26b4:	000025d5 	.word	0x000025d5
    26b8:	00002579 	.word	0x00002579

000026bc <LCD_Frame1>:
    26bc:	b5f8      	push	{r3, r4, r5, r6, r7, lr}
    26be:	2080      	movs	r0, #128	; 0x80
    26c0:	4d13      	ldr	r5, [pc, #76]	; (2710 <LCD_Frame1+0x54>)
    26c2:	47a8      	blx	r5
    26c4:	4c13      	ldr	r4, [pc, #76]	; (2714 <LCD_Frame1+0x58>)
    26c6:	20ff      	movs	r0, #255	; 0xff
    26c8:	47a0      	blx	r4
    26ca:	4f13      	ldr	r7, [pc, #76]	; (2718 <LCD_Frame1+0x5c>)
    26cc:	4e13      	ldr	r6, [pc, #76]	; (271c <LCD_Frame1+0x60>)
    26ce:	1c38      	adds	r0, r7, #0
    26d0:	47b0      	blx	r6
    26d2:	2093      	movs	r0, #147	; 0x93
    26d4:	47a8      	blx	r5
    26d6:	20ff      	movs	r0, #255	; 0xff
    26d8:	47a0      	blx	r4
    26da:	20d4      	movs	r0, #212	; 0xd4
    26dc:	47a8      	blx	r5
    26de:	20ff      	movs	r0, #255	; 0xff
    26e0:	47a0      	blx	r4
    26e2:	1c38      	adds	r0, r7, #0
    26e4:	47b0      	blx	r6
    26e6:	20e7      	movs	r0, #231	; 0xe7
    26e8:	47a8      	blx	r5
    26ea:	20ff      	movs	r0, #255	; 0xff
    26ec:	47a0      	blx	r4
    26ee:	20c0      	movs	r0, #192	; 0xc0
    26f0:	47a8      	blx	r5
    26f2:	2000      	movs	r0, #0
    26f4:	47a0      	blx	r4
    26f6:	20d3      	movs	r0, #211	; 0xd3
    26f8:	47a8      	blx	r5
    26fa:	2000      	movs	r0, #0
    26fc:	47a0      	blx	r4
    26fe:	2094      	movs	r0, #148	; 0x94
    2700:	47a8      	blx	r5
    2702:	2000      	movs	r0, #0
    2704:	47a0      	blx	r4
    2706:	20a7      	movs	r0, #167	; 0xa7
    2708:	47a8      	blx	r5
    270a:	2000      	movs	r0, #0
    270c:	47a0      	blx	r4
    270e:	bdf8      	pop	{r3, r4, r5, r6, r7, pc}
    2710:	000025d5 	.word	0x000025d5
    2714:	00002579 	.word	0x00002579
    2718:	0000668a 	.word	0x0000668a
    271c:	000025ad 	.word	0x000025ad

00002720 <LCD_CursorOn>:
    2720:	b508      	push	{r3, lr}
    2722:	200e      	movs	r0, #14
    2724:	4b01      	ldr	r3, [pc, #4]	; (272c <LCD_CursorOn+0xc>)
    2726:	4798      	blx	r3
    2728:	bd08      	pop	{r3, pc}
    272a:	46c0      	nop			; (mov r8, r8)
    272c:	000025d5 	.word	0x000025d5

00002730 <LCD_CursorOff>:
    2730:	b508      	push	{r3, lr}
    2732:	200c      	movs	r0, #12
    2734:	4b01      	ldr	r3, [pc, #4]	; (273c <LCD_CursorOff+0xc>)
    2736:	4798      	blx	r3
    2738:	bd08      	pop	{r3, pc}
    273a:	46c0      	nop			; (mov r8, r8)
    273c:	000025d5 	.word	0x000025d5

00002740 <LCD_Clrscr>:
    2740:	b510      	push	{r4, lr}
    2742:	2001      	movs	r0, #1
    2744:	4c02      	ldr	r4, [pc, #8]	; (2750 <LCD_Clrscr+0x10>)
    2746:	47a0      	blx	r4
    2748:	2080      	movs	r0, #128	; 0x80
    274a:	47a0      	blx	r4
    274c:	bd10      	pop	{r4, pc}
    274e:	46c0      	nop			; (mov r8, r8)
    2750:	000025d5 	.word	0x000025d5

00002754 <LCD_PowerOff>:
    2754:	b508      	push	{r3, lr}
    2756:	2013      	movs	r0, #19
    2758:	4b02      	ldr	r3, [pc, #8]	; (2764 <LCD_PowerOff+0x10>)
    275a:	4798      	blx	r3
    275c:	4b02      	ldr	r3, [pc, #8]	; (2768 <LCD_PowerOff+0x14>)
    275e:	4798      	blx	r3
    2760:	bd08      	pop	{r3, pc}
    2762:	46c0      	nop			; (mov r8, r8)
    2764:	000025d5 	.word	0x000025d5
    2768:	00002501 	.word	0x00002501

0000276c <LCD_PowerOn>:
    276c:	b508      	push	{r3, lr}
    276e:	2017      	movs	r0, #23
    2770:	4b02      	ldr	r3, [pc, #8]	; (277c <LCD_PowerOn+0x10>)
    2772:	4798      	blx	r3
    2774:	4b02      	ldr	r3, [pc, #8]	; (2780 <LCD_PowerOn+0x14>)
    2776:	4798      	blx	r3
    2778:	bd08      	pop	{r3, pc}
    277a:	46c0      	nop			; (mov r8, r8)
    277c:	000025d5 	.word	0x000025d5
    2780:	00002501 	.word	0x00002501

00002784 <LCD_Init>:
    2784:	b5f8      	push	{r3, r4, r5, r6, r7, lr}
    2786:	2030      	movs	r0, #48	; 0x30
    2788:	4c2b      	ldr	r4, [pc, #172]	; (2838 <LCD_Init+0xb4>)
    278a:	2100      	movs	r1, #0
    278c:	47a0      	blx	r4
    278e:	4d2b      	ldr	r5, [pc, #172]	; (283c <LCD_Init+0xb8>)
    2790:	2380      	movs	r3, #128	; 0x80
    2792:	025b      	lsls	r3, r3, #9
    2794:	602b      	str	r3, [r5, #0]
    2796:	2010      	movs	r0, #16
    2798:	2100      	movs	r1, #0
    279a:	47a0      	blx	r4
    279c:	2011      	movs	r0, #17
    279e:	2100      	movs	r1, #0
    27a0:	47a0      	blx	r4
    27a2:	2012      	movs	r0, #18
    27a4:	2100      	movs	r1, #0
    27a6:	47a0      	blx	r4
    27a8:	2013      	movs	r0, #19
    27aa:	2100      	movs	r1, #0
    27ac:	47a0      	blx	r4
    27ae:	2014      	movs	r0, #20
    27b0:	2100      	movs	r1, #0
    27b2:	47a0      	blx	r4
    27b4:	2100      	movs	r1, #0
    27b6:	2031      	movs	r0, #49	; 0x31
    27b8:	47a0      	blx	r4
    27ba:	4b21      	ldr	r3, [pc, #132]	; (2840 <LCD_Init+0xbc>)
    27bc:	2210      	movs	r2, #16
    27be:	701a      	strb	r2, [r3, #0]
    27c0:	2211      	movs	r2, #17
    27c2:	705a      	strb	r2, [r3, #1]
    27c4:	2212      	movs	r2, #18
    27c6:	709a      	strb	r2, [r3, #2]
    27c8:	2213      	movs	r2, #19
    27ca:	70da      	strb	r2, [r3, #3]
    27cc:	4b1d      	ldr	r3, [pc, #116]	; (2844 <LCD_Init+0xc0>)
    27ce:	2280      	movs	r2, #128	; 0x80
    27d0:	0352      	lsls	r2, r2, #13
    27d2:	601a      	str	r2, [r3, #0]
    27d4:	2380      	movs	r3, #128	; 0x80
    27d6:	029b      	lsls	r3, r3, #10
    27d8:	602b      	str	r3, [r5, #0]
    27da:	4e1b      	ldr	r6, [pc, #108]	; (2848 <LCD_Init+0xc4>)
    27dc:	2064      	movs	r0, #100	; 0x64
    27de:	47b0      	blx	r6
    27e0:	4d1a      	ldr	r5, [pc, #104]	; (284c <LCD_Init+0xc8>)
    27e2:	2008      	movs	r0, #8
    27e4:	47a8      	blx	r5
    27e6:	4c1a      	ldr	r4, [pc, #104]	; (2850 <LCD_Init+0xcc>)
    27e8:	47a0      	blx	r4
    27ea:	4f1a      	ldr	r7, [pc, #104]	; (2854 <LCD_Init+0xd0>)
    27ec:	2003      	movs	r0, #3
    27ee:	47b8      	blx	r7
    27f0:	2064      	movs	r0, #100	; 0x64
    27f2:	47b0      	blx	r6
    27f4:	2003      	movs	r0, #3
    27f6:	47b8      	blx	r7
    27f8:	2064      	movs	r0, #100	; 0x64
    27fa:	47b0      	blx	r6
    27fc:	2003      	movs	r0, #3
    27fe:	47b8      	blx	r7
    2800:	2064      	movs	r0, #100	; 0x64
    2802:	47b0      	blx	r6
    2804:	2002      	movs	r0, #2
    2806:	47b8      	blx	r7
    2808:	2064      	movs	r0, #100	; 0x64
    280a:	47b0      	blx	r6
    280c:	2028      	movs	r0, #40	; 0x28
    280e:	47a8      	blx	r5
    2810:	47a0      	blx	r4
    2812:	2008      	movs	r0, #8
    2814:	47a8      	blx	r5
    2816:	47a0      	blx	r4
    2818:	2006      	movs	r0, #6
    281a:	47a8      	blx	r5
    281c:	47a0      	blx	r4
    281e:	200e      	movs	r0, #14
    2820:	47a8      	blx	r5
    2822:	47a0      	blx	r4
    2824:	2001      	movs	r0, #1
    2826:	47a8      	blx	r5
    2828:	47a0      	blx	r4
    282a:	2080      	movs	r0, #128	; 0x80
    282c:	47a8      	blx	r5
    282e:	47a0      	blx	r4
    2830:	4b09      	ldr	r3, [pc, #36]	; (2858 <LCD_Init+0xd4>)
    2832:	4798      	blx	r3
    2834:	bdf8      	pop	{r3, r4, r5, r6, r7, pc}
    2836:	46c0      	nop			; (mov r8, r8)
    2838:	000006e9 	.word	0x000006e9
    283c:	41004494 	.word	0x41004494
    2840:	200000c2 	.word	0x200000c2
    2844:	41004414 	.word	0x41004414
    2848:	00002b8d 	.word	0x00002b8d
    284c:	000025d5 	.word	0x000025d5
    2850:	00002501 	.word	0x00002501
    2854:	000024b9 	.word	0x000024b9
    2858:	0000276d 	.word	0x0000276d

0000285c <Compute_StackTCTemp>:
    285c:	b5f8      	push	{r3, r4, r5, r6, r7, lr}
    285e:	230a      	movs	r3, #10
    2860:	4358      	muls	r0, r3
    2862:	4b68      	ldr	r3, [pc, #416]	; (2a04 <Compute_StackTCTemp+0x1a8>)
    2864:	4798      	blx	r3
    2866:	4968      	ldr	r1, [pc, #416]	; (2a08 <Compute_StackTCTemp+0x1ac>)
    2868:	4b68      	ldr	r3, [pc, #416]	; (2a0c <Compute_StackTCTemp+0x1b0>)
    286a:	1c04      	adds	r4, r0, #0
    286c:	4798      	blx	r3
    286e:	4d68      	ldr	r5, [pc, #416]	; (2a10 <Compute_StackTCTemp+0x1b4>)
    2870:	4e68      	ldr	r6, [pc, #416]	; (2a14 <Compute_StackTCTemp+0x1b8>)
    2872:	2800      	cmp	r0, #0
    2874:	d039      	beq.n	28ea <Compute_StackTCTemp+0x8e>
    2876:	4968      	ldr	r1, [pc, #416]	; (2a18 <Compute_StackTCTemp+0x1bc>)
    2878:	1c20      	adds	r0, r4, #0
    287a:	47a8      	blx	r5
    287c:	4b67      	ldr	r3, [pc, #412]	; (2a1c <Compute_StackTCTemp+0x1c0>)
    287e:	4968      	ldr	r1, [pc, #416]	; (2a20 <Compute_StackTCTemp+0x1c4>)
    2880:	4798      	blx	r3
    2882:	4968      	ldr	r1, [pc, #416]	; (2a24 <Compute_StackTCTemp+0x1c8>)
    2884:	1c07      	adds	r7, r0, #0
    2886:	1c20      	adds	r0, r4, #0
    2888:	47a8      	blx	r5
    288a:	1c21      	adds	r1, r4, #0
    288c:	47a8      	blx	r5
    288e:	1c01      	adds	r1, r0, #0
    2890:	1c38      	adds	r0, r7, #0
    2892:	47b0      	blx	r6
    2894:	4964      	ldr	r1, [pc, #400]	; (2a28 <Compute_StackTCTemp+0x1cc>)
    2896:	1c07      	adds	r7, r0, #0
    2898:	1c20      	adds	r0, r4, #0
    289a:	47a8      	blx	r5
    289c:	1c21      	adds	r1, r4, #0
    289e:	47a8      	blx	r5
    28a0:	1c21      	adds	r1, r4, #0
    28a2:	47a8      	blx	r5
    28a4:	1c01      	adds	r1, r0, #0
    28a6:	1c38      	adds	r0, r7, #0
    28a8:	47b0      	blx	r6
    28aa:	4960      	ldr	r1, [pc, #384]	; (2a2c <Compute_StackTCTemp+0x1d0>)
    28ac:	1c07      	adds	r7, r0, #0
    28ae:	1c20      	adds	r0, r4, #0
    28b0:	47a8      	blx	r5
    28b2:	1c21      	adds	r1, r4, #0
    28b4:	47a8      	blx	r5
    28b6:	1c21      	adds	r1, r4, #0
    28b8:	47a8      	blx	r5
    28ba:	1c21      	adds	r1, r4, #0
    28bc:	47a8      	blx	r5
    28be:	1c01      	adds	r1, r0, #0
    28c0:	1c38      	adds	r0, r7, #0
    28c2:	47b0      	blx	r6
    28c4:	495a      	ldr	r1, [pc, #360]	; (2a30 <Compute_StackTCTemp+0x1d4>)
    28c6:	1c07      	adds	r7, r0, #0
    28c8:	1c20      	adds	r0, r4, #0
    28ca:	47a8      	blx	r5
    28cc:	1c21      	adds	r1, r4, #0
    28ce:	47a8      	blx	r5
    28d0:	1c21      	adds	r1, r4, #0
    28d2:	47a8      	blx	r5
    28d4:	1c21      	adds	r1, r4, #0
    28d6:	47a8      	blx	r5
    28d8:	1c21      	adds	r1, r4, #0
    28da:	47a8      	blx	r5
    28dc:	1c01      	adds	r1, r0, #0
    28de:	1c38      	adds	r0, r7, #0
    28e0:	47b0      	blx	r6
    28e2:	4954      	ldr	r1, [pc, #336]	; (2a34 <Compute_StackTCTemp+0x1d8>)
    28e4:	1c07      	adds	r7, r0, #0
    28e6:	1c20      	adds	r0, r4, #0
    28e8:	e076      	b.n	29d8 <Compute_StackTCTemp+0x17c>
    28ea:	4953      	ldr	r1, [pc, #332]	; (2a38 <Compute_StackTCTemp+0x1dc>)
    28ec:	1c20      	adds	r0, r4, #0
    28ee:	47a8      	blx	r5
    28f0:	2100      	movs	r1, #0
    28f2:	47b0      	blx	r6
    28f4:	4951      	ldr	r1, [pc, #324]	; (2a3c <Compute_StackTCTemp+0x1e0>)
    28f6:	1c07      	adds	r7, r0, #0
    28f8:	1c20      	adds	r0, r4, #0
    28fa:	47a8      	blx	r5
    28fc:	1c21      	adds	r1, r4, #0
    28fe:	47a8      	blx	r5
    2900:	1c01      	adds	r1, r0, #0
    2902:	1c38      	adds	r0, r7, #0
    2904:	47b0      	blx	r6
    2906:	494e      	ldr	r1, [pc, #312]	; (2a40 <Compute_StackTCTemp+0x1e4>)
    2908:	1c07      	adds	r7, r0, #0
    290a:	1c20      	adds	r0, r4, #0
    290c:	47a8      	blx	r5
    290e:	1c21      	adds	r1, r4, #0
    2910:	47a8      	blx	r5
    2912:	1c21      	adds	r1, r4, #0
    2914:	47a8      	blx	r5
    2916:	1c01      	adds	r1, r0, #0
    2918:	1c38      	adds	r0, r7, #0
    291a:	47b0      	blx	r6
    291c:	4949      	ldr	r1, [pc, #292]	; (2a44 <Compute_StackTCTemp+0x1e8>)
    291e:	1c07      	adds	r7, r0, #0
    2920:	1c20      	adds	r0, r4, #0
    2922:	47a8      	blx	r5
    2924:	1c21      	adds	r1, r4, #0
    2926:	47a8      	blx	r5
    2928:	1c21      	adds	r1, r4, #0
    292a:	47a8      	blx	r5
    292c:	1c21      	adds	r1, r4, #0
    292e:	47a8      	blx	r5
    2930:	1c01      	adds	r1, r0, #0
    2932:	1c38      	adds	r0, r7, #0
    2934:	47b0      	blx	r6
    2936:	4944      	ldr	r1, [pc, #272]	; (2a48 <Compute_StackTCTemp+0x1ec>)
    2938:	1c07      	adds	r7, r0, #0
    293a:	1c20      	adds	r0, r4, #0
    293c:	47a8      	blx	r5
    293e:	1c21      	adds	r1, r4, #0
    2940:	47a8      	blx	r5
    2942:	1c21      	adds	r1, r4, #0
    2944:	47a8      	blx	r5
    2946:	1c21      	adds	r1, r4, #0
    2948:	47a8      	blx	r5
    294a:	1c21      	adds	r1, r4, #0
    294c:	47a8      	blx	r5
    294e:	1c01      	adds	r1, r0, #0
    2950:	1c38      	adds	r0, r7, #0
    2952:	47b0      	blx	r6
    2954:	493d      	ldr	r1, [pc, #244]	; (2a4c <Compute_StackTCTemp+0x1f0>)
    2956:	1c07      	adds	r7, r0, #0
    2958:	1c20      	adds	r0, r4, #0
    295a:	47a8      	blx	r5
    295c:	1c21      	adds	r1, r4, #0
    295e:	47a8      	blx	r5
    2960:	1c21      	adds	r1, r4, #0
    2962:	47a8      	blx	r5
    2964:	1c21      	adds	r1, r4, #0
    2966:	47a8      	blx	r5
    2968:	1c21      	adds	r1, r4, #0
    296a:	47a8      	blx	r5
    296c:	1c21      	adds	r1, r4, #0
    296e:	47a8      	blx	r5
    2970:	1c01      	adds	r1, r0, #0
    2972:	1c38      	adds	r0, r7, #0
    2974:	47b0      	blx	r6
    2976:	4936      	ldr	r1, [pc, #216]	; (2a50 <Compute_StackTCTemp+0x1f4>)
    2978:	1c07      	adds	r7, r0, #0
    297a:	1c20      	adds	r0, r4, #0
    297c:	47a8      	blx	r5
    297e:	1c21      	adds	r1, r4, #0
    2980:	47a8      	blx	r5
    2982:	1c21      	adds	r1, r4, #0
    2984:	47a8      	blx	r5
    2986:	1c21      	adds	r1, r4, #0
    2988:	47a8      	blx	r5
    298a:	1c21      	adds	r1, r4, #0
    298c:	47a8      	blx	r5
    298e:	1c21      	adds	r1, r4, #0
    2990:	47a8      	blx	r5
    2992:	1c21      	adds	r1, r4, #0
    2994:	47a8      	blx	r5
    2996:	1c01      	adds	r1, r0, #0
    2998:	1c38      	adds	r0, r7, #0
    299a:	47b0      	blx	r6
    299c:	492d      	ldr	r1, [pc, #180]	; (2a54 <Compute_StackTCTemp+0x1f8>)
    299e:	1c07      	adds	r7, r0, #0
    29a0:	1c20      	adds	r0, r4, #0
    29a2:	47a8      	blx	r5
    29a4:	1c21      	adds	r1, r4, #0
    29a6:	47a8      	blx	r5
    29a8:	1c21      	adds	r1, r4, #0
    29aa:	47a8      	blx	r5
    29ac:	1c21      	adds	r1, r4, #0
    29ae:	47a8      	blx	r5
    29b0:	1c21      	adds	r1, r4, #0
    29b2:	47a8      	blx	r5
    29b4:	1c21      	adds	r1, r4, #0
    29b6:	47a8      	blx	r5
    29b8:	1c21      	adds	r1, r4, #0
    29ba:	47a8      	blx	r5
    29bc:	1c21      	adds	r1, r4, #0
    29be:	47a8      	blx	r5
    29c0:	1c01      	adds	r1, r0, #0
    29c2:	1c38      	adds	r0, r7, #0
    29c4:	47b0      	blx	r6
    29c6:	4924      	ldr	r1, [pc, #144]	; (2a58 <Compute_StackTCTemp+0x1fc>)
    29c8:	1c07      	adds	r7, r0, #0
    29ca:	1c20      	adds	r0, r4, #0
    29cc:	47a8      	blx	r5
    29ce:	1c21      	adds	r1, r4, #0
    29d0:	47a8      	blx	r5
    29d2:	1c21      	adds	r1, r4, #0
    29d4:	47a8      	blx	r5
    29d6:	1c21      	adds	r1, r4, #0
    29d8:	47a8      	blx	r5
    29da:	1c21      	adds	r1, r4, #0
    29dc:	47a8      	blx	r5
    29de:	1c21      	adds	r1, r4, #0
    29e0:	47a8      	blx	r5
    29e2:	1c21      	adds	r1, r4, #0
    29e4:	47a8      	blx	r5
    29e6:	1c21      	adds	r1, r4, #0
    29e8:	47a8      	blx	r5
    29ea:	1c21      	adds	r1, r4, #0
    29ec:	47a8      	blx	r5
    29ee:	1c01      	adds	r1, r0, #0
    29f0:	1c38      	adds	r0, r7, #0
    29f2:	47b0      	blx	r6
    29f4:	21fc      	movs	r1, #252	; 0xfc
    29f6:	0589      	lsls	r1, r1, #22
    29f8:	47b0      	blx	r6
    29fa:	4b18      	ldr	r3, [pc, #96]	; (2a5c <Compute_StackTCTemp+0x200>)
    29fc:	4798      	blx	r3
    29fe:	b280      	uxth	r0, r0
    2a00:	bdf8      	pop	{r3, r4, r5, r6, r7, pc}
    2a02:	46c0      	nop			; (mov r8, r8)
    2a04:	00004375 	.word	0x00004375
    2a08:	46a14000 	.word	0x46a14000
    2a0c:	00003711 	.word	0x00003711
    2a10:	00003df5 	.word	0x00003df5
    2a14:	00003755 	.word	0x00003755
    2a18:	3d45d88c 	.word	0x3d45d88c
    2a1c:	00004049 	.word	0x00004049
    2a20:	4303ce49 	.word	0x4303ce49
    2a24:	b5dced32 	.word	0xb5dced32
    2a28:	2e705767 	.word	0x2e705767
    2a2c:	a68b14db 	.word	0xa68b14db
    2a30:	1e2644cb 	.word	0x1e2644cb
    2a34:	951a0a34 	.word	0x951a0a34
    2a38:	3ccd7c04 	.word	0x3ccd7c04
    2a3c:	33a8cb64 	.word	0x33a8cb64
    2a40:	af899c70 	.word	0xaf899c70
    2a44:	29bb3e45 	.word	0x29bb3e45
    2a48:	a3628844 	.word	0xa3628844
    2a4c:	1c942787 	.word	0x1c942787
    2a50:	955a85cd 	.word	0x955a85cd
    2a54:	0daba08d 	.word	0x0daba08d
    2a58:	855fe56f 	.word	0x855fe56f
    2a5c:	00003725 	.word	0x00003725

00002a60 <Compute_PT100Temp>:
    2a60:	b5f7      	push	{r0, r1, r2, r4, r5, r6, r7, lr}
    2a62:	4b25      	ldr	r3, [pc, #148]	; (2af8 <Compute_PT100Temp+0x98>)
    2a64:	4798      	blx	r3
    2a66:	4e25      	ldr	r6, [pc, #148]	; (2afc <Compute_PT100Temp+0x9c>)
    2a68:	47b0      	blx	r6
    2a6a:	4b1e      	ldr	r3, [pc, #120]	; (2ae4 <Compute_PT100Temp+0x84>)
    2a6c:	4a1c      	ldr	r2, [pc, #112]	; (2ae0 <Compute_PT100Temp+0x80>)
    2a6e:	4c24      	ldr	r4, [pc, #144]	; (2b00 <Compute_PT100Temp+0xa0>)
    2a70:	47a0      	blx	r4
    2a72:	4a1d      	ldr	r2, [pc, #116]	; (2ae8 <Compute_PT100Temp+0x88>)
    2a74:	4b1d      	ldr	r3, [pc, #116]	; (2aec <Compute_PT100Temp+0x8c>)
    2a76:	4c23      	ldr	r4, [pc, #140]	; (2b04 <Compute_PT100Temp+0xa4>)
    2a78:	47a0      	blx	r4
    2a7a:	4c23      	ldr	r4, [pc, #140]	; (2b08 <Compute_PT100Temp+0xa8>)
    2a7c:	47a0      	blx	r4
    2a7e:	4d23      	ldr	r5, [pc, #140]	; (2b0c <Compute_PT100Temp+0xac>)
    2a80:	4923      	ldr	r1, [pc, #140]	; (2b10 <Compute_PT100Temp+0xb0>)
    2a82:	47a8      	blx	r5
    2a84:	4f23      	ldr	r7, [pc, #140]	; (2b14 <Compute_PT100Temp+0xb4>)
    2a86:	1c01      	adds	r1, r0, #0
    2a88:	4823      	ldr	r0, [pc, #140]	; (2b18 <Compute_PT100Temp+0xb8>)
    2a8a:	47b8      	blx	r7
    2a8c:	47b0      	blx	r6
    2a8e:	4b23      	ldr	r3, [pc, #140]	; (2b1c <Compute_PT100Temp+0xbc>)
    2a90:	4798      	blx	r3
    2a92:	47a0      	blx	r4
    2a94:	1c01      	adds	r1, r0, #0
    2a96:	4822      	ldr	r0, [pc, #136]	; (2b20 <Compute_PT100Temp+0xc0>)
    2a98:	47b8      	blx	r7
    2a9a:	4b22      	ldr	r3, [pc, #136]	; (2b24 <Compute_PT100Temp+0xc4>)
    2a9c:	4922      	ldr	r1, [pc, #136]	; (2b28 <Compute_PT100Temp+0xc8>)
    2a9e:	4798      	blx	r3
    2aa0:	47b0      	blx	r6
    2aa2:	4a13      	ldr	r2, [pc, #76]	; (2af0 <Compute_PT100Temp+0x90>)
    2aa4:	4b13      	ldr	r3, [pc, #76]	; (2af4 <Compute_PT100Temp+0x94>)
    2aa6:	4e21      	ldr	r6, [pc, #132]	; (2b2c <Compute_PT100Temp+0xcc>)
    2aa8:	47b0      	blx	r6
    2aaa:	47a0      	blx	r4
    2aac:	4c20      	ldr	r4, [pc, #128]	; (2b30 <Compute_PT100Temp+0xd0>)
    2aae:	2300      	movs	r3, #0
    2ab0:	9001      	str	r0, [sp, #4]
    2ab2:	7023      	strb	r3, [r4, #0]
    2ab4:	9801      	ldr	r0, [sp, #4]
    2ab6:	2100      	movs	r1, #0
    2ab8:	4b1e      	ldr	r3, [pc, #120]	; (2b34 <Compute_PT100Temp+0xd4>)
    2aba:	4798      	blx	r3
    2abc:	2800      	cmp	r0, #0
    2abe:	d006      	beq.n	2ace <Compute_PT100Temp+0x6e>
    2ac0:	2301      	movs	r3, #1
    2ac2:	7023      	strb	r3, [r4, #0]
    2ac4:	9b01      	ldr	r3, [sp, #4]
    2ac6:	2280      	movs	r2, #128	; 0x80
    2ac8:	0612      	lsls	r2, r2, #24
    2aca:	189b      	adds	r3, r3, r2
    2acc:	9301      	str	r3, [sp, #4]
    2ace:	9801      	ldr	r0, [sp, #4]
    2ad0:	4919      	ldr	r1, [pc, #100]	; (2b38 <Compute_PT100Temp+0xd8>)
    2ad2:	47a8      	blx	r5
    2ad4:	9001      	str	r0, [sp, #4]
    2ad6:	9801      	ldr	r0, [sp, #4]
    2ad8:	4b18      	ldr	r3, [pc, #96]	; (2b3c <Compute_PT100Temp+0xdc>)
    2ada:	4798      	blx	r3
    2adc:	b280      	uxth	r0, r0
    2ade:	bdfe      	pop	{r1, r2, r3, r4, r5, r6, r7, pc}
    2ae0:	47ae147b 	.word	0x47ae147b
    2ae4:	3f847ae1 	.word	0x3f847ae1
    2ae8:	00000000 	.word	0x00000000
    2aec:	40590000 	.word	0x40590000
    2af0:	9999999a 	.word	0x9999999a
    2af4:	3fa99999 	.word	0x3fa99999
    2af8:	0000442d 	.word	0x0000442d
    2afc:	00005f6d 	.word	0x00005f6d
    2b00:	000053e5 	.word	0x000053e5
    2b04:	00005905 	.word	0x00005905
    2b08:	00006011 	.word	0x00006011
    2b0c:	00003df5 	.word	0x00003df5
    2b10:	39723897 	.word	0x39723897
    2b14:	00004049 	.word	0x00004049
    2b18:	3e1c69ff 	.word	0x3e1c69ff
    2b1c:	00003291 	.word	0x00003291
    2b20:	3ec81adf 	.word	0x3ec81adf
    2b24:	00003a2d 	.word	0x00003a2d
    2b28:	38f23897 	.word	0x38f23897
    2b2c:	000044cd 	.word	0x000044cd
    2b30:	2000014c 	.word	0x2000014c
    2b34:	000036d5 	.word	0x000036d5
    2b38:	41200000 	.word	0x41200000
    2b3c:	00003725 	.word	0x00003725

00002b40 <delay_1us>:
    2b40:	b082      	sub	sp, #8
    2b42:	2300      	movs	r3, #0
    2b44:	9301      	str	r3, [sp, #4]
    2b46:	9b01      	ldr	r3, [sp, #4]
    2b48:	2b01      	cmp	r3, #1
    2b4a:	dc04      	bgt.n	2b56 <delay_1us+0x16>
    2b4c:	46c0      	nop			; (mov r8, r8)
    2b4e:	46c0      	nop			; (mov r8, r8)
    2b50:	9b01      	ldr	r3, [sp, #4]
    2b52:	3301      	adds	r3, #1
    2b54:	e7f6      	b.n	2b44 <delay_1us+0x4>
    2b56:	b002      	add	sp, #8
    2b58:	4770      	bx	lr
	...

00002b5c <delay_us>:
    2b5c:	b507      	push	{r0, r1, r2, lr}
    2b5e:	9001      	str	r0, [sp, #4]
    2b60:	9b01      	ldr	r3, [sp, #4]
    2b62:	2b00      	cmp	r3, #0
    2b64:	d005      	beq.n	2b72 <delay_us+0x16>
    2b66:	4b03      	ldr	r3, [pc, #12]	; (2b74 <delay_us+0x18>)
    2b68:	4798      	blx	r3
    2b6a:	9b01      	ldr	r3, [sp, #4]
    2b6c:	3b01      	subs	r3, #1
    2b6e:	9301      	str	r3, [sp, #4]
    2b70:	e7f6      	b.n	2b60 <delay_us+0x4>
    2b72:	bd07      	pop	{r0, r1, r2, pc}
    2b74:	00002b41 	.word	0x00002b41

00002b78 <delay_1ms>:
    2b78:	b508      	push	{r3, lr}
    2b7a:	4802      	ldr	r0, [pc, #8]	; (2b84 <delay_1ms+0xc>)
    2b7c:	4b02      	ldr	r3, [pc, #8]	; (2b88 <delay_1ms+0x10>)
    2b7e:	4798      	blx	r3
    2b80:	bd08      	pop	{r3, pc}
    2b82:	46c0      	nop			; (mov r8, r8)
    2b84:	0000041a 	.word	0x0000041a
    2b88:	00002b5d 	.word	0x00002b5d

00002b8c <delay_ms>:
    2b8c:	b507      	push	{r0, r1, r2, lr}
    2b8e:	9001      	str	r0, [sp, #4]
    2b90:	9b01      	ldr	r3, [sp, #4]
    2b92:	2b00      	cmp	r3, #0
    2b94:	d005      	beq.n	2ba2 <delay_ms+0x16>
    2b96:	4b03      	ldr	r3, [pc, #12]	; (2ba4 <delay_ms+0x18>)
    2b98:	4798      	blx	r3
    2b9a:	9b01      	ldr	r3, [sp, #4]
    2b9c:	3b01      	subs	r3, #1
    2b9e:	9301      	str	r3, [sp, #4]
    2ba0:	e7f6      	b.n	2b90 <delay_ms+0x4>
    2ba2:	bd07      	pop	{r0, r1, r2, pc}
    2ba4:	00002b79 	.word	0x00002b79

00002ba8 <delay_sec>:
    2ba8:	b513      	push	{r0, r1, r4, lr}
    2baa:	466c      	mov	r4, sp
    2bac:	3406      	adds	r4, #6
    2bae:	8020      	strh	r0, [r4, #0]
    2bb0:	8823      	ldrh	r3, [r4, #0]
    2bb2:	2b00      	cmp	r3, #0
    2bb4:	d008      	beq.n	2bc8 <delay_sec+0x20>
    2bb6:	20fa      	movs	r0, #250	; 0xfa
    2bb8:	4b04      	ldr	r3, [pc, #16]	; (2bcc <delay_sec+0x24>)
    2bba:	0080      	lsls	r0, r0, #2
    2bbc:	4798      	blx	r3
    2bbe:	8823      	ldrh	r3, [r4, #0]
    2bc0:	3b01      	subs	r3, #1
    2bc2:	b29b      	uxth	r3, r3
    2bc4:	8023      	strh	r3, [r4, #0]
    2bc6:	e7f3      	b.n	2bb0 <delay_sec+0x8>
    2bc8:	bd13      	pop	{r0, r1, r4, pc}
    2bca:	46c0      	nop			; (mov r8, r8)
    2bcc:	00002b8d 	.word	0x00002b8d

00002bd0 <i2c_master_enable.constprop.2>:
    2bd0:	b510      	push	{r4, lr}
    2bd2:	4a0b      	ldr	r2, [pc, #44]	; (2c00 <i2c_master_enable.constprop.2+0x30>)
    2bd4:	6813      	ldr	r3, [r2, #0]
    2bd6:	1c11      	adds	r1, r2, #0
    2bd8:	8a1a      	ldrh	r2, [r3, #16]
    2bda:	0bd2      	lsrs	r2, r2, #15
    2bdc:	03d2      	lsls	r2, r2, #15
    2bde:	b292      	uxth	r2, r2
    2be0:	2a00      	cmp	r2, #0
    2be2:	d1f9      	bne.n	2bd8 <i2c_master_enable.constprop.2+0x8>
    2be4:	6818      	ldr	r0, [r3, #0]
    2be6:	2402      	movs	r4, #2
    2be8:	4320      	orrs	r0, r4
    2bea:	6018      	str	r0, [r3, #0]
    2bec:	88cc      	ldrh	r4, [r1, #6]
    2bee:	8a18      	ldrh	r0, [r3, #16]
    2bf0:	2110      	movs	r1, #16
    2bf2:	4208      	tst	r0, r1
    2bf4:	d103      	bne.n	2bfe <i2c_master_enable.constprop.2+0x2e>
    2bf6:	3201      	adds	r2, #1
    2bf8:	42a2      	cmp	r2, r4
    2bfa:	d3f8      	bcc.n	2bee <i2c_master_enable.constprop.2+0x1e>
    2bfc:	8219      	strh	r1, [r3, #16]
    2bfe:	bd10      	pop	{r4, pc}
    2c00:	2000019c 	.word	0x2000019c

00002c04 <configure_EEPROM>:
    2c04:	b500      	push	{lr}
    2c06:	200e      	movs	r0, #14
    2c08:	b08b      	sub	sp, #44	; 0x2c
    2c0a:	2100      	movs	r1, #0
    2c0c:	4b12      	ldr	r3, [pc, #72]	; (2c58 <configure_EEPROM+0x54>)
    2c0e:	4798      	blx	r3
    2c10:	4b12      	ldr	r3, [pc, #72]	; (2c5c <configure_EEPROM+0x58>)
    2c12:	2280      	movs	r2, #128	; 0x80
    2c14:	01d2      	lsls	r2, r2, #7
    2c16:	601a      	str	r2, [r3, #0]
    2c18:	2364      	movs	r3, #100	; 0x64
    2c1a:	aa01      	add	r2, sp, #4
    2c1c:	9301      	str	r3, [sp, #4]
    2c1e:	2300      	movs	r3, #0
    2c20:	7113      	strb	r3, [r2, #4]
    2c22:	7413      	strb	r3, [r2, #16]
    2c24:	7713      	strb	r3, [r2, #28]
    2c26:	6213      	str	r3, [r2, #32]
    2c28:	4b0d      	ldr	r3, [pc, #52]	; (2c60 <configure_EEPROM+0x5c>)
    2c2a:	2180      	movs	r1, #128	; 0x80
    2c2c:	81d3      	strh	r3, [r2, #14]
    2c2e:	4b0d      	ldr	r3, [pc, #52]	; (2c64 <configure_EEPROM+0x60>)
    2c30:	0389      	lsls	r1, r1, #14
    2c32:	6091      	str	r1, [r2, #8]
    2c34:	6153      	str	r3, [r2, #20]
    2c36:	2101      	movs	r1, #1
    2c38:	4b0b      	ldr	r3, [pc, #44]	; (2c68 <configure_EEPROM+0x64>)
    2c3a:	4249      	negs	r1, r1
    2c3c:	8191      	strh	r1, [r2, #12]
    2c3e:	6193      	str	r3, [r2, #24]
    2c40:	490a      	ldr	r1, [pc, #40]	; (2c6c <configure_EEPROM+0x68>)
    2c42:	4b0b      	ldr	r3, [pc, #44]	; (2c70 <configure_EEPROM+0x6c>)
    2c44:	480b      	ldr	r0, [pc, #44]	; (2c74 <configure_EEPROM+0x70>)
    2c46:	4798      	blx	r3
    2c48:	4b0b      	ldr	r3, [pc, #44]	; (2c78 <configure_EEPROM+0x74>)
    2c4a:	22c8      	movs	r2, #200	; 0xc8
    2c4c:	801a      	strh	r2, [r3, #0]
    2c4e:	4b0b      	ldr	r3, [pc, #44]	; (2c7c <configure_EEPROM+0x78>)
    2c50:	4798      	blx	r3
    2c52:	b00b      	add	sp, #44	; 0x2c
    2c54:	bd00      	pop	{pc}
    2c56:	46c0      	nop			; (mov r8, r8)
    2c58:	000006e9 	.word	0x000006e9
    2c5c:	41004418 	.word	0x41004418
    2c60:	00002710 	.word	0x00002710
    2c64:	000c0002 	.word	0x000c0002
    2c68:	000d0002 	.word	0x000d0002
    2c6c:	42001000 	.word	0x42001000
    2c70:	00000105 	.word	0x00000105
    2c74:	2000019c 	.word	0x2000019c
    2c78:	4200100a 	.word	0x4200100a
    2c7c:	00002bd1 	.word	0x00002bd1

00002c80 <LCD_DispFourOptionsIncrementingFrom>:
    2c80:	b5f8      	push	{r3, r4, r5, r6, r7, lr}
    2c82:	1c07      	adds	r7, r0, #0
    2c84:	1c0e      	adds	r6, r1, #0
    2c86:	2400      	movs	r4, #0
    2c88:	1c65      	adds	r5, r4, #1
    2c8a:	b2e8      	uxtb	r0, r5
    2c8c:	2101      	movs	r1, #1
    2c8e:	4b06      	ldr	r3, [pc, #24]	; (2ca8 <LCD_DispFourOptionsIncrementingFrom+0x28>)
    2c90:	4798      	blx	r3
    2c92:	19e4      	adds	r4, r4, r7
    2c94:	2014      	movs	r0, #20
    2c96:	4360      	muls	r0, r4
    2c98:	4b04      	ldr	r3, [pc, #16]	; (2cac <LCD_DispFourOptionsIncrementingFrom+0x2c>)
    2c9a:	1830      	adds	r0, r6, r0
    2c9c:	4798      	blx	r3
    2c9e:	1e2c      	subs	r4, r5, #0
    2ca0:	2c04      	cmp	r4, #4
    2ca2:	d1f1      	bne.n	2c88 <LCD_DispFourOptionsIncrementingFrom+0x8>
    2ca4:	bdf8      	pop	{r3, r4, r5, r6, r7, pc}
    2ca6:	46c0      	nop			; (mov r8, r8)
    2ca8:	00002609 	.word	0x00002609
    2cac:	000025ad 	.word	0x000025ad

00002cb0 <LCD_DispMenuArrow>:
    2cb0:	b570      	push	{r4, r5, r6, lr}
    2cb2:	2114      	movs	r1, #20
    2cb4:	4d0d      	ldr	r5, [pc, #52]	; (2cec <LCD_DispMenuArrow+0x3c>)
    2cb6:	1c06      	adds	r6, r0, #0
    2cb8:	2001      	movs	r0, #1
    2cba:	47a8      	blx	r5
    2cbc:	4c0c      	ldr	r4, [pc, #48]	; (2cf0 <LCD_DispMenuArrow+0x40>)
    2cbe:	2020      	movs	r0, #32
    2cc0:	47a0      	blx	r4
    2cc2:	2114      	movs	r1, #20
    2cc4:	2002      	movs	r0, #2
    2cc6:	47a8      	blx	r5
    2cc8:	2020      	movs	r0, #32
    2cca:	47a0      	blx	r4
    2ccc:	2114      	movs	r1, #20
    2cce:	2003      	movs	r0, #3
    2cd0:	47a8      	blx	r5
    2cd2:	2020      	movs	r0, #32
    2cd4:	47a0      	blx	r4
    2cd6:	2114      	movs	r1, #20
    2cd8:	2004      	movs	r0, #4
    2cda:	47a8      	blx	r5
    2cdc:	2020      	movs	r0, #32
    2cde:	47a0      	blx	r4
    2ce0:	1c30      	adds	r0, r6, #0
    2ce2:	2114      	movs	r1, #20
    2ce4:	47a8      	blx	r5
    2ce6:	207f      	movs	r0, #127	; 0x7f
    2ce8:	47a0      	blx	r4
    2cea:	bd70      	pop	{r4, r5, r6, pc}
    2cec:	00002609 	.word	0x00002609
    2cf0:	00002579 	.word	0x00002579

00002cf4 <LCD_MenuHandle>:
    2cf4:	b5f7      	push	{r0, r1, r2, r4, r5, r6, r7, lr}
    2cf6:	4f35      	ldr	r7, [pc, #212]	; (2dcc <LCD_MenuHandle+0xd8>)
    2cf8:	9001      	str	r0, [sp, #4]
    2cfa:	2000      	movs	r0, #0
    2cfc:	9100      	str	r1, [sp, #0]
    2cfe:	47b8      	blx	r7
    2d00:	2001      	movs	r0, #1
    2d02:	4a33      	ldr	r2, [pc, #204]	; (2dd0 <LCD_MenuHandle+0xdc>)
    2d04:	4790      	blx	r2
    2d06:	4b33      	ldr	r3, [pc, #204]	; (2dd4 <LCD_MenuHandle+0xe0>)
    2d08:	4798      	blx	r3
    2d0a:	2401      	movs	r4, #1
    2d0c:	2600      	movs	r6, #0
    2d0e:	1c25      	adds	r5, r4, #0
    2d10:	4b31      	ldr	r3, [pc, #196]	; (2dd8 <LCD_MenuHandle+0xe4>)
    2d12:	4798      	blx	r3
    2d14:	2800      	cmp	r0, #0
    2d16:	d0fb      	beq.n	2d10 <LCD_MenuHandle+0x1c>
    2d18:	4b30      	ldr	r3, [pc, #192]	; (2ddc <LCD_MenuHandle+0xe8>)
    2d1a:	4798      	blx	r3
    2d1c:	4b30      	ldr	r3, [pc, #192]	; (2de0 <LCD_MenuHandle+0xec>)
    2d1e:	781b      	ldrb	r3, [r3, #0]
    2d20:	2b00      	cmp	r3, #0
    2d22:	d01b      	beq.n	2d5c <LCD_MenuHandle+0x68>
    2d24:	3d01      	subs	r5, #1
    2d26:	9a01      	ldr	r2, [sp, #4]
    2d28:	b2eb      	uxtb	r3, r5
    2d2a:	3c01      	subs	r4, #1
    2d2c:	b2d5      	uxtb	r5, r2
    2d2e:	b25a      	sxtb	r2, r3
    2d30:	b2e4      	uxtb	r4, r4
    2d32:	2a00      	cmp	r2, #0
    2d34:	dd04      	ble.n	2d40 <LCD_MenuHandle+0x4c>
    2d36:	b269      	sxtb	r1, r5
    2d38:	2501      	movs	r5, #1
    2d3a:	428a      	cmp	r2, r1
    2d3c:	dc00      	bgt.n	2d40 <LCD_MenuHandle+0x4c>
    2d3e:	1c1d      	adds	r5, r3, #0
    2d40:	b263      	sxtb	r3, r4
    2d42:	2b00      	cmp	r3, #0
    2d44:	dc3c      	bgt.n	2dc0 <LCD_MenuHandle+0xcc>
    2d46:	2e00      	cmp	r6, #0
    2d48:	d102      	bne.n	2d50 <LCD_MenuHandle+0x5c>
    2d4a:	9801      	ldr	r0, [sp, #4]
    2d4c:	3804      	subs	r0, #4
    2d4e:	e026      	b.n	2d9e <LCD_MenuHandle+0xaa>
    2d50:	1e70      	subs	r0, r6, #1
    2d52:	b2c0      	uxtb	r0, r0
    2d54:	9900      	ldr	r1, [sp, #0]
    2d56:	b2c6      	uxtb	r6, r0
    2d58:	47b8      	blx	r7
    2d5a:	e01e      	b.n	2d9a <LCD_MenuHandle+0xa6>
    2d5c:	4b21      	ldr	r3, [pc, #132]	; (2de4 <LCD_MenuHandle+0xf0>)
    2d5e:	781b      	ldrb	r3, [r3, #0]
    2d60:	2b00      	cmp	r3, #0
    2d62:	d022      	beq.n	2daa <LCD_MenuHandle+0xb6>
    2d64:	3501      	adds	r5, #1
    2d66:	9a01      	ldr	r2, [sp, #4]
    2d68:	b2eb      	uxtb	r3, r5
    2d6a:	3401      	adds	r4, #1
    2d6c:	b2d5      	uxtb	r5, r2
    2d6e:	b25a      	sxtb	r2, r3
    2d70:	b2e4      	uxtb	r4, r4
    2d72:	2a00      	cmp	r2, #0
    2d74:	dd04      	ble.n	2d80 <LCD_MenuHandle+0x8c>
    2d76:	b269      	sxtb	r1, r5
    2d78:	2501      	movs	r5, #1
    2d7a:	428a      	cmp	r2, r1
    2d7c:	dc00      	bgt.n	2d80 <LCD_MenuHandle+0x8c>
    2d7e:	1c1d      	adds	r5, r3, #0
    2d80:	b263      	sxtb	r3, r4
    2d82:	2b04      	cmp	r3, #4
    2d84:	dd1c      	ble.n	2dc0 <LCD_MenuHandle+0xcc>
    2d86:	9a01      	ldr	r2, [sp, #4]
    2d88:	b273      	sxtb	r3, r6
    2d8a:	3a04      	subs	r2, #4
    2d8c:	1c70      	adds	r0, r6, #1
    2d8e:	4293      	cmp	r3, r2
    2d90:	d105      	bne.n	2d9e <LCD_MenuHandle+0xaa>
    2d92:	2000      	movs	r0, #0
    2d94:	9900      	ldr	r1, [sp, #0]
    2d96:	47b8      	blx	r7
    2d98:	2600      	movs	r6, #0
    2d9a:	2401      	movs	r4, #1
    2d9c:	e010      	b.n	2dc0 <LCD_MenuHandle+0xcc>
    2d9e:	b2c0      	uxtb	r0, r0
    2da0:	9900      	ldr	r1, [sp, #0]
    2da2:	b2c6      	uxtb	r6, r0
    2da4:	2404      	movs	r4, #4
    2da6:	47b8      	blx	r7
    2da8:	e00a      	b.n	2dc0 <LCD_MenuHandle+0xcc>
    2daa:	4b0f      	ldr	r3, [pc, #60]	; (2de8 <LCD_MenuHandle+0xf4>)
    2dac:	7818      	ldrb	r0, [r3, #0]
    2dae:	b2c0      	uxtb	r0, r0
    2db0:	2800      	cmp	r0, #0
    2db2:	d001      	beq.n	2db8 <LCD_MenuHandle+0xc4>
    2db4:	b2e8      	uxtb	r0, r5
    2db6:	e007      	b.n	2dc8 <LCD_MenuHandle+0xd4>
    2db8:	4b0c      	ldr	r3, [pc, #48]	; (2dec <LCD_MenuHandle+0xf8>)
    2dba:	781b      	ldrb	r3, [r3, #0]
    2dbc:	2b00      	cmp	r3, #0
    2dbe:	d103      	bne.n	2dc8 <LCD_MenuHandle+0xd4>
    2dc0:	b2e0      	uxtb	r0, r4
    2dc2:	4b03      	ldr	r3, [pc, #12]	; (2dd0 <LCD_MenuHandle+0xdc>)
    2dc4:	4798      	blx	r3
    2dc6:	e7a3      	b.n	2d10 <LCD_MenuHandle+0x1c>
    2dc8:	bdfe      	pop	{r1, r2, r3, r4, r5, r6, r7, pc}
    2dca:	46c0      	nop			; (mov r8, r8)
    2dcc:	00002c81 	.word	0x00002c81
    2dd0:	00002cb1 	.word	0x00002cb1
    2dd4:	0000067d 	.word	0x0000067d
    2dd8:	0000048d 	.word	0x0000048d
    2ddc:	000004c5 	.word	0x000004c5
    2de0:	200000c0 	.word	0x200000c0
    2de4:	200000c1 	.word	0x200000c1
    2de8:	200000bf 	.word	0x200000bf
    2dec:	200000bd 	.word	0x200000bd

00002df0 <LCD_HorizCurPos>:
    2df0:	b570      	push	{r4, r5, r6, lr}
    2df2:	1c0d      	adds	r5, r1, #0
    2df4:	a904      	add	r1, sp, #16
    2df6:	780e      	ldrb	r6, [r1, #0]
    2df8:	a905      	add	r1, sp, #20
    2dfa:	1c04      	adds	r4, r0, #0
    2dfc:	7808      	ldrb	r0, [r1, #0]
    2dfe:	a906      	add	r1, sp, #24
    2e00:	7809      	ldrb	r1, [r1, #0]
    2e02:	2c02      	cmp	r4, #2
    2e04:	d006      	beq.n	2e14 <LCD_HorizCurPos+0x24>
    2e06:	2c03      	cmp	r4, #3
    2e08:	d006      	beq.n	2e18 <LCD_HorizCurPos+0x28>
    2e0a:	2c01      	cmp	r4, #1
    2e0c:	d107      	bne.n	2e1e <LCD_HorizCurPos+0x2e>
    2e0e:	1c28      	adds	r0, r5, #0
    2e10:	1c11      	adds	r1, r2, #0
    2e12:	e001      	b.n	2e18 <LCD_HorizCurPos+0x28>
    2e14:	1c18      	adds	r0, r3, #0
    2e16:	1c31      	adds	r1, r6, #0
    2e18:	4b03      	ldr	r3, [pc, #12]	; (2e28 <LCD_HorizCurPos+0x38>)
    2e1a:	4798      	blx	r3
    2e1c:	e003      	b.n	2e26 <LCD_HorizCurPos+0x36>
    2e1e:	2002      	movs	r0, #2
    2e20:	4902      	ldr	r1, [pc, #8]	; (2e2c <LCD_HorizCurPos+0x3c>)
    2e22:	4b03      	ldr	r3, [pc, #12]	; (2e30 <LCD_HorizCurPos+0x40>)
    2e24:	4798      	blx	r3
    2e26:	bd70      	pop	{r4, r5, r6, pc}
    2e28:	00002609 	.word	0x00002609
    2e2c:	000066c7 	.word	0x000066c7
    2e30:	00002635 	.word	0x00002635

00002e34 <LCD_HorizontalScroll>:
    2e34:	b5f0      	push	{r4, r5, r6, r7, lr}
    2e36:	b08b      	sub	sp, #44	; 0x2c
    2e38:	9307      	str	r3, [sp, #28]
    2e3a:	ab10      	add	r3, sp, #64	; 0x40
    2e3c:	781b      	ldrb	r3, [r3, #0]
    2e3e:	1c07      	adds	r7, r0, #0
    2e40:	9308      	str	r3, [sp, #32]
    2e42:	ab11      	add	r3, sp, #68	; 0x44
    2e44:	781d      	ldrb	r5, [r3, #0]
    2e46:	ab12      	add	r3, sp, #72	; 0x48
    2e48:	781b      	ldrb	r3, [r3, #0]
    2e4a:	9206      	str	r2, [sp, #24]
    2e4c:	9309      	str	r3, [sp, #36]	; 0x24
    2e4e:	4b29      	ldr	r3, [pc, #164]	; (2ef4 <LCD_HorizontalScroll+0xc0>)
    2e50:	1c0e      	adds	r6, r1, #0
    2e52:	4798      	blx	r3
    2e54:	426b      	negs	r3, r5
    2e56:	416b      	adcs	r3, r5
    2e58:	2203      	movs	r2, #3
    2e5a:	1ad2      	subs	r2, r2, r3
    2e5c:	9205      	str	r2, [sp, #20]
    2e5e:	9b09      	ldr	r3, [sp, #36]	; 0x24
    2e60:	9a08      	ldr	r2, [sp, #32]
    2e62:	9302      	str	r3, [sp, #8]
    2e64:	9200      	str	r2, [sp, #0]
    2e66:	1c38      	adds	r0, r7, #0
    2e68:	9b07      	ldr	r3, [sp, #28]
    2e6a:	b2fc      	uxtb	r4, r7
    2e6c:	9501      	str	r5, [sp, #4]
    2e6e:	1c31      	adds	r1, r6, #0
    2e70:	9a06      	ldr	r2, [sp, #24]
    2e72:	4f21      	ldr	r7, [pc, #132]	; (2ef8 <LCD_HorizontalScroll+0xc4>)
    2e74:	47b8      	blx	r7
    2e76:	4b21      	ldr	r3, [pc, #132]	; (2efc <LCD_HorizontalScroll+0xc8>)
    2e78:	4798      	blx	r3
    2e7a:	4b21      	ldr	r3, [pc, #132]	; (2f00 <LCD_HorizontalScroll+0xcc>)
    2e7c:	4798      	blx	r3
    2e7e:	2800      	cmp	r0, #0
    2e80:	d0fb      	beq.n	2e7a <LCD_HorizontalScroll+0x46>
    2e82:	4b20      	ldr	r3, [pc, #128]	; (2f04 <LCD_HorizontalScroll+0xd0>)
    2e84:	4798      	blx	r3
    2e86:	4b20      	ldr	r3, [pc, #128]	; (2f08 <LCD_HorizontalScroll+0xd4>)
    2e88:	781b      	ldrb	r3, [r3, #0]
    2e8a:	2b00      	cmp	r3, #0
    2e8c:	d007      	beq.n	2e9e <LCD_HorizontalScroll+0x6a>
    2e8e:	3401      	adds	r4, #1
    2e90:	b2e4      	uxtb	r4, r4
    2e92:	9a05      	ldr	r2, [sp, #20]
    2e94:	b263      	sxtb	r3, r4
    2e96:	4293      	cmp	r3, r2
    2e98:	dd1d      	ble.n	2ed6 <LCD_HorizontalScroll+0xa2>
    2e9a:	2401      	movs	r4, #1
    2e9c:	e01b      	b.n	2ed6 <LCD_HorizontalScroll+0xa2>
    2e9e:	4b1b      	ldr	r3, [pc, #108]	; (2f0c <LCD_HorizontalScroll+0xd8>)
    2ea0:	781b      	ldrb	r3, [r3, #0]
    2ea2:	2b00      	cmp	r3, #0
    2ea4:	d006      	beq.n	2eb4 <LCD_HorizontalScroll+0x80>
    2ea6:	3c01      	subs	r4, #1
    2ea8:	b2e4      	uxtb	r4, r4
    2eaa:	b263      	sxtb	r3, r4
    2eac:	2b00      	cmp	r3, #0
    2eae:	dc12      	bgt.n	2ed6 <LCD_HorizontalScroll+0xa2>
    2eb0:	9c05      	ldr	r4, [sp, #20]
    2eb2:	e010      	b.n	2ed6 <LCD_HorizontalScroll+0xa2>
    2eb4:	4b16      	ldr	r3, [pc, #88]	; (2f10 <LCD_HorizontalScroll+0xdc>)
    2eb6:	781f      	ldrb	r7, [r3, #0]
    2eb8:	b2ff      	uxtb	r7, r7
    2eba:	2f00      	cmp	r7, #0
    2ebc:	d003      	beq.n	2ec6 <LCD_HorizontalScroll+0x92>
    2ebe:	4b15      	ldr	r3, [pc, #84]	; (2f14 <LCD_HorizontalScroll+0xe0>)
    2ec0:	4798      	blx	r3
    2ec2:	b2e0      	uxtb	r0, r4
    2ec4:	e013      	b.n	2eee <LCD_HorizontalScroll+0xba>
    2ec6:	4b14      	ldr	r3, [pc, #80]	; (2f18 <LCD_HorizontalScroll+0xe4>)
    2ec8:	781b      	ldrb	r3, [r3, #0]
    2eca:	2b00      	cmp	r3, #0
    2ecc:	d003      	beq.n	2ed6 <LCD_HorizontalScroll+0xa2>
    2ece:	4b11      	ldr	r3, [pc, #68]	; (2f14 <LCD_HorizontalScroll+0xe0>)
    2ed0:	4798      	blx	r3
    2ed2:	1c38      	adds	r0, r7, #0
    2ed4:	e00b      	b.n	2eee <LCD_HorizontalScroll+0xba>
    2ed6:	9b08      	ldr	r3, [sp, #32]
    2ed8:	9a09      	ldr	r2, [sp, #36]	; 0x24
    2eda:	9300      	str	r3, [sp, #0]
    2edc:	9202      	str	r2, [sp, #8]
    2ede:	b2e0      	uxtb	r0, r4
    2ee0:	9501      	str	r5, [sp, #4]
    2ee2:	1c31      	adds	r1, r6, #0
    2ee4:	9a06      	ldr	r2, [sp, #24]
    2ee6:	9b07      	ldr	r3, [sp, #28]
    2ee8:	4f03      	ldr	r7, [pc, #12]	; (2ef8 <LCD_HorizontalScroll+0xc4>)
    2eea:	47b8      	blx	r7
    2eec:	e7c5      	b.n	2e7a <LCD_HorizontalScroll+0x46>
    2eee:	b00b      	add	sp, #44	; 0x2c
    2ef0:	bdf0      	pop	{r4, r5, r6, r7, pc}
    2ef2:	46c0      	nop			; (mov r8, r8)
    2ef4:	00002721 	.word	0x00002721
    2ef8:	00002df1 	.word	0x00002df1
    2efc:	0000067d 	.word	0x0000067d
    2f00:	0000048d 	.word	0x0000048d
    2f04:	000004c5 	.word	0x000004c5
    2f08:	200000bc 	.word	0x200000bc
    2f0c:	200000be 	.word	0x200000be
    2f10:	200000bf 	.word	0x200000bf
    2f14:	00002731 	.word	0x00002731
    2f18:	200000bd 	.word	0x200000bd

00002f1c <Config_Contrast_PWM>:
    2f1c:	b510      	push	{r4, lr}
    2f1e:	4b0d      	ldr	r3, [pc, #52]	; (2f54 <Config_Contrast_PWM+0x38>)
    2f20:	2280      	movs	r2, #128	; 0x80
    2f22:	6819      	ldr	r1, [r3, #0]
    2f24:	0212      	lsls	r2, r2, #8
    2f26:	430a      	orrs	r2, r1
    2f28:	601a      	str	r2, [r3, #0]
    2f2a:	4c0b      	ldr	r4, [pc, #44]	; (2f58 <Config_Contrast_PWM+0x3c>)
    2f2c:	2000      	movs	r0, #0
    2f2e:	2116      	movs	r1, #22
    2f30:	4b0a      	ldr	r3, [pc, #40]	; (2f5c <Config_Contrast_PWM+0x40>)
    2f32:	4798      	blx	r3
    2f34:	2301      	movs	r3, #1
    2f36:	8023      	strh	r3, [r4, #0]
    2f38:	4b09      	ldr	r3, [pc, #36]	; (2f60 <Config_Contrast_PWM+0x44>)
    2f3a:	2240      	movs	r2, #64	; 0x40
    2f3c:	701a      	strb	r2, [r3, #0]
    2f3e:	2015      	movs	r0, #21
    2f40:	2104      	movs	r1, #4
    2f42:	4b08      	ldr	r3, [pc, #32]	; (2f64 <Config_Contrast_PWM+0x48>)
    2f44:	4798      	blx	r3
    2f46:	4b08      	ldr	r3, [pc, #32]	; (2f68 <Config_Contrast_PWM+0x4c>)
    2f48:	227f      	movs	r2, #127	; 0x7f
    2f4a:	8023      	strh	r3, [r4, #0]
    2f4c:	4b07      	ldr	r3, [pc, #28]	; (2f6c <Config_Contrast_PWM+0x50>)
    2f4e:	701a      	strb	r2, [r3, #0]
    2f50:	bd10      	pop	{r4, pc}
    2f52:	46c0      	nop			; (mov r8, r8)
    2f54:	40000420 	.word	0x40000420
    2f58:	42003c00 	.word	0x42003c00
    2f5c:	000006d1 	.word	0x000006d1
    2f60:	42003c05 	.word	0x42003c05
    2f64:	00000825 	.word	0x00000825
    2f68:	00000346 	.word	0x00000346
    2f6c:	42003c19 	.word	0x42003c19

00002f70 <Config_LCD>:
    2f70:	b510      	push	{r4, lr}
    2f72:	4b08      	ldr	r3, [pc, #32]	; (2f94 <Config_LCD+0x24>)
    2f74:	4798      	blx	r3
    2f76:	4b08      	ldr	r3, [pc, #32]	; (2f98 <Config_LCD+0x28>)
    2f78:	4798      	blx	r3
    2f7a:	4b08      	ldr	r3, [pc, #32]	; (2f9c <Config_LCD+0x2c>)
    2f7c:	4798      	blx	r3
    2f7e:	4c08      	ldr	r4, [pc, #32]	; (2fa0 <Config_LCD+0x30>)
    2f80:	2000      	movs	r0, #0
    2f82:	4908      	ldr	r1, [pc, #32]	; (2fa4 <Config_LCD+0x34>)
    2f84:	47a0      	blx	r4
    2f86:	2001      	movs	r0, #1
    2f88:	4907      	ldr	r1, [pc, #28]	; (2fa8 <Config_LCD+0x38>)
    2f8a:	47a0      	blx	r4
    2f8c:	2002      	movs	r0, #2
    2f8e:	4907      	ldr	r1, [pc, #28]	; (2fac <Config_LCD+0x3c>)
    2f90:	47a0      	blx	r4
    2f92:	bd10      	pop	{r4, pc}
    2f94:	00002f1d 	.word	0x00002f1d
    2f98:	00002785 	.word	0x00002785
    2f9c:	00002731 	.word	0x00002731
    2fa0:	00002691 	.word	0x00002691
    2fa4:	20000001 	.word	0x20000001
    2fa8:	20000009 	.word	0x20000009
    2fac:	20000011 	.word	0x20000011

00002fb0 <Disp_IntroLcdMsgs>:
    2fb0:	b570      	push	{r4, r5, r6, lr}
    2fb2:	4b16      	ldr	r3, [pc, #88]	; (300c <Disp_IntroLcdMsgs+0x5c>)
    2fb4:	4798      	blx	r3
    2fb6:	4b16      	ldr	r3, [pc, #88]	; (3010 <Disp_IntroLcdMsgs+0x60>)
    2fb8:	4798      	blx	r3
    2fba:	4c16      	ldr	r4, [pc, #88]	; (3014 <Disp_IntroLcdMsgs+0x64>)
    2fbc:	2109      	movs	r1, #9
    2fbe:	2001      	movs	r0, #1
    2fc0:	47a0      	blx	r4
    2fc2:	4d15      	ldr	r5, [pc, #84]	; (3018 <Disp_IntroLcdMsgs+0x68>)
    2fc4:	4815      	ldr	r0, [pc, #84]	; (301c <Disp_IntroLcdMsgs+0x6c>)
    2fc6:	47a8      	blx	r5
    2fc8:	210a      	movs	r1, #10
    2fca:	2001      	movs	r0, #1
    2fcc:	47a0      	blx	r4
    2fce:	4b14      	ldr	r3, [pc, #80]	; (3020 <Disp_IntroLcdMsgs+0x70>)
    2fd0:	2001      	movs	r0, #1
    2fd2:	4798      	blx	r3
    2fd4:	2002      	movs	r0, #2
    2fd6:	1c01      	adds	r1, r0, #0
    2fd8:	47a0      	blx	r4
    2fda:	4812      	ldr	r0, [pc, #72]	; (3024 <Disp_IntroLcdMsgs+0x74>)
    2fdc:	47a8      	blx	r5
    2fde:	2102      	movs	r1, #2
    2fe0:	2003      	movs	r0, #3
    2fe2:	47a0      	blx	r4
    2fe4:	4810      	ldr	r0, [pc, #64]	; (3028 <Disp_IntroLcdMsgs+0x78>)
    2fe6:	47a8      	blx	r5
    2fe8:	4b10      	ldr	r3, [pc, #64]	; (302c <Disp_IntroLcdMsgs+0x7c>)
    2fea:	4798      	blx	r3
    2fec:	4e10      	ldr	r6, [pc, #64]	; (3030 <Disp_IntroLcdMsgs+0x80>)
    2fee:	2001      	movs	r0, #1
    2ff0:	47b0      	blx	r6
    2ff2:	2002      	movs	r0, #2
    2ff4:	1c01      	adds	r1, r0, #0
    2ff6:	47a0      	blx	r4
    2ff8:	480e      	ldr	r0, [pc, #56]	; (3034 <Disp_IntroLcdMsgs+0x84>)
    2ffa:	47a8      	blx	r5
    2ffc:	2102      	movs	r1, #2
    2ffe:	2003      	movs	r0, #3
    3000:	47a0      	blx	r4
    3002:	480d      	ldr	r0, [pc, #52]	; (3038 <Disp_IntroLcdMsgs+0x88>)
    3004:	47a8      	blx	r5
    3006:	2000      	movs	r0, #0
    3008:	47b0      	blx	r6
    300a:	bd70      	pop	{r4, r5, r6, pc}
    300c:	00002755 	.word	0x00002755
    3010:	000026bd 	.word	0x000026bd
    3014:	00002609 	.word	0x00002609
    3018:	000025ad 	.word	0x000025ad
    301c:	000062ec 	.word	0x000062ec
    3020:	00002579 	.word	0x00002579
    3024:	000066d9 	.word	0x000066d9
    3028:	000066ec 	.word	0x000066ec
    302c:	0000276d 	.word	0x0000276d
    3030:	00002ba9 	.word	0x00002ba9
    3034:	000066ff 	.word	0x000066ff
    3038:	00006712 	.word	0x00006712

0000303c <Spi_Get3BytesfromExtADC>:
    303c:	b5f0      	push	{r4, r5, r6, r7, lr}
    303e:	b087      	sub	sp, #28
    3040:	466b      	mov	r3, sp
    3042:	73d8      	strb	r0, [r3, #15]
    3044:	466a      	mov	r2, sp
    3046:	2300      	movs	r3, #0
    3048:	82d3      	strh	r3, [r2, #22]
    304a:	2007      	movs	r0, #7
    304c:	4c53      	ldr	r4, [pc, #332]	; (319c <Spi_Get3BytesfromExtADC+0x160>)
    304e:	47a0      	blx	r4
    3050:	2800      	cmp	r0, #0
    3052:	d0fa      	beq.n	304a <Spi_Get3BytesfromExtADC+0xe>
    3054:	4f52      	ldr	r7, [pc, #328]	; (31a0 <Spi_Get3BytesfromExtADC+0x164>)
    3056:	2580      	movs	r5, #128	; 0x80
    3058:	00ad      	lsls	r5, r5, #2
    305a:	4c52      	ldr	r4, [pc, #328]	; (31a4 <Spi_Get3BytesfromExtADC+0x168>)
    305c:	2005      	movs	r0, #5
    305e:	4e52      	ldr	r6, [pc, #328]	; (31a8 <Spi_Get3BytesfromExtADC+0x16c>)
    3060:	603d      	str	r5, [r7, #0]
    3062:	47a0      	blx	r4
    3064:	2306      	movs	r3, #6
    3066:	8033      	strh	r3, [r6, #0]
    3068:	2005      	movs	r0, #5
    306a:	4e50      	ldr	r6, [pc, #320]	; (31ac <Spi_Get3BytesfromExtADC+0x170>)
    306c:	47a0      	blx	r4
    306e:	4a4e      	ldr	r2, [pc, #312]	; (31a8 <Spi_Get3BytesfromExtADC+0x16c>)
    3070:	6035      	str	r5, [r6, #0]
    3072:	8813      	ldrh	r3, [r2, #0]
    3074:	4c4e      	ldr	r4, [pc, #312]	; (31b0 <Spi_Get3BytesfromExtADC+0x174>)
    3076:	b2db      	uxtb	r3, r3
    3078:	9302      	str	r3, [sp, #8]
    307a:	2305      	movs	r3, #5
    307c:	9300      	str	r3, [sp, #0]
    307e:	9802      	ldr	r0, [sp, #8]
    3080:	2100      	movs	r1, #0
    3082:	2203      	movs	r2, #3
    3084:	2301      	movs	r3, #1
    3086:	47a0      	blx	r4
    3088:	9e02      	ldr	r6, [sp, #8]
    308a:	4c46      	ldr	r4, [pc, #280]	; (31a4 <Spi_Get3BytesfromExtADC+0x168>)
    308c:	2eaa      	cmp	r6, #170	; 0xaa
    308e:	d1dc      	bne.n	304a <Spi_Get3BytesfromExtADC+0xe>
    3090:	2007      	movs	r0, #7
    3092:	4e42      	ldr	r6, [pc, #264]	; (319c <Spi_Get3BytesfromExtADC+0x160>)
    3094:	47b0      	blx	r6
    3096:	2800      	cmp	r0, #0
    3098:	d0fa      	beq.n	3090 <Spi_Get3BytesfromExtADC+0x54>
    309a:	603d      	str	r5, [r7, #0]
    309c:	2005      	movs	r0, #5
    309e:	47a0      	blx	r4
    30a0:	4a41      	ldr	r2, [pc, #260]	; (31a8 <Spi_Get3BytesfromExtADC+0x16c>)
    30a2:	2301      	movs	r3, #1
    30a4:	8013      	strh	r3, [r2, #0]
    30a6:	2005      	movs	r0, #5
    30a8:	47a0      	blx	r4
    30aa:	4b40      	ldr	r3, [pc, #256]	; (31ac <Spi_Get3BytesfromExtADC+0x170>)
    30ac:	4e40      	ldr	r6, [pc, #256]	; (31b0 <Spi_Get3BytesfromExtADC+0x174>)
    30ae:	601d      	str	r5, [r3, #0]
    30b0:	4d3d      	ldr	r5, [pc, #244]	; (31a8 <Spi_Get3BytesfromExtADC+0x16c>)
    30b2:	2100      	movs	r1, #0
    30b4:	882b      	ldrh	r3, [r5, #0]
    30b6:	4d3f      	ldr	r5, [pc, #252]	; (31b4 <Spi_Get3BytesfromExtADC+0x178>)
    30b8:	b2db      	uxtb	r3, r3
    30ba:	702b      	strb	r3, [r5, #0]
    30bc:	7828      	ldrb	r0, [r5, #0]
    30be:	2305      	movs	r3, #5
    30c0:	9300      	str	r3, [sp, #0]
    30c2:	b2c0      	uxtb	r0, r0
    30c4:	2203      	movs	r2, #3
    30c6:	2302      	movs	r3, #2
    30c8:	47b0      	blx	r6
    30ca:	1c2e      	adds	r6, r5, #0
    30cc:	2007      	movs	r0, #7
    30ce:	4d33      	ldr	r5, [pc, #204]	; (319c <Spi_Get3BytesfromExtADC+0x160>)
    30d0:	47a8      	blx	r5
    30d2:	2800      	cmp	r0, #0
    30d4:	d0fa      	beq.n	30cc <Spi_Get3BytesfromExtADC+0x90>
    30d6:	2280      	movs	r2, #128	; 0x80
    30d8:	0092      	lsls	r2, r2, #2
    30da:	603a      	str	r2, [r7, #0]
    30dc:	4d32      	ldr	r5, [pc, #200]	; (31a8 <Spi_Get3BytesfromExtADC+0x16c>)
    30de:	2005      	movs	r0, #5
    30e0:	47a0      	blx	r4
    30e2:	2301      	movs	r3, #1
    30e4:	802b      	strh	r3, [r5, #0]
    30e6:	2005      	movs	r0, #5
    30e8:	47a0      	blx	r4
    30ea:	4b30      	ldr	r3, [pc, #192]	; (31ac <Spi_Get3BytesfromExtADC+0x170>)
    30ec:	2280      	movs	r2, #128	; 0x80
    30ee:	0092      	lsls	r2, r2, #2
    30f0:	601a      	str	r2, [r3, #0]
    30f2:	882a      	ldrh	r2, [r5, #0]
    30f4:	4b30      	ldr	r3, [pc, #192]	; (31b8 <Spi_Get3BytesfromExtADC+0x17c>)
    30f6:	b2d2      	uxtb	r2, r2
    30f8:	701a      	strb	r2, [r3, #0]
    30fa:	7818      	ldrb	r0, [r3, #0]
    30fc:	2203      	movs	r2, #3
    30fe:	2305      	movs	r3, #5
    3100:	9300      	str	r3, [sp, #0]
    3102:	4d2b      	ldr	r5, [pc, #172]	; (31b0 <Spi_Get3BytesfromExtADC+0x174>)
    3104:	b2c0      	uxtb	r0, r0
    3106:	2100      	movs	r1, #0
    3108:	1c13      	adds	r3, r2, #0
    310a:	47a8      	blx	r5
    310c:	2580      	movs	r5, #128	; 0x80
    310e:	00ad      	lsls	r5, r5, #2
    3110:	2007      	movs	r0, #7
    3112:	4a22      	ldr	r2, [pc, #136]	; (319c <Spi_Get3BytesfromExtADC+0x160>)
    3114:	4790      	blx	r2
    3116:	2800      	cmp	r0, #0
    3118:	d0fa      	beq.n	3110 <Spi_Get3BytesfromExtADC+0xd4>
    311a:	603d      	str	r5, [r7, #0]
    311c:	2005      	movs	r0, #5
    311e:	47a0      	blx	r4
    3120:	4a21      	ldr	r2, [pc, #132]	; (31a8 <Spi_Get3BytesfromExtADC+0x16c>)
    3122:	2301      	movs	r3, #1
    3124:	8013      	strh	r3, [r2, #0]
    3126:	2005      	movs	r0, #5
    3128:	47a0      	blx	r4
    312a:	4b20      	ldr	r3, [pc, #128]	; (31ac <Spi_Get3BytesfromExtADC+0x170>)
    312c:	4c1e      	ldr	r4, [pc, #120]	; (31a8 <Spi_Get3BytesfromExtADC+0x16c>)
    312e:	601d      	str	r5, [r3, #0]
    3130:	8822      	ldrh	r2, [r4, #0]
    3132:	4b22      	ldr	r3, [pc, #136]	; (31bc <Spi_Get3BytesfromExtADC+0x180>)
    3134:	b2d2      	uxtb	r2, r2
    3136:	701a      	strb	r2, [r3, #0]
    3138:	7818      	ldrb	r0, [r3, #0]
    313a:	2305      	movs	r3, #5
    313c:	b2c0      	uxtb	r0, r0
    313e:	9300      	str	r3, [sp, #0]
    3140:	2100      	movs	r1, #0
    3142:	2203      	movs	r2, #3
    3144:	2304      	movs	r3, #4
    3146:	4d1a      	ldr	r5, [pc, #104]	; (31b0 <Spi_Get3BytesfromExtADC+0x174>)
    3148:	47a8      	blx	r5
    314a:	7833      	ldrb	r3, [r6, #0]
    314c:	466c      	mov	r4, sp
    314e:	09db      	lsrs	r3, r3, #7
    3150:	7563      	strb	r3, [r4, #21]
    3152:	7832      	ldrb	r2, [r6, #0]
    3154:	237f      	movs	r3, #127	; 0x7f
    3156:	4013      	ands	r3, r2
    3158:	7033      	strb	r3, [r6, #0]
    315a:	2002      	movs	r0, #2
    315c:	4b18      	ldr	r3, [pc, #96]	; (31c0 <Spi_Get3BytesfromExtADC+0x184>)
    315e:	2109      	movs	r1, #9
    3160:	4798      	blx	r3
    3162:	7d62      	ldrb	r2, [r4, #21]
    3164:	4b17      	ldr	r3, [pc, #92]	; (31c4 <Spi_Get3BytesfromExtADC+0x188>)
    3166:	202d      	movs	r0, #45	; 0x2d
    3168:	2a00      	cmp	r2, #0
    316a:	d100      	bne.n	316e <Spi_Get3BytesfromExtADC+0x132>
    316c:	202b      	movs	r0, #43	; 0x2b
    316e:	4798      	blx	r3
    3170:	4a11      	ldr	r2, [pc, #68]	; (31b8 <Spi_Get3BytesfromExtADC+0x17c>)
    3172:	7833      	ldrb	r3, [r6, #0]
    3174:	7812      	ldrb	r2, [r2, #0]
    3176:	021b      	lsls	r3, r3, #8
    3178:	4313      	orrs	r3, r2
    317a:	466e      	mov	r6, sp
    317c:	82f3      	strh	r3, [r6, #22]
    317e:	8af0      	ldrh	r0, [r6, #22]
    3180:	230a      	movs	r3, #10
    3182:	9300      	str	r3, [sp, #0]
    3184:	2100      	movs	r1, #0
    3186:	2206      	movs	r2, #6
    3188:	b280      	uxth	r0, r0
    318a:	2302      	movs	r3, #2
    318c:	4c08      	ldr	r4, [pc, #32]	; (31b0 <Spi_Get3BytesfromExtADC+0x174>)
    318e:	47a0      	blx	r4
    3190:	2032      	movs	r0, #50	; 0x32
    3192:	4b0d      	ldr	r3, [pc, #52]	; (31c8 <Spi_Get3BytesfromExtADC+0x18c>)
    3194:	4798      	blx	r3
    3196:	b007      	add	sp, #28
    3198:	bdf0      	pop	{r4, r5, r6, r7, pc}
    319a:	46c0      	nop			; (mov r8, r8)
    319c:	00000801 	.word	0x00000801
    31a0:	41004414 	.word	0x41004414
    31a4:	00002b5d 	.word	0x00002b5d
    31a8:	42000818 	.word	0x42000818
    31ac:	41004418 	.word	0x41004418
    31b0:	00000aa9 	.word	0x00000aa9
    31b4:	20000118 	.word	0x20000118
    31b8:	20000100 	.word	0x20000100
    31bc:	2000016c 	.word	0x2000016c
    31c0:	00002609 	.word	0x00002609
    31c4:	00002579 	.word	0x00002579
    31c8:	00002b8d 	.word	0x00002b8d

000031cc <Initialize_Hardware>:
    31cc:	b510      	push	{r4, lr}
    31ce:	4b0c      	ldr	r3, [pc, #48]	; (3200 <Initialize_Hardware+0x34>)
    31d0:	4798      	blx	r3
    31d2:	4b0c      	ldr	r3, [pc, #48]	; (3204 <Initialize_Hardware+0x38>)
    31d4:	4798      	blx	r3
    31d6:	4b0c      	ldr	r3, [pc, #48]	; (3208 <Initialize_Hardware+0x3c>)
    31d8:	4798      	blx	r3
    31da:	4b0c      	ldr	r3, [pc, #48]	; (320c <Initialize_Hardware+0x40>)
    31dc:	2000      	movs	r0, #0
    31de:	490c      	ldr	r1, [pc, #48]	; (3210 <Initialize_Hardware+0x44>)
    31e0:	4798      	blx	r3
    31e2:	4c0c      	ldr	r4, [pc, #48]	; (3214 <Initialize_Hardware+0x48>)
    31e4:	2007      	movs	r0, #7
    31e6:	2102      	movs	r1, #2
    31e8:	47a0      	blx	r4
    31ea:	2023      	movs	r0, #35	; 0x23
    31ec:	2101      	movs	r1, #1
    31ee:	47a0      	blx	r4
    31f0:	2009      	movs	r0, #9
    31f2:	2100      	movs	r1, #0
    31f4:	47a0      	blx	r4
    31f6:	4b08      	ldr	r3, [pc, #32]	; (3218 <Initialize_Hardware+0x4c>)
    31f8:	2280      	movs	r2, #128	; 0x80
    31fa:	0092      	lsls	r2, r2, #2
    31fc:	601a      	str	r2, [r3, #0]
    31fe:	bd10      	pop	{r4, pc}
    3200:	00000431 	.word	0x00000431
    3204:	00002f71 	.word	0x00002f71
    3208:	00002c05 	.word	0x00002c05
    320c:	0000088d 	.word	0x0000088d
    3210:	001e8480 	.word	0x001e8480
    3214:	000006e9 	.word	0x000006e9
    3218:	41004418 	.word	0x41004418

0000321c <main>:
    321c:	b510      	push	{r4, lr}
    321e:	4b11      	ldr	r3, [pc, #68]	; (3264 <main+0x48>)
    3220:	4798      	blx	r3
    3222:	4b11      	ldr	r3, [pc, #68]	; (3268 <main+0x4c>)
    3224:	4798      	blx	r3
    3226:	4b11      	ldr	r3, [pc, #68]	; (326c <main+0x50>)
    3228:	4798      	blx	r3
    322a:	4b11      	ldr	r3, [pc, #68]	; (3270 <main+0x54>)
    322c:	4798      	blx	r3
    322e:	4b11      	ldr	r3, [pc, #68]	; (3274 <main+0x58>)
    3230:	4798      	blx	r3
    3232:	2114      	movs	r1, #20
    3234:	2003      	movs	r0, #3
    3236:	4c10      	ldr	r4, [pc, #64]	; (3278 <main+0x5c>)
    3238:	47a0      	blx	r4
    323a:	4b10      	ldr	r3, [pc, #64]	; (327c <main+0x60>)
    323c:	207f      	movs	r0, #127	; 0x7f
    323e:	4798      	blx	r3
    3240:	2001      	movs	r0, #1
    3242:	1c01      	adds	r1, r0, #0
    3244:	47a0      	blx	r4
    3246:	4b0e      	ldr	r3, [pc, #56]	; (3280 <main+0x64>)
    3248:	781a      	ldrb	r2, [r3, #0]
    324a:	4b0e      	ldr	r3, [pc, #56]	; (3284 <main+0x68>)
    324c:	7818      	ldrb	r0, [r3, #0]
    324e:	4b0e      	ldr	r3, [pc, #56]	; (3288 <main+0x6c>)
    3250:	1882      	adds	r2, r0, r2
    3252:	7819      	ldrb	r1, [r3, #0]
    3254:	188a      	adds	r2, r1, r2
    3256:	b2d2      	uxtb	r2, r2
    3258:	701a      	strb	r2, [r3, #0]
    325a:	2001      	movs	r0, #1
    325c:	4b0b      	ldr	r3, [pc, #44]	; (328c <main+0x70>)
    325e:	4798      	blx	r3
    3260:	e7fb      	b.n	325a <main+0x3e>
    3262:	46c0      	nop			; (mov r8, r8)
    3264:	0000149d 	.word	0x0000149d
    3268:	000031cd 	.word	0x000031cd
    326c:	000023ad 	.word	0x000023ad
    3270:	00002fb1 	.word	0x00002fb1
    3274:	00002741 	.word	0x00002741
    3278:	00002609 	.word	0x00002609
    327c:	00002579 	.word	0x00002579
    3280:	2000016c 	.word	0x2000016c
    3284:	20000100 	.word	0x20000100
    3288:	20000118 	.word	0x20000118
    328c:	0000303d 	.word	0x0000303d

00003290 <sqrt>:
    3290:	b5f0      	push	{r4, r5, r6, r7, lr}
    3292:	4647      	mov	r7, r8
    3294:	b480      	push	{r7}
    3296:	b08a      	sub	sp, #40	; 0x28
    3298:	1c04      	adds	r4, r0, #0
    329a:	1c0d      	adds	r5, r1, #0
    329c:	f000 f858 	bl	3350 <__ieee754_sqrt>
    32a0:	4a29      	ldr	r2, [pc, #164]	; (3348 <sqrt+0xb8>)
    32a2:	2300      	movs	r3, #0
    32a4:	56d3      	ldrsb	r3, [r2, r3]
    32a6:	4690      	mov	r8, r2
    32a8:	1c06      	adds	r6, r0, #0
    32aa:	1c0f      	adds	r7, r1, #0
    32ac:	3301      	adds	r3, #1
    32ae:	d00d      	beq.n	32cc <sqrt+0x3c>
    32b0:	1c20      	adds	r0, r4, #0
    32b2:	1c29      	adds	r1, r5, #0
    32b4:	f000 f932 	bl	351c <__fpclassifyd>
    32b8:	2800      	cmp	r0, #0
    32ba:	d007      	beq.n	32cc <sqrt+0x3c>
    32bc:	1c20      	adds	r0, r4, #0
    32be:	1c29      	adds	r1, r5, #0
    32c0:	4b20      	ldr	r3, [pc, #128]	; (3344 <sqrt+0xb4>)
    32c2:	4a1f      	ldr	r2, [pc, #124]	; (3340 <sqrt+0xb0>)
    32c4:	f000 f9cc 	bl	3660 <__aeabi_dcmplt>
    32c8:	2800      	cmp	r0, #0
    32ca:	d105      	bne.n	32d8 <sqrt+0x48>
    32cc:	1c30      	adds	r0, r6, #0
    32ce:	1c39      	adds	r1, r7, #0
    32d0:	b00a      	add	sp, #40	; 0x28
    32d2:	bc04      	pop	{r2}
    32d4:	4690      	mov	r8, r2
    32d6:	bdf0      	pop	{r4, r5, r6, r7, pc}
    32d8:	2301      	movs	r3, #1
    32da:	9300      	str	r3, [sp, #0]
    32dc:	4b1b      	ldr	r3, [pc, #108]	; (334c <sqrt+0xbc>)
    32de:	9404      	str	r4, [sp, #16]
    32e0:	9505      	str	r5, [sp, #20]
    32e2:	9301      	str	r3, [sp, #4]
    32e4:	2300      	movs	r3, #0
    32e6:	9308      	str	r3, [sp, #32]
    32e8:	4643      	mov	r3, r8
    32ea:	9402      	str	r4, [sp, #8]
    32ec:	9503      	str	r5, [sp, #12]
    32ee:	781c      	ldrb	r4, [r3, #0]
    32f0:	2c00      	cmp	r4, #0
    32f2:	d10e      	bne.n	3312 <sqrt+0x82>
    32f4:	4b13      	ldr	r3, [pc, #76]	; (3344 <sqrt+0xb4>)
    32f6:	4a12      	ldr	r2, [pc, #72]	; (3340 <sqrt+0xb0>)
    32f8:	9206      	str	r2, [sp, #24]
    32fa:	9307      	str	r3, [sp, #28]
    32fc:	4668      	mov	r0, sp
    32fe:	f000 f93d 	bl	357c <matherr>
    3302:	2800      	cmp	r0, #0
    3304:	d00f      	beq.n	3326 <sqrt+0x96>
    3306:	9b08      	ldr	r3, [sp, #32]
    3308:	2b00      	cmp	r3, #0
    330a:	d111      	bne.n	3330 <sqrt+0xa0>
    330c:	9e06      	ldr	r6, [sp, #24]
    330e:	9f07      	ldr	r7, [sp, #28]
    3310:	e7dc      	b.n	32cc <sqrt+0x3c>
    3312:	490c      	ldr	r1, [pc, #48]	; (3344 <sqrt+0xb4>)
    3314:	480a      	ldr	r0, [pc, #40]	; (3340 <sqrt+0xb0>)
    3316:	1c02      	adds	r2, r0, #0
    3318:	1c0b      	adds	r3, r1, #0
    331a:	f001 fbf9 	bl	4b10 <__aeabi_ddiv>
    331e:	9006      	str	r0, [sp, #24]
    3320:	9107      	str	r1, [sp, #28]
    3322:	2c02      	cmp	r4, #2
    3324:	d1ea      	bne.n	32fc <sqrt+0x6c>
    3326:	f002 ff1d 	bl	6164 <__errno>
    332a:	2321      	movs	r3, #33	; 0x21
    332c:	6003      	str	r3, [r0, #0]
    332e:	e7ea      	b.n	3306 <sqrt+0x76>
    3330:	f002 ff18 	bl	6164 <__errno>
    3334:	9c08      	ldr	r4, [sp, #32]
    3336:	6004      	str	r4, [r0, #0]
    3338:	e7e8      	b.n	330c <sqrt+0x7c>
    333a:	46c0      	nop			; (mov r8, r8)
    333c:	46c0      	nop			; (mov r8, r8)
    333e:	46c0      	nop			; (mov r8, r8)
	...
    3348:	20000019 	.word	0x20000019
    334c:	000067a4 	.word	0x000067a4

00003350 <__ieee754_sqrt>:
    3350:	b5f0      	push	{r4, r5, r6, r7, lr}
    3352:	465f      	mov	r7, fp
    3354:	4656      	mov	r6, sl
    3356:	464d      	mov	r5, r9
    3358:	4644      	mov	r4, r8
    335a:	b4f0      	push	{r4, r5, r6, r7}
    335c:	4e6c      	ldr	r6, [pc, #432]	; (3510 <__ieee754_sqrt+0x1c0>)
    335e:	1c0d      	adds	r5, r1, #0
    3360:	1c37      	adds	r7, r6, #0
    3362:	b083      	sub	sp, #12
    3364:	1c04      	adds	r4, r0, #0
    3366:	1c02      	adds	r2, r0, #0
    3368:	1c0b      	adds	r3, r1, #0
    336a:	402f      	ands	r7, r5
    336c:	42b7      	cmp	r7, r6
    336e:	d100      	bne.n	3372 <__ieee754_sqrt+0x22>
    3370:	e0ad      	b.n	34ce <__ieee754_sqrt+0x17e>
    3372:	2900      	cmp	r1, #0
    3374:	dc00      	bgt.n	3378 <__ieee754_sqrt+0x28>
    3376:	e08b      	b.n	3490 <__ieee754_sqrt+0x140>
    3378:	152f      	asrs	r7, r5, #20
    337a:	d100      	bne.n	337e <__ieee754_sqrt+0x2e>
    337c:	e094      	b.n	34a8 <__ieee754_sqrt+0x158>
    337e:	4d65      	ldr	r5, [pc, #404]	; (3514 <__ieee754_sqrt+0x1c4>)
    3380:	0309      	lsls	r1, r1, #12
    3382:	2380      	movs	r3, #128	; 0x80
    3384:	0b09      	lsrs	r1, r1, #12
    3386:	035b      	lsls	r3, r3, #13
    3388:	197f      	adds	r7, r7, r5
    338a:	430b      	orrs	r3, r1
    338c:	07fe      	lsls	r6, r7, #31
    338e:	d500      	bpl.n	3392 <__ieee754_sqrt+0x42>
    3390:	e070      	b.n	3474 <__ieee754_sqrt+0x124>
    3392:	107f      	asrs	r7, r7, #1
    3394:	0fc2      	lsrs	r2, r0, #31
    3396:	46b8      	mov	r8, r7
    3398:	005b      	lsls	r3, r3, #1
    339a:	2700      	movs	r7, #0
    339c:	2180      	movs	r1, #128	; 0x80
    339e:	189b      	adds	r3, r3, r2
    33a0:	2416      	movs	r4, #22
    33a2:	0042      	lsls	r2, r0, #1
    33a4:	9700      	str	r7, [sp, #0]
    33a6:	2000      	movs	r0, #0
    33a8:	0389      	lsls	r1, r1, #14
    33aa:	1845      	adds	r5, r0, r1
    33ac:	429d      	cmp	r5, r3
    33ae:	dc04      	bgt.n	33ba <__ieee754_sqrt+0x6a>
    33b0:	1868      	adds	r0, r5, r1
    33b2:	1b5b      	subs	r3, r3, r5
    33b4:	9d00      	ldr	r5, [sp, #0]
    33b6:	186d      	adds	r5, r5, r1
    33b8:	9500      	str	r5, [sp, #0]
    33ba:	0fd5      	lsrs	r5, r2, #31
    33bc:	005b      	lsls	r3, r3, #1
    33be:	3c01      	subs	r4, #1
    33c0:	195b      	adds	r3, r3, r5
    33c2:	0052      	lsls	r2, r2, #1
    33c4:	0849      	lsrs	r1, r1, #1
    33c6:	2c00      	cmp	r4, #0
    33c8:	d1ef      	bne.n	33aa <__ieee754_sqrt+0x5a>
    33ca:	2180      	movs	r1, #128	; 0x80
    33cc:	2600      	movs	r6, #0
    33ce:	0609      	lsls	r1, r1, #24
    33d0:	2520      	movs	r5, #32
    33d2:	9601      	str	r6, [sp, #4]
    33d4:	46b4      	mov	ip, r6
    33d6:	4689      	mov	r9, r1
    33d8:	e009      	b.n	33ee <__ieee754_sqrt+0x9e>
    33da:	4283      	cmp	r3, r0
    33dc:	d046      	beq.n	346c <__ieee754_sqrt+0x11c>
    33de:	0fd4      	lsrs	r4, r2, #31
    33e0:	005b      	lsls	r3, r3, #1
    33e2:	3d01      	subs	r5, #1
    33e4:	191b      	adds	r3, r3, r4
    33e6:	0052      	lsls	r2, r2, #1
    33e8:	0849      	lsrs	r1, r1, #1
    33ea:	2d00      	cmp	r5, #0
    33ec:	d01c      	beq.n	3428 <__ieee754_sqrt+0xd8>
    33ee:	4666      	mov	r6, ip
    33f0:	198c      	adds	r4, r1, r6
    33f2:	4283      	cmp	r3, r0
    33f4:	ddf1      	ble.n	33da <__ieee754_sqrt+0x8a>
    33f6:	1867      	adds	r7, r4, r1
    33f8:	0fe6      	lsrs	r6, r4, #31
    33fa:	46bc      	mov	ip, r7
    33fc:	07f6      	lsls	r6, r6, #31
    33fe:	4682      	mov	sl, r0
    3400:	454e      	cmp	r6, r9
    3402:	d02c      	beq.n	345e <__ieee754_sqrt+0x10e>
    3404:	1a1b      	subs	r3, r3, r0
    3406:	42a2      	cmp	r2, r4
    3408:	4180      	sbcs	r0, r0
    340a:	4240      	negs	r0, r0
    340c:	9f01      	ldr	r7, [sp, #4]
    340e:	1a1b      	subs	r3, r3, r0
    3410:	1b12      	subs	r2, r2, r4
    3412:	187f      	adds	r7, r7, r1
    3414:	0fd4      	lsrs	r4, r2, #31
    3416:	005b      	lsls	r3, r3, #1
    3418:	3d01      	subs	r5, #1
    341a:	9701      	str	r7, [sp, #4]
    341c:	4650      	mov	r0, sl
    341e:	191b      	adds	r3, r3, r4
    3420:	0052      	lsls	r2, r2, #1
    3422:	0849      	lsrs	r1, r1, #1
    3424:	2d00      	cmp	r5, #0
    3426:	d1e2      	bne.n	33ee <__ieee754_sqrt+0x9e>
    3428:	4313      	orrs	r3, r2
    342a:	d128      	bne.n	347e <__ieee754_sqrt+0x12e>
    342c:	9801      	ldr	r0, [sp, #4]
    342e:	0843      	lsrs	r3, r0, #1
    3430:	9d00      	ldr	r5, [sp, #0]
    3432:	4e39      	ldr	r6, [pc, #228]	; (3518 <__ieee754_sqrt+0x1c8>)
    3434:	106a      	asrs	r2, r5, #1
    3436:	1992      	adds	r2, r2, r6
    3438:	07ed      	lsls	r5, r5, #31
    343a:	d502      	bpl.n	3442 <__ieee754_sqrt+0xf2>
    343c:	2180      	movs	r1, #128	; 0x80
    343e:	0609      	lsls	r1, r1, #24
    3440:	430b      	orrs	r3, r1
    3442:	4640      	mov	r0, r8
    3444:	0507      	lsls	r7, r0, #20
    3446:	18b9      	adds	r1, r7, r2
    3448:	1c1c      	adds	r4, r3, #0
    344a:	1c0d      	adds	r5, r1, #0
    344c:	1c20      	adds	r0, r4, #0
    344e:	1c29      	adds	r1, r5, #0
    3450:	b003      	add	sp, #12
    3452:	bc3c      	pop	{r2, r3, r4, r5}
    3454:	4690      	mov	r8, r2
    3456:	4699      	mov	r9, r3
    3458:	46a2      	mov	sl, r4
    345a:	46ab      	mov	fp, r5
    345c:	bdf0      	pop	{r4, r5, r6, r7, pc}
    345e:	0fff      	lsrs	r7, r7, #31
    3460:	07ff      	lsls	r7, r7, #31
    3462:	427e      	negs	r6, r7
    3464:	417e      	adcs	r6, r7
    3466:	46b2      	mov	sl, r6
    3468:	4482      	add	sl, r0
    346a:	e7cb      	b.n	3404 <__ieee754_sqrt+0xb4>
    346c:	4294      	cmp	r4, r2
    346e:	d9c2      	bls.n	33f6 <__ieee754_sqrt+0xa6>
    3470:	1c18      	adds	r0, r3, #0
    3472:	e7b4      	b.n	33de <__ieee754_sqrt+0x8e>
    3474:	0fc2      	lsrs	r2, r0, #31
    3476:	005b      	lsls	r3, r3, #1
    3478:	189b      	adds	r3, r3, r2
    347a:	0040      	lsls	r0, r0, #1
    347c:	e789      	b.n	3392 <__ieee754_sqrt+0x42>
    347e:	9901      	ldr	r1, [sp, #4]
    3480:	3101      	adds	r1, #1
    3482:	d02f      	beq.n	34e4 <__ieee754_sqrt+0x194>
    3484:	9c01      	ldr	r4, [sp, #4]
    3486:	2301      	movs	r3, #1
    3488:	4023      	ands	r3, r4
    348a:	191b      	adds	r3, r3, r4
    348c:	085b      	lsrs	r3, r3, #1
    348e:	e7cf      	b.n	3430 <__ieee754_sqrt+0xe0>
    3490:	006b      	lsls	r3, r5, #1
    3492:	085b      	lsrs	r3, r3, #1
    3494:	431a      	orrs	r2, r3
    3496:	d0d9      	beq.n	344c <__ieee754_sqrt+0xfc>
    3498:	2700      	movs	r7, #0
    349a:	2900      	cmp	r1, #0
    349c:	d12b      	bne.n	34f6 <__ieee754_sqrt+0x1a6>
    349e:	0ac1      	lsrs	r1, r0, #11
    34a0:	3f15      	subs	r7, #21
    34a2:	0540      	lsls	r0, r0, #21
    34a4:	2900      	cmp	r1, #0
    34a6:	d0fa      	beq.n	349e <__ieee754_sqrt+0x14e>
    34a8:	2280      	movs	r2, #128	; 0x80
    34aa:	0352      	lsls	r2, r2, #13
    34ac:	4211      	tst	r1, r2
    34ae:	d11e      	bne.n	34ee <__ieee754_sqrt+0x19e>
    34b0:	2300      	movs	r3, #0
    34b2:	0049      	lsls	r1, r1, #1
    34b4:	3301      	adds	r3, #1
    34b6:	4211      	tst	r1, r2
    34b8:	d0fb      	beq.n	34b2 <__ieee754_sqrt+0x162>
    34ba:	2401      	movs	r4, #1
    34bc:	2220      	movs	r2, #32
    34be:	1ae4      	subs	r4, r4, r3
    34c0:	1ad2      	subs	r2, r2, r3
    34c2:	193f      	adds	r7, r7, r4
    34c4:	1c04      	adds	r4, r0, #0
    34c6:	40d4      	lsrs	r4, r2
    34c8:	4321      	orrs	r1, r4
    34ca:	4098      	lsls	r0, r3
    34cc:	e757      	b.n	337e <__ieee754_sqrt+0x2e>
    34ce:	1c20      	adds	r0, r4, #0
    34d0:	1c29      	adds	r1, r5, #0
    34d2:	f001 ff87 	bl	53e4 <__aeabi_dmul>
    34d6:	1c22      	adds	r2, r4, #0
    34d8:	1c2b      	adds	r3, r5, #0
    34da:	f000 fff7 	bl	44cc <__aeabi_dadd>
    34de:	1c04      	adds	r4, r0, #0
    34e0:	1c0d      	adds	r5, r1, #0
    34e2:	e7b3      	b.n	344c <__ieee754_sqrt+0xfc>
    34e4:	9a00      	ldr	r2, [sp, #0]
    34e6:	2300      	movs	r3, #0
    34e8:	3201      	adds	r2, #1
    34ea:	9200      	str	r2, [sp, #0]
    34ec:	e7a0      	b.n	3430 <__ieee754_sqrt+0xe0>
    34ee:	2220      	movs	r2, #32
    34f0:	2401      	movs	r4, #1
    34f2:	2300      	movs	r3, #0
    34f4:	e7e5      	b.n	34c2 <__ieee754_sqrt+0x172>
    34f6:	1c22      	adds	r2, r4, #0
    34f8:	1c2b      	adds	r3, r5, #0
    34fa:	1c20      	adds	r0, r4, #0
    34fc:	1c29      	adds	r1, r5, #0
    34fe:	f002 fa01 	bl	5904 <__aeabi_dsub>
    3502:	1c02      	adds	r2, r0, #0
    3504:	1c0b      	adds	r3, r1, #0
    3506:	f001 fb03 	bl	4b10 <__aeabi_ddiv>
    350a:	1c04      	adds	r4, r0, #0
    350c:	1c0d      	adds	r5, r1, #0
    350e:	e79d      	b.n	344c <__ieee754_sqrt+0xfc>
    3510:	7ff00000 	.word	0x7ff00000
    3514:	fffffc01 	.word	0xfffffc01
    3518:	3fe00000 	.word	0x3fe00000

0000351c <__fpclassifyd>:
    351c:	1c0b      	adds	r3, r1, #0
    351e:	1c01      	adds	r1, r0, #0
    3520:	1c02      	adds	r2, r0, #0
    3522:	b530      	push	{r4, r5, lr}
    3524:	4319      	orrs	r1, r3
    3526:	2002      	movs	r0, #2
    3528:	2900      	cmp	r1, #0
    352a:	d100      	bne.n	352e <__fpclassifyd+0x12>
    352c:	bd30      	pop	{r4, r5, pc}
    352e:	2180      	movs	r1, #128	; 0x80
    3530:	0609      	lsls	r1, r1, #24
    3532:	428b      	cmp	r3, r1
    3534:	d016      	beq.n	3564 <__fpclassifyd+0x48>
    3536:	490d      	ldr	r1, [pc, #52]	; (356c <__fpclassifyd+0x50>)
    3538:	2004      	movs	r0, #4
    353a:	185c      	adds	r4, r3, r1
    353c:	490c      	ldr	r1, [pc, #48]	; (3570 <__fpclassifyd+0x54>)
    353e:	428c      	cmp	r4, r1
    3540:	d9f4      	bls.n	352c <__fpclassifyd+0x10>
    3542:	4d0c      	ldr	r5, [pc, #48]	; (3574 <__fpclassifyd+0x58>)
    3544:	195c      	adds	r4, r3, r5
    3546:	428c      	cmp	r4, r1
    3548:	d9f0      	bls.n	352c <__fpclassifyd+0x10>
    354a:	4c0b      	ldr	r4, [pc, #44]	; (3578 <__fpclassifyd+0x5c>)
    354c:	0059      	lsls	r1, r3, #1
    354e:	0849      	lsrs	r1, r1, #1
    3550:	2003      	movs	r0, #3
    3552:	42a1      	cmp	r1, r4
    3554:	d9ea      	bls.n	352c <__fpclassifyd+0x10>
    3556:	4c07      	ldr	r4, [pc, #28]	; (3574 <__fpclassifyd+0x58>)
    3558:	2000      	movs	r0, #0
    355a:	42a1      	cmp	r1, r4
    355c:	d1e6      	bne.n	352c <__fpclassifyd+0x10>
    355e:	4250      	negs	r0, r2
    3560:	4150      	adcs	r0, r2
    3562:	e7e3      	b.n	352c <__fpclassifyd+0x10>
    3564:	2a00      	cmp	r2, #0
    3566:	d0e1      	beq.n	352c <__fpclassifyd+0x10>
    3568:	e7ef      	b.n	354a <__fpclassifyd+0x2e>
    356a:	46c0      	nop			; (mov r8, r8)
    356c:	fff00000 	.word	0xfff00000
    3570:	7fdfffff 	.word	0x7fdfffff
    3574:	7ff00000 	.word	0x7ff00000
    3578:	000fffff 	.word	0x000fffff

0000357c <matherr>:
    357c:	2000      	movs	r0, #0
    357e:	4770      	bx	lr

00003580 <__gnu_thumb1_case_uqi>:
    3580:	b402      	push	{r1}
    3582:	4671      	mov	r1, lr
    3584:	0849      	lsrs	r1, r1, #1
    3586:	0049      	lsls	r1, r1, #1
    3588:	5c09      	ldrb	r1, [r1, r0]
    358a:	0049      	lsls	r1, r1, #1
    358c:	448e      	add	lr, r1
    358e:	bc02      	pop	{r1}
    3590:	4770      	bx	lr
    3592:	46c0      	nop			; (mov r8, r8)

00003594 <__aeabi_uidiv>:
    3594:	2900      	cmp	r1, #0
    3596:	d034      	beq.n	3602 <.udivsi3_skip_div0_test+0x6a>

00003598 <.udivsi3_skip_div0_test>:
    3598:	2301      	movs	r3, #1
    359a:	2200      	movs	r2, #0
    359c:	b410      	push	{r4}
    359e:	4288      	cmp	r0, r1
    35a0:	d32c      	bcc.n	35fc <.udivsi3_skip_div0_test+0x64>
    35a2:	2401      	movs	r4, #1
    35a4:	0724      	lsls	r4, r4, #28
    35a6:	42a1      	cmp	r1, r4
    35a8:	d204      	bcs.n	35b4 <.udivsi3_skip_div0_test+0x1c>
    35aa:	4281      	cmp	r1, r0
    35ac:	d202      	bcs.n	35b4 <.udivsi3_skip_div0_test+0x1c>
    35ae:	0109      	lsls	r1, r1, #4
    35b0:	011b      	lsls	r3, r3, #4
    35b2:	e7f8      	b.n	35a6 <.udivsi3_skip_div0_test+0xe>
    35b4:	00e4      	lsls	r4, r4, #3
    35b6:	42a1      	cmp	r1, r4
    35b8:	d204      	bcs.n	35c4 <.udivsi3_skip_div0_test+0x2c>
    35ba:	4281      	cmp	r1, r0
    35bc:	d202      	bcs.n	35c4 <.udivsi3_skip_div0_test+0x2c>
    35be:	0049      	lsls	r1, r1, #1
    35c0:	005b      	lsls	r3, r3, #1
    35c2:	e7f8      	b.n	35b6 <.udivsi3_skip_div0_test+0x1e>
    35c4:	4288      	cmp	r0, r1
    35c6:	d301      	bcc.n	35cc <.udivsi3_skip_div0_test+0x34>
    35c8:	1a40      	subs	r0, r0, r1
    35ca:	431a      	orrs	r2, r3
    35cc:	084c      	lsrs	r4, r1, #1
    35ce:	42a0      	cmp	r0, r4
    35d0:	d302      	bcc.n	35d8 <.udivsi3_skip_div0_test+0x40>
    35d2:	1b00      	subs	r0, r0, r4
    35d4:	085c      	lsrs	r4, r3, #1
    35d6:	4322      	orrs	r2, r4
    35d8:	088c      	lsrs	r4, r1, #2
    35da:	42a0      	cmp	r0, r4
    35dc:	d302      	bcc.n	35e4 <.udivsi3_skip_div0_test+0x4c>
    35de:	1b00      	subs	r0, r0, r4
    35e0:	089c      	lsrs	r4, r3, #2
    35e2:	4322      	orrs	r2, r4
    35e4:	08cc      	lsrs	r4, r1, #3
    35e6:	42a0      	cmp	r0, r4
    35e8:	d302      	bcc.n	35f0 <.udivsi3_skip_div0_test+0x58>
    35ea:	1b00      	subs	r0, r0, r4
    35ec:	08dc      	lsrs	r4, r3, #3
    35ee:	4322      	orrs	r2, r4
    35f0:	2800      	cmp	r0, #0
    35f2:	d003      	beq.n	35fc <.udivsi3_skip_div0_test+0x64>
    35f4:	091b      	lsrs	r3, r3, #4
    35f6:	d001      	beq.n	35fc <.udivsi3_skip_div0_test+0x64>
    35f8:	0909      	lsrs	r1, r1, #4
    35fa:	e7e3      	b.n	35c4 <.udivsi3_skip_div0_test+0x2c>
    35fc:	1c10      	adds	r0, r2, #0
    35fe:	bc10      	pop	{r4}
    3600:	4770      	bx	lr
    3602:	2800      	cmp	r0, #0
    3604:	d001      	beq.n	360a <.udivsi3_skip_div0_test+0x72>
    3606:	2000      	movs	r0, #0
    3608:	43c0      	mvns	r0, r0
    360a:	b407      	push	{r0, r1, r2}
    360c:	4802      	ldr	r0, [pc, #8]	; (3618 <.udivsi3_skip_div0_test+0x80>)
    360e:	a102      	add	r1, pc, #8	; (adr r1, 3618 <.udivsi3_skip_div0_test+0x80>)
    3610:	1840      	adds	r0, r0, r1
    3612:	9002      	str	r0, [sp, #8]
    3614:	bd03      	pop	{r0, r1, pc}
    3616:	46c0      	nop			; (mov r8, r8)
    3618:	00000019 	.word	0x00000019

0000361c <__aeabi_uidivmod>:
    361c:	2900      	cmp	r1, #0
    361e:	d0f0      	beq.n	3602 <.udivsi3_skip_div0_test+0x6a>
    3620:	b503      	push	{r0, r1, lr}
    3622:	f7ff ffb9 	bl	3598 <.udivsi3_skip_div0_test>
    3626:	bc0e      	pop	{r1, r2, r3}
    3628:	4342      	muls	r2, r0
    362a:	1a89      	subs	r1, r1, r2
    362c:	4718      	bx	r3
    362e:	46c0      	nop			; (mov r8, r8)

00003630 <__aeabi_idiv0>:
    3630:	4770      	bx	lr
    3632:	46c0      	nop			; (mov r8, r8)

00003634 <__aeabi_cdrcmple>:
    3634:	4684      	mov	ip, r0
    3636:	1c10      	adds	r0, r2, #0
    3638:	4662      	mov	r2, ip
    363a:	468c      	mov	ip, r1
    363c:	1c19      	adds	r1, r3, #0
    363e:	4663      	mov	r3, ip
    3640:	e000      	b.n	3644 <__aeabi_cdcmpeq>
    3642:	46c0      	nop			; (mov r8, r8)

00003644 <__aeabi_cdcmpeq>:
    3644:	b51f      	push	{r0, r1, r2, r3, r4, lr}
    3646:	f001 fe4f 	bl	52e8 <__ledf2>
    364a:	2800      	cmp	r0, #0
    364c:	d401      	bmi.n	3652 <__aeabi_cdcmpeq+0xe>
    364e:	2100      	movs	r1, #0
    3650:	42c8      	cmn	r0, r1
    3652:	bd1f      	pop	{r0, r1, r2, r3, r4, pc}

00003654 <__aeabi_dcmpeq>:
    3654:	b510      	push	{r4, lr}
    3656:	f001 fd7f 	bl	5158 <__eqdf2>
    365a:	4240      	negs	r0, r0
    365c:	3001      	adds	r0, #1
    365e:	bd10      	pop	{r4, pc}

00003660 <__aeabi_dcmplt>:
    3660:	b510      	push	{r4, lr}
    3662:	f001 fe41 	bl	52e8 <__ledf2>
    3666:	2800      	cmp	r0, #0
    3668:	db01      	blt.n	366e <__aeabi_dcmplt+0xe>
    366a:	2000      	movs	r0, #0
    366c:	bd10      	pop	{r4, pc}
    366e:	2001      	movs	r0, #1
    3670:	bd10      	pop	{r4, pc}
    3672:	46c0      	nop			; (mov r8, r8)

00003674 <__aeabi_dcmple>:
    3674:	b510      	push	{r4, lr}
    3676:	f001 fe37 	bl	52e8 <__ledf2>
    367a:	2800      	cmp	r0, #0
    367c:	dd01      	ble.n	3682 <__aeabi_dcmple+0xe>
    367e:	2000      	movs	r0, #0
    3680:	bd10      	pop	{r4, pc}
    3682:	2001      	movs	r0, #1
    3684:	bd10      	pop	{r4, pc}
    3686:	46c0      	nop			; (mov r8, r8)

00003688 <__aeabi_dcmpgt>:
    3688:	b510      	push	{r4, lr}
    368a:	f001 fdaf 	bl	51ec <__gedf2>
    368e:	2800      	cmp	r0, #0
    3690:	dc01      	bgt.n	3696 <__aeabi_dcmpgt+0xe>
    3692:	2000      	movs	r0, #0
    3694:	bd10      	pop	{r4, pc}
    3696:	2001      	movs	r0, #1
    3698:	bd10      	pop	{r4, pc}
    369a:	46c0      	nop			; (mov r8, r8)

0000369c <__aeabi_dcmpge>:
    369c:	b510      	push	{r4, lr}
    369e:	f001 fda5 	bl	51ec <__gedf2>
    36a2:	2800      	cmp	r0, #0
    36a4:	da01      	bge.n	36aa <__aeabi_dcmpge+0xe>
    36a6:	2000      	movs	r0, #0
    36a8:	bd10      	pop	{r4, pc}
    36aa:	2001      	movs	r0, #1
    36ac:	bd10      	pop	{r4, pc}
    36ae:	46c0      	nop			; (mov r8, r8)

000036b0 <__aeabi_cfrcmple>:
    36b0:	4684      	mov	ip, r0
    36b2:	1c08      	adds	r0, r1, #0
    36b4:	4661      	mov	r1, ip
    36b6:	e7ff      	b.n	36b8 <__aeabi_cfcmpeq>

000036b8 <__aeabi_cfcmpeq>:
    36b8:	b51f      	push	{r0, r1, r2, r3, r4, lr}
    36ba:	f000 fb4f 	bl	3d5c <__lesf2>
    36be:	2800      	cmp	r0, #0
    36c0:	d401      	bmi.n	36c6 <__aeabi_cfcmpeq+0xe>
    36c2:	2100      	movs	r1, #0
    36c4:	42c8      	cmn	r0, r1
    36c6:	bd1f      	pop	{r0, r1, r2, r3, r4, pc}

000036c8 <__aeabi_fcmpeq>:
    36c8:	b510      	push	{r4, lr}
    36ca:	f000 fad5 	bl	3c78 <__eqsf2>
    36ce:	4240      	negs	r0, r0
    36d0:	3001      	adds	r0, #1
    36d2:	bd10      	pop	{r4, pc}

000036d4 <__aeabi_fcmplt>:
    36d4:	b510      	push	{r4, lr}
    36d6:	f000 fb41 	bl	3d5c <__lesf2>
    36da:	2800      	cmp	r0, #0
    36dc:	db01      	blt.n	36e2 <__aeabi_fcmplt+0xe>
    36de:	2000      	movs	r0, #0
    36e0:	bd10      	pop	{r4, pc}
    36e2:	2001      	movs	r0, #1
    36e4:	bd10      	pop	{r4, pc}
    36e6:	46c0      	nop			; (mov r8, r8)

000036e8 <__aeabi_fcmple>:
    36e8:	b510      	push	{r4, lr}
    36ea:	f000 fb37 	bl	3d5c <__lesf2>
    36ee:	2800      	cmp	r0, #0
    36f0:	dd01      	ble.n	36f6 <__aeabi_fcmple+0xe>
    36f2:	2000      	movs	r0, #0
    36f4:	bd10      	pop	{r4, pc}
    36f6:	2001      	movs	r0, #1
    36f8:	bd10      	pop	{r4, pc}
    36fa:	46c0      	nop			; (mov r8, r8)

000036fc <__aeabi_fcmpgt>:
    36fc:	b510      	push	{r4, lr}
    36fe:	f000 fae5 	bl	3ccc <__gesf2>
    3702:	2800      	cmp	r0, #0
    3704:	dc01      	bgt.n	370a <__aeabi_fcmpgt+0xe>
    3706:	2000      	movs	r0, #0
    3708:	bd10      	pop	{r4, pc}
    370a:	2001      	movs	r0, #1
    370c:	bd10      	pop	{r4, pc}
    370e:	46c0      	nop			; (mov r8, r8)

00003710 <__aeabi_fcmpge>:
    3710:	b510      	push	{r4, lr}
    3712:	f000 fadb 	bl	3ccc <__gesf2>
    3716:	2800      	cmp	r0, #0
    3718:	da01      	bge.n	371e <__aeabi_fcmpge+0xe>
    371a:	2000      	movs	r0, #0
    371c:	bd10      	pop	{r4, pc}
    371e:	2001      	movs	r0, #1
    3720:	bd10      	pop	{r4, pc}
    3722:	46c0      	nop			; (mov r8, r8)

00003724 <__aeabi_f2uiz>:
    3724:	219e      	movs	r1, #158	; 0x9e
    3726:	b510      	push	{r4, lr}
    3728:	05c9      	lsls	r1, r1, #23
    372a:	1c04      	adds	r4, r0, #0
    372c:	f7ff fff0 	bl	3710 <__aeabi_fcmpge>
    3730:	2800      	cmp	r0, #0
    3732:	d103      	bne.n	373c <__aeabi_f2uiz+0x18>
    3734:	1c20      	adds	r0, r4, #0
    3736:	f000 fdfd 	bl	4334 <__aeabi_f2iz>
    373a:	bd10      	pop	{r4, pc}
    373c:	219e      	movs	r1, #158	; 0x9e
    373e:	05c9      	lsls	r1, r1, #23
    3740:	1c20      	adds	r0, r4, #0
    3742:	f000 fc81 	bl	4048 <__aeabi_fsub>
    3746:	f000 fdf5 	bl	4334 <__aeabi_f2iz>
    374a:	2380      	movs	r3, #128	; 0x80
    374c:	061b      	lsls	r3, r3, #24
    374e:	18c0      	adds	r0, r0, r3
    3750:	e7f3      	b.n	373a <__aeabi_f2uiz+0x16>
    3752:	46c0      	nop			; (mov r8, r8)

00003754 <__aeabi_fadd>:
    3754:	b5f8      	push	{r3, r4, r5, r6, r7, lr}
    3756:	0243      	lsls	r3, r0, #9
    3758:	0044      	lsls	r4, r0, #1
    375a:	0fc5      	lsrs	r5, r0, #31
    375c:	024e      	lsls	r6, r1, #9
    375e:	0048      	lsls	r0, r1, #1
    3760:	0e24      	lsrs	r4, r4, #24
    3762:	1c2a      	adds	r2, r5, #0
    3764:	099b      	lsrs	r3, r3, #6
    3766:	0e00      	lsrs	r0, r0, #24
    3768:	0fc9      	lsrs	r1, r1, #31
    376a:	09b6      	lsrs	r6, r6, #6
    376c:	428d      	cmp	r5, r1
    376e:	d05b      	beq.n	3828 <__aeabi_fadd+0xd4>
    3770:	1a22      	subs	r2, r4, r0
    3772:	2a00      	cmp	r2, #0
    3774:	dc00      	bgt.n	3778 <__aeabi_fadd+0x24>
    3776:	e089      	b.n	388c <__aeabi_fadd+0x138>
    3778:	2800      	cmp	r0, #0
    377a:	d11d      	bne.n	37b8 <__aeabi_fadd+0x64>
    377c:	2e00      	cmp	r6, #0
    377e:	d000      	beq.n	3782 <__aeabi_fadd+0x2e>
    3780:	e075      	b.n	386e <__aeabi_fadd+0x11a>
    3782:	0758      	lsls	r0, r3, #29
    3784:	d004      	beq.n	3790 <__aeabi_fadd+0x3c>
    3786:	220f      	movs	r2, #15
    3788:	401a      	ands	r2, r3
    378a:	2a04      	cmp	r2, #4
    378c:	d000      	beq.n	3790 <__aeabi_fadd+0x3c>
    378e:	3304      	adds	r3, #4
    3790:	2180      	movs	r1, #128	; 0x80
    3792:	04c9      	lsls	r1, r1, #19
    3794:	4019      	ands	r1, r3
    3796:	1c2a      	adds	r2, r5, #0
    3798:	2900      	cmp	r1, #0
    379a:	d03a      	beq.n	3812 <__aeabi_fadd+0xbe>
    379c:	3401      	adds	r4, #1
    379e:	2cff      	cmp	r4, #255	; 0xff
    37a0:	d100      	bne.n	37a4 <__aeabi_fadd+0x50>
    37a2:	e07f      	b.n	38a4 <__aeabi_fadd+0x150>
    37a4:	019b      	lsls	r3, r3, #6
    37a6:	0a5b      	lsrs	r3, r3, #9
    37a8:	025b      	lsls	r3, r3, #9
    37aa:	b2e4      	uxtb	r4, r4
    37ac:	05e4      	lsls	r4, r4, #23
    37ae:	0a58      	lsrs	r0, r3, #9
    37b0:	07d2      	lsls	r2, r2, #31
    37b2:	4320      	orrs	r0, r4
    37b4:	4310      	orrs	r0, r2
    37b6:	bdf8      	pop	{r3, r4, r5, r6, r7, pc}
    37b8:	2cff      	cmp	r4, #255	; 0xff
    37ba:	d0e2      	beq.n	3782 <__aeabi_fadd+0x2e>
    37bc:	2180      	movs	r1, #128	; 0x80
    37be:	04c9      	lsls	r1, r1, #19
    37c0:	430e      	orrs	r6, r1
    37c2:	2a1b      	cmp	r2, #27
    37c4:	dd00      	ble.n	37c8 <__aeabi_fadd+0x74>
    37c6:	e12d      	b.n	3a24 <__aeabi_fadd+0x2d0>
    37c8:	1c31      	adds	r1, r6, #0
    37ca:	2020      	movs	r0, #32
    37cc:	40d1      	lsrs	r1, r2
    37ce:	1a82      	subs	r2, r0, r2
    37d0:	4096      	lsls	r6, r2
    37d2:	1e72      	subs	r2, r6, #1
    37d4:	4196      	sbcs	r6, r2
    37d6:	430e      	orrs	r6, r1
    37d8:	1b9b      	subs	r3, r3, r6
    37da:	0158      	lsls	r0, r3, #5
    37dc:	d5d1      	bpl.n	3782 <__aeabi_fadd+0x2e>
    37de:	019b      	lsls	r3, r3, #6
    37e0:	099f      	lsrs	r7, r3, #6
    37e2:	1c38      	adds	r0, r7, #0
    37e4:	f002 fca0 	bl	6128 <__clzsi2>
    37e8:	1f42      	subs	r2, r0, #5
    37ea:	4097      	lsls	r7, r2
    37ec:	4294      	cmp	r4, r2
    37ee:	dc5b      	bgt.n	38a8 <__aeabi_fadd+0x154>
    37f0:	1b14      	subs	r4, r2, r4
    37f2:	231f      	movs	r3, #31
    37f4:	1b1b      	subs	r3, r3, r4
    37f6:	1c3a      	adds	r2, r7, #0
    37f8:	409f      	lsls	r7, r3
    37fa:	1c61      	adds	r1, r4, #1
    37fc:	1c3b      	adds	r3, r7, #0
    37fe:	40ca      	lsrs	r2, r1
    3800:	1e5f      	subs	r7, r3, #1
    3802:	41bb      	sbcs	r3, r7
    3804:	4313      	orrs	r3, r2
    3806:	2400      	movs	r4, #0
    3808:	e7bb      	b.n	3782 <__aeabi_fadd+0x2e>
    380a:	1e13      	subs	r3, r2, #0
    380c:	d1b9      	bne.n	3782 <__aeabi_fadd+0x2e>
    380e:	2300      	movs	r3, #0
    3810:	2200      	movs	r2, #0
    3812:	08db      	lsrs	r3, r3, #3
    3814:	2cff      	cmp	r4, #255	; 0xff
    3816:	d104      	bne.n	3822 <__aeabi_fadd+0xce>
    3818:	2b00      	cmp	r3, #0
    381a:	d043      	beq.n	38a4 <__aeabi_fadd+0x150>
    381c:	2080      	movs	r0, #128	; 0x80
    381e:	03c0      	lsls	r0, r0, #15
    3820:	4303      	orrs	r3, r0
    3822:	025b      	lsls	r3, r3, #9
    3824:	0a5b      	lsrs	r3, r3, #9
    3826:	e7bf      	b.n	37a8 <__aeabi_fadd+0x54>
    3828:	1a21      	subs	r1, r4, r0
    382a:	2900      	cmp	r1, #0
    382c:	dd40      	ble.n	38b0 <__aeabi_fadd+0x15c>
    382e:	2800      	cmp	r0, #0
    3830:	d023      	beq.n	387a <__aeabi_fadd+0x126>
    3832:	2cff      	cmp	r4, #255	; 0xff
    3834:	d0a5      	beq.n	3782 <__aeabi_fadd+0x2e>
    3836:	2080      	movs	r0, #128	; 0x80
    3838:	04c0      	lsls	r0, r0, #19
    383a:	4306      	orrs	r6, r0
    383c:	291b      	cmp	r1, #27
    383e:	dd00      	ble.n	3842 <__aeabi_fadd+0xee>
    3840:	e0ee      	b.n	3a20 <__aeabi_fadd+0x2cc>
    3842:	1c30      	adds	r0, r6, #0
    3844:	2720      	movs	r7, #32
    3846:	40c8      	lsrs	r0, r1
    3848:	1a79      	subs	r1, r7, r1
    384a:	408e      	lsls	r6, r1
    384c:	1e71      	subs	r1, r6, #1
    384e:	418e      	sbcs	r6, r1
    3850:	4306      	orrs	r6, r0
    3852:	199b      	adds	r3, r3, r6
    3854:	0159      	lsls	r1, r3, #5
    3856:	d400      	bmi.n	385a <__aeabi_fadd+0x106>
    3858:	e793      	b.n	3782 <__aeabi_fadd+0x2e>
    385a:	3401      	adds	r4, #1
    385c:	2cff      	cmp	r4, #255	; 0xff
    385e:	d055      	beq.n	390c <__aeabi_fadd+0x1b8>
    3860:	4971      	ldr	r1, [pc, #452]	; (3a28 <__aeabi_fadd+0x2d4>)
    3862:	2201      	movs	r2, #1
    3864:	401a      	ands	r2, r3
    3866:	400b      	ands	r3, r1
    3868:	085b      	lsrs	r3, r3, #1
    386a:	4313      	orrs	r3, r2
    386c:	e789      	b.n	3782 <__aeabi_fadd+0x2e>
    386e:	3a01      	subs	r2, #1
    3870:	2a00      	cmp	r2, #0
    3872:	d0b1      	beq.n	37d8 <__aeabi_fadd+0x84>
    3874:	2cff      	cmp	r4, #255	; 0xff
    3876:	d1a4      	bne.n	37c2 <__aeabi_fadd+0x6e>
    3878:	e783      	b.n	3782 <__aeabi_fadd+0x2e>
    387a:	2e00      	cmp	r6, #0
    387c:	d100      	bne.n	3880 <__aeabi_fadd+0x12c>
    387e:	e780      	b.n	3782 <__aeabi_fadd+0x2e>
    3880:	3901      	subs	r1, #1
    3882:	2900      	cmp	r1, #0
    3884:	d0e5      	beq.n	3852 <__aeabi_fadd+0xfe>
    3886:	2cff      	cmp	r4, #255	; 0xff
    3888:	d1d8      	bne.n	383c <__aeabi_fadd+0xe8>
    388a:	e77a      	b.n	3782 <__aeabi_fadd+0x2e>
    388c:	2a00      	cmp	r2, #0
    388e:	d11b      	bne.n	38c8 <__aeabi_fadd+0x174>
    3890:	1c62      	adds	r2, r4, #1
    3892:	b2d2      	uxtb	r2, r2
    3894:	2a01      	cmp	r2, #1
    3896:	dd4b      	ble.n	3930 <__aeabi_fadd+0x1dc>
    3898:	1b9f      	subs	r7, r3, r6
    389a:	017a      	lsls	r2, r7, #5
    389c:	d523      	bpl.n	38e6 <__aeabi_fadd+0x192>
    389e:	1af7      	subs	r7, r6, r3
    38a0:	1c0d      	adds	r5, r1, #0
    38a2:	e79e      	b.n	37e2 <__aeabi_fadd+0x8e>
    38a4:	2300      	movs	r3, #0
    38a6:	e77f      	b.n	37a8 <__aeabi_fadd+0x54>
    38a8:	4b5f      	ldr	r3, [pc, #380]	; (3a28 <__aeabi_fadd+0x2d4>)
    38aa:	1aa4      	subs	r4, r4, r2
    38ac:	403b      	ands	r3, r7
    38ae:	e768      	b.n	3782 <__aeabi_fadd+0x2e>
    38b0:	2900      	cmp	r1, #0
    38b2:	d146      	bne.n	3942 <__aeabi_fadd+0x1ee>
    38b4:	1c61      	adds	r1, r4, #1
    38b6:	b2c8      	uxtb	r0, r1
    38b8:	2801      	cmp	r0, #1
    38ba:	dd29      	ble.n	3910 <__aeabi_fadd+0x1bc>
    38bc:	29ff      	cmp	r1, #255	; 0xff
    38be:	d024      	beq.n	390a <__aeabi_fadd+0x1b6>
    38c0:	18f3      	adds	r3, r6, r3
    38c2:	085b      	lsrs	r3, r3, #1
    38c4:	1c0c      	adds	r4, r1, #0
    38c6:	e75c      	b.n	3782 <__aeabi_fadd+0x2e>
    38c8:	2c00      	cmp	r4, #0
    38ca:	d013      	beq.n	38f4 <__aeabi_fadd+0x1a0>
    38cc:	28ff      	cmp	r0, #255	; 0xff
    38ce:	d018      	beq.n	3902 <__aeabi_fadd+0x1ae>
    38d0:	2480      	movs	r4, #128	; 0x80
    38d2:	04e4      	lsls	r4, r4, #19
    38d4:	4252      	negs	r2, r2
    38d6:	4323      	orrs	r3, r4
    38d8:	2a1b      	cmp	r2, #27
    38da:	dd4d      	ble.n	3978 <__aeabi_fadd+0x224>
    38dc:	2301      	movs	r3, #1
    38de:	1af3      	subs	r3, r6, r3
    38e0:	1c04      	adds	r4, r0, #0
    38e2:	1c0d      	adds	r5, r1, #0
    38e4:	e779      	b.n	37da <__aeabi_fadd+0x86>
    38e6:	2f00      	cmp	r7, #0
    38e8:	d000      	beq.n	38ec <__aeabi_fadd+0x198>
    38ea:	e77a      	b.n	37e2 <__aeabi_fadd+0x8e>
    38ec:	2300      	movs	r3, #0
    38ee:	2200      	movs	r2, #0
    38f0:	2400      	movs	r4, #0
    38f2:	e78e      	b.n	3812 <__aeabi_fadd+0xbe>
    38f4:	2b00      	cmp	r3, #0
    38f6:	d03b      	beq.n	3970 <__aeabi_fadd+0x21c>
    38f8:	43d2      	mvns	r2, r2
    38fa:	2a00      	cmp	r2, #0
    38fc:	d0ef      	beq.n	38de <__aeabi_fadd+0x18a>
    38fe:	28ff      	cmp	r0, #255	; 0xff
    3900:	d1ea      	bne.n	38d8 <__aeabi_fadd+0x184>
    3902:	1c33      	adds	r3, r6, #0
    3904:	24ff      	movs	r4, #255	; 0xff
    3906:	1c0d      	adds	r5, r1, #0
    3908:	e73b      	b.n	3782 <__aeabi_fadd+0x2e>
    390a:	24ff      	movs	r4, #255	; 0xff
    390c:	2300      	movs	r3, #0
    390e:	e780      	b.n	3812 <__aeabi_fadd+0xbe>
    3910:	2c00      	cmp	r4, #0
    3912:	d15c      	bne.n	39ce <__aeabi_fadd+0x27a>
    3914:	2b00      	cmp	r3, #0
    3916:	d100      	bne.n	391a <__aeabi_fadd+0x1c6>
    3918:	e080      	b.n	3a1c <__aeabi_fadd+0x2c8>
    391a:	2e00      	cmp	r6, #0
    391c:	d100      	bne.n	3920 <__aeabi_fadd+0x1cc>
    391e:	e730      	b.n	3782 <__aeabi_fadd+0x2e>
    3920:	199b      	adds	r3, r3, r6
    3922:	0158      	lsls	r0, r3, #5
    3924:	d400      	bmi.n	3928 <__aeabi_fadd+0x1d4>
    3926:	e72c      	b.n	3782 <__aeabi_fadd+0x2e>
    3928:	4a3f      	ldr	r2, [pc, #252]	; (3a28 <__aeabi_fadd+0x2d4>)
    392a:	2401      	movs	r4, #1
    392c:	4013      	ands	r3, r2
    392e:	e728      	b.n	3782 <__aeabi_fadd+0x2e>
    3930:	2c00      	cmp	r4, #0
    3932:	d115      	bne.n	3960 <__aeabi_fadd+0x20c>
    3934:	2b00      	cmp	r3, #0
    3936:	d140      	bne.n	39ba <__aeabi_fadd+0x266>
    3938:	2e00      	cmp	r6, #0
    393a:	d063      	beq.n	3a04 <__aeabi_fadd+0x2b0>
    393c:	1c33      	adds	r3, r6, #0
    393e:	1c0d      	adds	r5, r1, #0
    3940:	e71f      	b.n	3782 <__aeabi_fadd+0x2e>
    3942:	2c00      	cmp	r4, #0
    3944:	d121      	bne.n	398a <__aeabi_fadd+0x236>
    3946:	2b00      	cmp	r3, #0
    3948:	d054      	beq.n	39f4 <__aeabi_fadd+0x2a0>
    394a:	43c9      	mvns	r1, r1
    394c:	2900      	cmp	r1, #0
    394e:	d004      	beq.n	395a <__aeabi_fadd+0x206>
    3950:	28ff      	cmp	r0, #255	; 0xff
    3952:	d04c      	beq.n	39ee <__aeabi_fadd+0x29a>
    3954:	291b      	cmp	r1, #27
    3956:	dd58      	ble.n	3a0a <__aeabi_fadd+0x2b6>
    3958:	2301      	movs	r3, #1
    395a:	199b      	adds	r3, r3, r6
    395c:	1c04      	adds	r4, r0, #0
    395e:	e779      	b.n	3854 <__aeabi_fadd+0x100>
    3960:	2b00      	cmp	r3, #0
    3962:	d119      	bne.n	3998 <__aeabi_fadd+0x244>
    3964:	2e00      	cmp	r6, #0
    3966:	d048      	beq.n	39fa <__aeabi_fadd+0x2a6>
    3968:	1c33      	adds	r3, r6, #0
    396a:	1c0d      	adds	r5, r1, #0
    396c:	24ff      	movs	r4, #255	; 0xff
    396e:	e708      	b.n	3782 <__aeabi_fadd+0x2e>
    3970:	1c33      	adds	r3, r6, #0
    3972:	1c04      	adds	r4, r0, #0
    3974:	1c0d      	adds	r5, r1, #0
    3976:	e704      	b.n	3782 <__aeabi_fadd+0x2e>
    3978:	1c1c      	adds	r4, r3, #0
    397a:	2520      	movs	r5, #32
    397c:	40d4      	lsrs	r4, r2
    397e:	1aaa      	subs	r2, r5, r2
    3980:	4093      	lsls	r3, r2
    3982:	1e5a      	subs	r2, r3, #1
    3984:	4193      	sbcs	r3, r2
    3986:	4323      	orrs	r3, r4
    3988:	e7a9      	b.n	38de <__aeabi_fadd+0x18a>
    398a:	28ff      	cmp	r0, #255	; 0xff
    398c:	d02f      	beq.n	39ee <__aeabi_fadd+0x29a>
    398e:	2480      	movs	r4, #128	; 0x80
    3990:	04e4      	lsls	r4, r4, #19
    3992:	4249      	negs	r1, r1
    3994:	4323      	orrs	r3, r4
    3996:	e7dd      	b.n	3954 <__aeabi_fadd+0x200>
    3998:	24ff      	movs	r4, #255	; 0xff
    399a:	2e00      	cmp	r6, #0
    399c:	d100      	bne.n	39a0 <__aeabi_fadd+0x24c>
    399e:	e6f0      	b.n	3782 <__aeabi_fadd+0x2e>
    39a0:	2280      	movs	r2, #128	; 0x80
    39a2:	08db      	lsrs	r3, r3, #3
    39a4:	03d2      	lsls	r2, r2, #15
    39a6:	4213      	tst	r3, r2
    39a8:	d004      	beq.n	39b4 <__aeabi_fadd+0x260>
    39aa:	08f6      	lsrs	r6, r6, #3
    39ac:	4216      	tst	r6, r2
    39ae:	d101      	bne.n	39b4 <__aeabi_fadd+0x260>
    39b0:	1c33      	adds	r3, r6, #0
    39b2:	1c0d      	adds	r5, r1, #0
    39b4:	00db      	lsls	r3, r3, #3
    39b6:	24ff      	movs	r4, #255	; 0xff
    39b8:	e6e3      	b.n	3782 <__aeabi_fadd+0x2e>
    39ba:	2e00      	cmp	r6, #0
    39bc:	d100      	bne.n	39c0 <__aeabi_fadd+0x26c>
    39be:	e6e0      	b.n	3782 <__aeabi_fadd+0x2e>
    39c0:	1b9a      	subs	r2, r3, r6
    39c2:	0150      	lsls	r0, r2, #5
    39c4:	d400      	bmi.n	39c8 <__aeabi_fadd+0x274>
    39c6:	e720      	b.n	380a <__aeabi_fadd+0xb6>
    39c8:	1af3      	subs	r3, r6, r3
    39ca:	1c0d      	adds	r5, r1, #0
    39cc:	e6d9      	b.n	3782 <__aeabi_fadd+0x2e>
    39ce:	2b00      	cmp	r3, #0
    39d0:	d00d      	beq.n	39ee <__aeabi_fadd+0x29a>
    39d2:	24ff      	movs	r4, #255	; 0xff
    39d4:	2e00      	cmp	r6, #0
    39d6:	d100      	bne.n	39da <__aeabi_fadd+0x286>
    39d8:	e6d3      	b.n	3782 <__aeabi_fadd+0x2e>
    39da:	2280      	movs	r2, #128	; 0x80
    39dc:	08db      	lsrs	r3, r3, #3
    39de:	03d2      	lsls	r2, r2, #15
    39e0:	4213      	tst	r3, r2
    39e2:	d0e7      	beq.n	39b4 <__aeabi_fadd+0x260>
    39e4:	08f6      	lsrs	r6, r6, #3
    39e6:	4216      	tst	r6, r2
    39e8:	d1e4      	bne.n	39b4 <__aeabi_fadd+0x260>
    39ea:	1c33      	adds	r3, r6, #0
    39ec:	e7e2      	b.n	39b4 <__aeabi_fadd+0x260>
    39ee:	1c33      	adds	r3, r6, #0
    39f0:	24ff      	movs	r4, #255	; 0xff
    39f2:	e6c6      	b.n	3782 <__aeabi_fadd+0x2e>
    39f4:	1c33      	adds	r3, r6, #0
    39f6:	1c04      	adds	r4, r0, #0
    39f8:	e6c3      	b.n	3782 <__aeabi_fadd+0x2e>
    39fa:	2380      	movs	r3, #128	; 0x80
    39fc:	2200      	movs	r2, #0
    39fe:	049b      	lsls	r3, r3, #18
    3a00:	24ff      	movs	r4, #255	; 0xff
    3a02:	e706      	b.n	3812 <__aeabi_fadd+0xbe>
    3a04:	1c23      	adds	r3, r4, #0
    3a06:	2200      	movs	r2, #0
    3a08:	e703      	b.n	3812 <__aeabi_fadd+0xbe>
    3a0a:	1c1c      	adds	r4, r3, #0
    3a0c:	2720      	movs	r7, #32
    3a0e:	40cc      	lsrs	r4, r1
    3a10:	1a79      	subs	r1, r7, r1
    3a12:	408b      	lsls	r3, r1
    3a14:	1e59      	subs	r1, r3, #1
    3a16:	418b      	sbcs	r3, r1
    3a18:	4323      	orrs	r3, r4
    3a1a:	e79e      	b.n	395a <__aeabi_fadd+0x206>
    3a1c:	1c33      	adds	r3, r6, #0
    3a1e:	e6b0      	b.n	3782 <__aeabi_fadd+0x2e>
    3a20:	2601      	movs	r6, #1
    3a22:	e716      	b.n	3852 <__aeabi_fadd+0xfe>
    3a24:	2601      	movs	r6, #1
    3a26:	e6d7      	b.n	37d8 <__aeabi_fadd+0x84>
    3a28:	fbffffff 	.word	0xfbffffff

00003a2c <__aeabi_fdiv>:
    3a2c:	b5f0      	push	{r4, r5, r6, r7, lr}
    3a2e:	465f      	mov	r7, fp
    3a30:	4656      	mov	r6, sl
    3a32:	464d      	mov	r5, r9
    3a34:	4644      	mov	r4, r8
    3a36:	b4f0      	push	{r4, r5, r6, r7}
    3a38:	0246      	lsls	r6, r0, #9
    3a3a:	0045      	lsls	r5, r0, #1
    3a3c:	0fc0      	lsrs	r0, r0, #31
    3a3e:	b085      	sub	sp, #20
    3a40:	1c0f      	adds	r7, r1, #0
    3a42:	0a76      	lsrs	r6, r6, #9
    3a44:	0e2d      	lsrs	r5, r5, #24
    3a46:	4680      	mov	r8, r0
    3a48:	d041      	beq.n	3ace <__aeabi_fdiv+0xa2>
    3a4a:	2dff      	cmp	r5, #255	; 0xff
    3a4c:	d026      	beq.n	3a9c <__aeabi_fdiv+0x70>
    3a4e:	2480      	movs	r4, #128	; 0x80
    3a50:	0424      	lsls	r4, r4, #16
    3a52:	2100      	movs	r1, #0
    3a54:	4326      	orrs	r6, r4
    3a56:	00f6      	lsls	r6, r6, #3
    3a58:	3d7f      	subs	r5, #127	; 0x7f
    3a5a:	4689      	mov	r9, r1
    3a5c:	468b      	mov	fp, r1
    3a5e:	0ff9      	lsrs	r1, r7, #31
    3a60:	027c      	lsls	r4, r7, #9
    3a62:	0078      	lsls	r0, r7, #1
    3a64:	0a64      	lsrs	r4, r4, #9
    3a66:	0e00      	lsrs	r0, r0, #24
    3a68:	9100      	str	r1, [sp, #0]
    3a6a:	468a      	mov	sl, r1
    3a6c:	d03c      	beq.n	3ae8 <__aeabi_fdiv+0xbc>
    3a6e:	28ff      	cmp	r0, #255	; 0xff
    3a70:	d034      	beq.n	3adc <__aeabi_fdiv+0xb0>
    3a72:	2380      	movs	r3, #128	; 0x80
    3a74:	041b      	lsls	r3, r3, #16
    3a76:	431c      	orrs	r4, r3
    3a78:	2300      	movs	r3, #0
    3a7a:	00e4      	lsls	r4, r4, #3
    3a7c:	387f      	subs	r0, #127	; 0x7f
    3a7e:	9301      	str	r3, [sp, #4]
    3a80:	9f00      	ldr	r7, [sp, #0]
    3a82:	4643      	mov	r3, r8
    3a84:	9a01      	ldr	r2, [sp, #4]
    3a86:	407b      	eors	r3, r7
    3a88:	4649      	mov	r1, r9
    3a8a:	469c      	mov	ip, r3
    3a8c:	4311      	orrs	r1, r2
    3a8e:	290f      	cmp	r1, #15
    3a90:	d900      	bls.n	3a94 <__aeabi_fdiv+0x68>
    3a92:	e071      	b.n	3b78 <__aeabi_fdiv+0x14c>
    3a94:	4f76      	ldr	r7, [pc, #472]	; (3c70 <__aeabi_fdiv+0x244>)
    3a96:	0089      	lsls	r1, r1, #2
    3a98:	587f      	ldr	r7, [r7, r1]
    3a9a:	46bf      	mov	pc, r7
    3a9c:	2e00      	cmp	r6, #0
    3a9e:	d13e      	bne.n	3b1e <__aeabi_fdiv+0xf2>
    3aa0:	2208      	movs	r2, #8
    3aa2:	2302      	movs	r3, #2
    3aa4:	4691      	mov	r9, r2
    3aa6:	469b      	mov	fp, r3
    3aa8:	e7d9      	b.n	3a5e <__aeabi_fdiv+0x32>
    3aaa:	465a      	mov	r2, fp
    3aac:	1c34      	adds	r4, r6, #0
    3aae:	46c2      	mov	sl, r8
    3ab0:	9201      	str	r2, [sp, #4]
    3ab2:	9901      	ldr	r1, [sp, #4]
    3ab4:	2902      	cmp	r1, #2
    3ab6:	d037      	beq.n	3b28 <__aeabi_fdiv+0xfc>
    3ab8:	2903      	cmp	r1, #3
    3aba:	d100      	bne.n	3abe <__aeabi_fdiv+0x92>
    3abc:	e0cf      	b.n	3c5e <__aeabi_fdiv+0x232>
    3abe:	2901      	cmp	r1, #1
    3ac0:	d000      	beq.n	3ac4 <__aeabi_fdiv+0x98>
    3ac2:	e0ab      	b.n	3c1c <__aeabi_fdiv+0x1f0>
    3ac4:	4653      	mov	r3, sl
    3ac6:	400b      	ands	r3, r1
    3ac8:	2200      	movs	r2, #0
    3aca:	2600      	movs	r6, #0
    3acc:	e032      	b.n	3b34 <__aeabi_fdiv+0x108>
    3ace:	2e00      	cmp	r6, #0
    3ad0:	d119      	bne.n	3b06 <__aeabi_fdiv+0xda>
    3ad2:	2104      	movs	r1, #4
    3ad4:	2201      	movs	r2, #1
    3ad6:	4689      	mov	r9, r1
    3ad8:	4693      	mov	fp, r2
    3ada:	e7c0      	b.n	3a5e <__aeabi_fdiv+0x32>
    3adc:	1c22      	adds	r2, r4, #0
    3ade:	1e53      	subs	r3, r2, #1
    3ae0:	419a      	sbcs	r2, r3
    3ae2:	3202      	adds	r2, #2
    3ae4:	9201      	str	r2, [sp, #4]
    3ae6:	e7cb      	b.n	3a80 <__aeabi_fdiv+0x54>
    3ae8:	2701      	movs	r7, #1
    3aea:	9701      	str	r7, [sp, #4]
    3aec:	2c00      	cmp	r4, #0
    3aee:	d0c7      	beq.n	3a80 <__aeabi_fdiv+0x54>
    3af0:	1c20      	adds	r0, r4, #0
    3af2:	f002 fb19 	bl	6128 <__clzsi2>
    3af6:	1f43      	subs	r3, r0, #5
    3af8:	409c      	lsls	r4, r3
    3afa:	2376      	movs	r3, #118	; 0x76
    3afc:	425b      	negs	r3, r3
    3afe:	2100      	movs	r1, #0
    3b00:	1a18      	subs	r0, r3, r0
    3b02:	9101      	str	r1, [sp, #4]
    3b04:	e7bc      	b.n	3a80 <__aeabi_fdiv+0x54>
    3b06:	1c30      	adds	r0, r6, #0
    3b08:	f002 fb0e 	bl	6128 <__clzsi2>
    3b0c:	2576      	movs	r5, #118	; 0x76
    3b0e:	1f43      	subs	r3, r0, #5
    3b10:	409e      	lsls	r6, r3
    3b12:	426d      	negs	r5, r5
    3b14:	2300      	movs	r3, #0
    3b16:	1a2d      	subs	r5, r5, r0
    3b18:	4699      	mov	r9, r3
    3b1a:	469b      	mov	fp, r3
    3b1c:	e79f      	b.n	3a5e <__aeabi_fdiv+0x32>
    3b1e:	230c      	movs	r3, #12
    3b20:	2103      	movs	r1, #3
    3b22:	4699      	mov	r9, r3
    3b24:	468b      	mov	fp, r1
    3b26:	e79a      	b.n	3a5e <__aeabi_fdiv+0x32>
    3b28:	46d4      	mov	ip, sl
    3b2a:	2301      	movs	r3, #1
    3b2c:	4667      	mov	r7, ip
    3b2e:	403b      	ands	r3, r7
    3b30:	22ff      	movs	r2, #255	; 0xff
    3b32:	2600      	movs	r6, #0
    3b34:	0276      	lsls	r6, r6, #9
    3b36:	05d2      	lsls	r2, r2, #23
    3b38:	0a70      	lsrs	r0, r6, #9
    3b3a:	07db      	lsls	r3, r3, #31
    3b3c:	4310      	orrs	r0, r2
    3b3e:	4318      	orrs	r0, r3
    3b40:	b005      	add	sp, #20
    3b42:	bc3c      	pop	{r2, r3, r4, r5}
    3b44:	4690      	mov	r8, r2
    3b46:	4699      	mov	r9, r3
    3b48:	46a2      	mov	sl, r4
    3b4a:	46ab      	mov	fp, r5
    3b4c:	bdf0      	pop	{r4, r5, r6, r7, pc}
    3b4e:	2680      	movs	r6, #128	; 0x80
    3b50:	2300      	movs	r3, #0
    3b52:	03f6      	lsls	r6, r6, #15
    3b54:	22ff      	movs	r2, #255	; 0xff
    3b56:	e7ed      	b.n	3b34 <__aeabi_fdiv+0x108>
    3b58:	2200      	movs	r2, #0
    3b5a:	2600      	movs	r6, #0
    3b5c:	e7ea      	b.n	3b34 <__aeabi_fdiv+0x108>
    3b5e:	2080      	movs	r0, #128	; 0x80
    3b60:	03c0      	lsls	r0, r0, #15
    3b62:	4206      	tst	r6, r0
    3b64:	d03b      	beq.n	3bde <__aeabi_fdiv+0x1b2>
    3b66:	4204      	tst	r4, r0
    3b68:	d139      	bne.n	3bde <__aeabi_fdiv+0x1b2>
    3b6a:	1c06      	adds	r6, r0, #0
    3b6c:	4326      	orrs	r6, r4
    3b6e:	0276      	lsls	r6, r6, #9
    3b70:	0a76      	lsrs	r6, r6, #9
    3b72:	9b00      	ldr	r3, [sp, #0]
    3b74:	22ff      	movs	r2, #255	; 0xff
    3b76:	e7dd      	b.n	3b34 <__aeabi_fdiv+0x108>
    3b78:	1a28      	subs	r0, r5, r0
    3b7a:	9003      	str	r0, [sp, #12]
    3b7c:	0176      	lsls	r6, r6, #5
    3b7e:	0164      	lsls	r4, r4, #5
    3b80:	42a6      	cmp	r6, r4
    3b82:	d339      	bcc.n	3bf8 <__aeabi_fdiv+0x1cc>
    3b84:	1b36      	subs	r6, r6, r4
    3b86:	221a      	movs	r2, #26
    3b88:	2301      	movs	r3, #1
    3b8a:	2001      	movs	r0, #1
    3b8c:	1c31      	adds	r1, r6, #0
    3b8e:	005b      	lsls	r3, r3, #1
    3b90:	0076      	lsls	r6, r6, #1
    3b92:	2900      	cmp	r1, #0
    3b94:	db01      	blt.n	3b9a <__aeabi_fdiv+0x16e>
    3b96:	42b4      	cmp	r4, r6
    3b98:	d801      	bhi.n	3b9e <__aeabi_fdiv+0x172>
    3b9a:	1b36      	subs	r6, r6, r4
    3b9c:	4303      	orrs	r3, r0
    3b9e:	3a01      	subs	r2, #1
    3ba0:	2a00      	cmp	r2, #0
    3ba2:	dcf3      	bgt.n	3b8c <__aeabi_fdiv+0x160>
    3ba4:	1e74      	subs	r4, r6, #1
    3ba6:	41a6      	sbcs	r6, r4
    3ba8:	1c34      	adds	r4, r6, #0
    3baa:	431c      	orrs	r4, r3
    3bac:	9a03      	ldr	r2, [sp, #12]
    3bae:	327f      	adds	r2, #127	; 0x7f
    3bb0:	2a00      	cmp	r2, #0
    3bb2:	dd27      	ble.n	3c04 <__aeabi_fdiv+0x1d8>
    3bb4:	0763      	lsls	r3, r4, #29
    3bb6:	d004      	beq.n	3bc2 <__aeabi_fdiv+0x196>
    3bb8:	230f      	movs	r3, #15
    3bba:	4023      	ands	r3, r4
    3bbc:	2b04      	cmp	r3, #4
    3bbe:	d000      	beq.n	3bc2 <__aeabi_fdiv+0x196>
    3bc0:	3404      	adds	r4, #4
    3bc2:	0127      	lsls	r7, r4, #4
    3bc4:	d503      	bpl.n	3bce <__aeabi_fdiv+0x1a2>
    3bc6:	4b2b      	ldr	r3, [pc, #172]	; (3c74 <__aeabi_fdiv+0x248>)
    3bc8:	9a03      	ldr	r2, [sp, #12]
    3bca:	401c      	ands	r4, r3
    3bcc:	3280      	adds	r2, #128	; 0x80
    3bce:	2afe      	cmp	r2, #254	; 0xfe
    3bd0:	dd0b      	ble.n	3bea <__aeabi_fdiv+0x1be>
    3bd2:	2301      	movs	r3, #1
    3bd4:	4661      	mov	r1, ip
    3bd6:	400b      	ands	r3, r1
    3bd8:	22ff      	movs	r2, #255	; 0xff
    3bda:	2600      	movs	r6, #0
    3bdc:	e7aa      	b.n	3b34 <__aeabi_fdiv+0x108>
    3bde:	4306      	orrs	r6, r0
    3be0:	0276      	lsls	r6, r6, #9
    3be2:	0a76      	lsrs	r6, r6, #9
    3be4:	4643      	mov	r3, r8
    3be6:	22ff      	movs	r2, #255	; 0xff
    3be8:	e7a4      	b.n	3b34 <__aeabi_fdiv+0x108>
    3bea:	01a4      	lsls	r4, r4, #6
    3bec:	2301      	movs	r3, #1
    3bee:	4667      	mov	r7, ip
    3bf0:	0a66      	lsrs	r6, r4, #9
    3bf2:	b2d2      	uxtb	r2, r2
    3bf4:	403b      	ands	r3, r7
    3bf6:	e79d      	b.n	3b34 <__aeabi_fdiv+0x108>
    3bf8:	9f03      	ldr	r7, [sp, #12]
    3bfa:	221b      	movs	r2, #27
    3bfc:	3f01      	subs	r7, #1
    3bfe:	9703      	str	r7, [sp, #12]
    3c00:	2300      	movs	r3, #0
    3c02:	e7c2      	b.n	3b8a <__aeabi_fdiv+0x15e>
    3c04:	237e      	movs	r3, #126	; 0x7e
    3c06:	9f03      	ldr	r7, [sp, #12]
    3c08:	425b      	negs	r3, r3
    3c0a:	1bdb      	subs	r3, r3, r7
    3c0c:	2b1b      	cmp	r3, #27
    3c0e:	dd07      	ble.n	3c20 <__aeabi_fdiv+0x1f4>
    3c10:	2301      	movs	r3, #1
    3c12:	4661      	mov	r1, ip
    3c14:	400b      	ands	r3, r1
    3c16:	2200      	movs	r2, #0
    3c18:	2600      	movs	r6, #0
    3c1a:	e78b      	b.n	3b34 <__aeabi_fdiv+0x108>
    3c1c:	46d4      	mov	ip, sl
    3c1e:	e7c5      	b.n	3bac <__aeabi_fdiv+0x180>
    3c20:	1c22      	adds	r2, r4, #0
    3c22:	40da      	lsrs	r2, r3
    3c24:	9b03      	ldr	r3, [sp, #12]
    3c26:	339e      	adds	r3, #158	; 0x9e
    3c28:	409c      	lsls	r4, r3
    3c2a:	1c23      	adds	r3, r4, #0
    3c2c:	1e5c      	subs	r4, r3, #1
    3c2e:	41a3      	sbcs	r3, r4
    3c30:	4313      	orrs	r3, r2
    3c32:	075a      	lsls	r2, r3, #29
    3c34:	d004      	beq.n	3c40 <__aeabi_fdiv+0x214>
    3c36:	220f      	movs	r2, #15
    3c38:	401a      	ands	r2, r3
    3c3a:	2a04      	cmp	r2, #4
    3c3c:	d000      	beq.n	3c40 <__aeabi_fdiv+0x214>
    3c3e:	3304      	adds	r3, #4
    3c40:	015f      	lsls	r7, r3, #5
    3c42:	d505      	bpl.n	3c50 <__aeabi_fdiv+0x224>
    3c44:	2301      	movs	r3, #1
    3c46:	4661      	mov	r1, ip
    3c48:	400b      	ands	r3, r1
    3c4a:	2201      	movs	r2, #1
    3c4c:	2600      	movs	r6, #0
    3c4e:	e771      	b.n	3b34 <__aeabi_fdiv+0x108>
    3c50:	019e      	lsls	r6, r3, #6
    3c52:	4662      	mov	r2, ip
    3c54:	2301      	movs	r3, #1
    3c56:	4013      	ands	r3, r2
    3c58:	0a76      	lsrs	r6, r6, #9
    3c5a:	2200      	movs	r2, #0
    3c5c:	e76a      	b.n	3b34 <__aeabi_fdiv+0x108>
    3c5e:	2680      	movs	r6, #128	; 0x80
    3c60:	03f6      	lsls	r6, r6, #15
    3c62:	4326      	orrs	r6, r4
    3c64:	0276      	lsls	r6, r6, #9
    3c66:	0a76      	lsrs	r6, r6, #9
    3c68:	4653      	mov	r3, sl
    3c6a:	22ff      	movs	r2, #255	; 0xff
    3c6c:	e762      	b.n	3b34 <__aeabi_fdiv+0x108>
    3c6e:	46c0      	nop			; (mov r8, r8)
    3c70:	000067ac 	.word	0x000067ac
    3c74:	f7ffffff 	.word	0xf7ffffff

00003c78 <__eqsf2>:
    3c78:	024a      	lsls	r2, r1, #9
    3c7a:	0243      	lsls	r3, r0, #9
    3c7c:	b570      	push	{r4, r5, r6, lr}
    3c7e:	0a5c      	lsrs	r4, r3, #9
    3c80:	0a55      	lsrs	r5, r2, #9
    3c82:	0043      	lsls	r3, r0, #1
    3c84:	004a      	lsls	r2, r1, #1
    3c86:	0e1b      	lsrs	r3, r3, #24
    3c88:	0fc6      	lsrs	r6, r0, #31
    3c8a:	0e12      	lsrs	r2, r2, #24
    3c8c:	0fc9      	lsrs	r1, r1, #31
    3c8e:	2bff      	cmp	r3, #255	; 0xff
    3c90:	d005      	beq.n	3c9e <__eqsf2+0x26>
    3c92:	2aff      	cmp	r2, #255	; 0xff
    3c94:	d008      	beq.n	3ca8 <__eqsf2+0x30>
    3c96:	2001      	movs	r0, #1
    3c98:	4293      	cmp	r3, r2
    3c9a:	d00b      	beq.n	3cb4 <__eqsf2+0x3c>
    3c9c:	bd70      	pop	{r4, r5, r6, pc}
    3c9e:	2001      	movs	r0, #1
    3ca0:	2c00      	cmp	r4, #0
    3ca2:	d1fb      	bne.n	3c9c <__eqsf2+0x24>
    3ca4:	2aff      	cmp	r2, #255	; 0xff
    3ca6:	d1f6      	bne.n	3c96 <__eqsf2+0x1e>
    3ca8:	2001      	movs	r0, #1
    3caa:	2d00      	cmp	r5, #0
    3cac:	d1f6      	bne.n	3c9c <__eqsf2+0x24>
    3cae:	2001      	movs	r0, #1
    3cb0:	4293      	cmp	r3, r2
    3cb2:	d1f3      	bne.n	3c9c <__eqsf2+0x24>
    3cb4:	42ac      	cmp	r4, r5
    3cb6:	d1f1      	bne.n	3c9c <__eqsf2+0x24>
    3cb8:	428e      	cmp	r6, r1
    3cba:	d005      	beq.n	3cc8 <__eqsf2+0x50>
    3cbc:	2b00      	cmp	r3, #0
    3cbe:	d1ed      	bne.n	3c9c <__eqsf2+0x24>
    3cc0:	1c20      	adds	r0, r4, #0
    3cc2:	1e44      	subs	r4, r0, #1
    3cc4:	41a0      	sbcs	r0, r4
    3cc6:	e7e9      	b.n	3c9c <__eqsf2+0x24>
    3cc8:	2000      	movs	r0, #0
    3cca:	e7e7      	b.n	3c9c <__eqsf2+0x24>

00003ccc <__gesf2>:
    3ccc:	024a      	lsls	r2, r1, #9
    3cce:	0243      	lsls	r3, r0, #9
    3cd0:	b5f0      	push	{r4, r5, r6, r7, lr}
    3cd2:	0a5c      	lsrs	r4, r3, #9
    3cd4:	0a55      	lsrs	r5, r2, #9
    3cd6:	0043      	lsls	r3, r0, #1
    3cd8:	004a      	lsls	r2, r1, #1
    3cda:	0e1b      	lsrs	r3, r3, #24
    3cdc:	0fc6      	lsrs	r6, r0, #31
    3cde:	0e12      	lsrs	r2, r2, #24
    3ce0:	0fc9      	lsrs	r1, r1, #31
    3ce2:	2bff      	cmp	r3, #255	; 0xff
    3ce4:	d031      	beq.n	3d4a <__gesf2+0x7e>
    3ce6:	2aff      	cmp	r2, #255	; 0xff
    3ce8:	d034      	beq.n	3d54 <__gesf2+0x88>
    3cea:	2b00      	cmp	r3, #0
    3cec:	d116      	bne.n	3d1c <__gesf2+0x50>
    3cee:	4260      	negs	r0, r4
    3cf0:	4160      	adcs	r0, r4
    3cf2:	4684      	mov	ip, r0
    3cf4:	2a00      	cmp	r2, #0
    3cf6:	d014      	beq.n	3d22 <__gesf2+0x56>
    3cf8:	2800      	cmp	r0, #0
    3cfa:	d120      	bne.n	3d3e <__gesf2+0x72>
    3cfc:	428e      	cmp	r6, r1
    3cfe:	d117      	bne.n	3d30 <__gesf2+0x64>
    3d00:	4293      	cmp	r3, r2
    3d02:	dc15      	bgt.n	3d30 <__gesf2+0x64>
    3d04:	db04      	blt.n	3d10 <__gesf2+0x44>
    3d06:	42ac      	cmp	r4, r5
    3d08:	d812      	bhi.n	3d30 <__gesf2+0x64>
    3d0a:	2000      	movs	r0, #0
    3d0c:	42ac      	cmp	r4, r5
    3d0e:	d212      	bcs.n	3d36 <__gesf2+0x6a>
    3d10:	4270      	negs	r0, r6
    3d12:	4170      	adcs	r0, r6
    3d14:	4240      	negs	r0, r0
    3d16:	2301      	movs	r3, #1
    3d18:	4318      	orrs	r0, r3
    3d1a:	e00c      	b.n	3d36 <__gesf2+0x6a>
    3d1c:	2a00      	cmp	r2, #0
    3d1e:	d1ed      	bne.n	3cfc <__gesf2+0x30>
    3d20:	4694      	mov	ip, r2
    3d22:	426f      	negs	r7, r5
    3d24:	416f      	adcs	r7, r5
    3d26:	4660      	mov	r0, ip
    3d28:	2800      	cmp	r0, #0
    3d2a:	d105      	bne.n	3d38 <__gesf2+0x6c>
    3d2c:	2f00      	cmp	r7, #0
    3d2e:	d0e5      	beq.n	3cfc <__gesf2+0x30>
    3d30:	4270      	negs	r0, r6
    3d32:	2301      	movs	r3, #1
    3d34:	4318      	orrs	r0, r3
    3d36:	bdf0      	pop	{r4, r5, r6, r7, pc}
    3d38:	2000      	movs	r0, #0
    3d3a:	2f00      	cmp	r7, #0
    3d3c:	d1fb      	bne.n	3d36 <__gesf2+0x6a>
    3d3e:	4248      	negs	r0, r1
    3d40:	4148      	adcs	r0, r1
    3d42:	4240      	negs	r0, r0
    3d44:	2301      	movs	r3, #1
    3d46:	4318      	orrs	r0, r3
    3d48:	e7f5      	b.n	3d36 <__gesf2+0x6a>
    3d4a:	2c00      	cmp	r4, #0
    3d4c:	d0cb      	beq.n	3ce6 <__gesf2+0x1a>
    3d4e:	2002      	movs	r0, #2
    3d50:	4240      	negs	r0, r0
    3d52:	e7f0      	b.n	3d36 <__gesf2+0x6a>
    3d54:	2d00      	cmp	r5, #0
    3d56:	d0c8      	beq.n	3cea <__gesf2+0x1e>
    3d58:	e7f9      	b.n	3d4e <__gesf2+0x82>
    3d5a:	46c0      	nop			; (mov r8, r8)

00003d5c <__lesf2>:
    3d5c:	024a      	lsls	r2, r1, #9
    3d5e:	0243      	lsls	r3, r0, #9
    3d60:	b5f0      	push	{r4, r5, r6, r7, lr}
    3d62:	0a5c      	lsrs	r4, r3, #9
    3d64:	0a55      	lsrs	r5, r2, #9
    3d66:	0043      	lsls	r3, r0, #1
    3d68:	004a      	lsls	r2, r1, #1
    3d6a:	0e1b      	lsrs	r3, r3, #24
    3d6c:	0fc6      	lsrs	r6, r0, #31
    3d6e:	0e12      	lsrs	r2, r2, #24
    3d70:	0fc9      	lsrs	r1, r1, #31
    3d72:	2bff      	cmp	r3, #255	; 0xff
    3d74:	d027      	beq.n	3dc6 <__lesf2+0x6a>
    3d76:	2aff      	cmp	r2, #255	; 0xff
    3d78:	d029      	beq.n	3dce <__lesf2+0x72>
    3d7a:	2b00      	cmp	r3, #0
    3d7c:	d010      	beq.n	3da0 <__lesf2+0x44>
    3d7e:	2a00      	cmp	r2, #0
    3d80:	d115      	bne.n	3dae <__lesf2+0x52>
    3d82:	4694      	mov	ip, r2
    3d84:	426f      	negs	r7, r5
    3d86:	416f      	adcs	r7, r5
    3d88:	4660      	mov	r0, ip
    3d8a:	2800      	cmp	r0, #0
    3d8c:	d015      	beq.n	3dba <__lesf2+0x5e>
    3d8e:	2000      	movs	r0, #0
    3d90:	2f00      	cmp	r7, #0
    3d92:	d104      	bne.n	3d9e <__lesf2+0x42>
    3d94:	4248      	negs	r0, r1
    3d96:	4148      	adcs	r0, r1
    3d98:	4240      	negs	r0, r0
    3d9a:	2301      	movs	r3, #1
    3d9c:	4318      	orrs	r0, r3
    3d9e:	bdf0      	pop	{r4, r5, r6, r7, pc}
    3da0:	4260      	negs	r0, r4
    3da2:	4160      	adcs	r0, r4
    3da4:	4684      	mov	ip, r0
    3da6:	2a00      	cmp	r2, #0
    3da8:	d0ec      	beq.n	3d84 <__lesf2+0x28>
    3daa:	2800      	cmp	r0, #0
    3dac:	d1f2      	bne.n	3d94 <__lesf2+0x38>
    3dae:	428e      	cmp	r6, r1
    3db0:	d011      	beq.n	3dd6 <__lesf2+0x7a>
    3db2:	4270      	negs	r0, r6
    3db4:	2301      	movs	r3, #1
    3db6:	4318      	orrs	r0, r3
    3db8:	e7f1      	b.n	3d9e <__lesf2+0x42>
    3dba:	2f00      	cmp	r7, #0
    3dbc:	d0f7      	beq.n	3dae <__lesf2+0x52>
    3dbe:	4270      	negs	r0, r6
    3dc0:	2301      	movs	r3, #1
    3dc2:	4318      	orrs	r0, r3
    3dc4:	e7eb      	b.n	3d9e <__lesf2+0x42>
    3dc6:	2002      	movs	r0, #2
    3dc8:	2c00      	cmp	r4, #0
    3dca:	d1e8      	bne.n	3d9e <__lesf2+0x42>
    3dcc:	e7d3      	b.n	3d76 <__lesf2+0x1a>
    3dce:	2002      	movs	r0, #2
    3dd0:	2d00      	cmp	r5, #0
    3dd2:	d1e4      	bne.n	3d9e <__lesf2+0x42>
    3dd4:	e7d1      	b.n	3d7a <__lesf2+0x1e>
    3dd6:	4293      	cmp	r3, r2
    3dd8:	dceb      	bgt.n	3db2 <__lesf2+0x56>
    3dda:	db04      	blt.n	3de6 <__lesf2+0x8a>
    3ddc:	42ac      	cmp	r4, r5
    3dde:	d8e8      	bhi.n	3db2 <__lesf2+0x56>
    3de0:	2000      	movs	r0, #0
    3de2:	42ac      	cmp	r4, r5
    3de4:	d2db      	bcs.n	3d9e <__lesf2+0x42>
    3de6:	4270      	negs	r0, r6
    3de8:	4170      	adcs	r0, r6
    3dea:	4240      	negs	r0, r0
    3dec:	2301      	movs	r3, #1
    3dee:	4318      	orrs	r0, r3
    3df0:	e7d5      	b.n	3d9e <__lesf2+0x42>
    3df2:	46c0      	nop			; (mov r8, r8)

00003df4 <__aeabi_fmul>:
    3df4:	b5f0      	push	{r4, r5, r6, r7, lr}
    3df6:	465f      	mov	r7, fp
    3df8:	4656      	mov	r6, sl
    3dfa:	464d      	mov	r5, r9
    3dfc:	4644      	mov	r4, r8
    3dfe:	b4f0      	push	{r4, r5, r6, r7}
    3e00:	0244      	lsls	r4, r0, #9
    3e02:	0046      	lsls	r6, r0, #1
    3e04:	b083      	sub	sp, #12
    3e06:	1c0f      	adds	r7, r1, #0
    3e08:	0a64      	lsrs	r4, r4, #9
    3e0a:	0e36      	lsrs	r6, r6, #24
    3e0c:	0fc5      	lsrs	r5, r0, #31
    3e0e:	2e00      	cmp	r6, #0
    3e10:	d041      	beq.n	3e96 <__aeabi_fmul+0xa2>
    3e12:	2eff      	cmp	r6, #255	; 0xff
    3e14:	d022      	beq.n	3e5c <__aeabi_fmul+0x68>
    3e16:	2380      	movs	r3, #128	; 0x80
    3e18:	041b      	lsls	r3, r3, #16
    3e1a:	2000      	movs	r0, #0
    3e1c:	431c      	orrs	r4, r3
    3e1e:	00e4      	lsls	r4, r4, #3
    3e20:	3e7f      	subs	r6, #127	; 0x7f
    3e22:	4682      	mov	sl, r0
    3e24:	4680      	mov	r8, r0
    3e26:	1c39      	adds	r1, r7, #0
    3e28:	004b      	lsls	r3, r1, #1
    3e2a:	027f      	lsls	r7, r7, #9
    3e2c:	0fc9      	lsrs	r1, r1, #31
    3e2e:	0a7f      	lsrs	r7, r7, #9
    3e30:	0e1b      	lsrs	r3, r3, #24
    3e32:	468b      	mov	fp, r1
    3e34:	d03b      	beq.n	3eae <__aeabi_fmul+0xba>
    3e36:	2bff      	cmp	r3, #255	; 0xff
    3e38:	d034      	beq.n	3ea4 <__aeabi_fmul+0xb0>
    3e3a:	2280      	movs	r2, #128	; 0x80
    3e3c:	0412      	lsls	r2, r2, #16
    3e3e:	4317      	orrs	r7, r2
    3e40:	00ff      	lsls	r7, r7, #3
    3e42:	3b7f      	subs	r3, #127	; 0x7f
    3e44:	2100      	movs	r1, #0
    3e46:	465a      	mov	r2, fp
    3e48:	406a      	eors	r2, r5
    3e4a:	9201      	str	r2, [sp, #4]
    3e4c:	4652      	mov	r2, sl
    3e4e:	430a      	orrs	r2, r1
    3e50:	2a0f      	cmp	r2, #15
    3e52:	d863      	bhi.n	3f1c <__aeabi_fmul+0x128>
    3e54:	487a      	ldr	r0, [pc, #488]	; (4040 <__aeabi_fmul+0x24c>)
    3e56:	0092      	lsls	r2, r2, #2
    3e58:	5882      	ldr	r2, [r0, r2]
    3e5a:	4697      	mov	pc, r2
    3e5c:	2c00      	cmp	r4, #0
    3e5e:	d13f      	bne.n	3ee0 <__aeabi_fmul+0xec>
    3e60:	2208      	movs	r2, #8
    3e62:	2302      	movs	r3, #2
    3e64:	4692      	mov	sl, r2
    3e66:	4698      	mov	r8, r3
    3e68:	e7dd      	b.n	3e26 <__aeabi_fmul+0x32>
    3e6a:	9501      	str	r5, [sp, #4]
    3e6c:	4640      	mov	r0, r8
    3e6e:	2802      	cmp	r0, #2
    3e70:	d12a      	bne.n	3ec8 <__aeabi_fmul+0xd4>
    3e72:	9a01      	ldr	r2, [sp, #4]
    3e74:	2501      	movs	r5, #1
    3e76:	4015      	ands	r5, r2
    3e78:	23ff      	movs	r3, #255	; 0xff
    3e7a:	2400      	movs	r4, #0
    3e7c:	0264      	lsls	r4, r4, #9
    3e7e:	05db      	lsls	r3, r3, #23
    3e80:	0a60      	lsrs	r0, r4, #9
    3e82:	07ed      	lsls	r5, r5, #31
    3e84:	4318      	orrs	r0, r3
    3e86:	4328      	orrs	r0, r5
    3e88:	b003      	add	sp, #12
    3e8a:	bc3c      	pop	{r2, r3, r4, r5}
    3e8c:	4690      	mov	r8, r2
    3e8e:	4699      	mov	r9, r3
    3e90:	46a2      	mov	sl, r4
    3e92:	46ab      	mov	fp, r5
    3e94:	bdf0      	pop	{r4, r5, r6, r7, pc}
    3e96:	2c00      	cmp	r4, #0
    3e98:	d127      	bne.n	3eea <__aeabi_fmul+0xf6>
    3e9a:	2004      	movs	r0, #4
    3e9c:	2201      	movs	r2, #1
    3e9e:	4682      	mov	sl, r0
    3ea0:	4690      	mov	r8, r2
    3ea2:	e7c0      	b.n	3e26 <__aeabi_fmul+0x32>
    3ea4:	1c39      	adds	r1, r7, #0
    3ea6:	1e4a      	subs	r2, r1, #1
    3ea8:	4191      	sbcs	r1, r2
    3eaa:	3102      	adds	r1, #2
    3eac:	e7cb      	b.n	3e46 <__aeabi_fmul+0x52>
    3eae:	2101      	movs	r1, #1
    3eb0:	2f00      	cmp	r7, #0
    3eb2:	d0c8      	beq.n	3e46 <__aeabi_fmul+0x52>
    3eb4:	1c38      	adds	r0, r7, #0
    3eb6:	f002 f937 	bl	6128 <__clzsi2>
    3eba:	1f43      	subs	r3, r0, #5
    3ebc:	409f      	lsls	r7, r3
    3ebe:	2376      	movs	r3, #118	; 0x76
    3ec0:	425b      	negs	r3, r3
    3ec2:	1a1b      	subs	r3, r3, r0
    3ec4:	2100      	movs	r1, #0
    3ec6:	e7be      	b.n	3e46 <__aeabi_fmul+0x52>
    3ec8:	2803      	cmp	r0, #3
    3eca:	d100      	bne.n	3ece <__aeabi_fmul+0xda>
    3ecc:	e0ae      	b.n	402c <__aeabi_fmul+0x238>
    3ece:	2801      	cmp	r0, #1
    3ed0:	d14f      	bne.n	3f72 <__aeabi_fmul+0x17e>
    3ed2:	9801      	ldr	r0, [sp, #4]
    3ed4:	4642      	mov	r2, r8
    3ed6:	4010      	ands	r0, r2
    3ed8:	b2c5      	uxtb	r5, r0
    3eda:	2300      	movs	r3, #0
    3edc:	2400      	movs	r4, #0
    3ede:	e7cd      	b.n	3e7c <__aeabi_fmul+0x88>
    3ee0:	230c      	movs	r3, #12
    3ee2:	2003      	movs	r0, #3
    3ee4:	469a      	mov	sl, r3
    3ee6:	4680      	mov	r8, r0
    3ee8:	e79d      	b.n	3e26 <__aeabi_fmul+0x32>
    3eea:	1c20      	adds	r0, r4, #0
    3eec:	f002 f91c 	bl	6128 <__clzsi2>
    3ef0:	2676      	movs	r6, #118	; 0x76
    3ef2:	1f43      	subs	r3, r0, #5
    3ef4:	409c      	lsls	r4, r3
    3ef6:	4276      	negs	r6, r6
    3ef8:	2300      	movs	r3, #0
    3efa:	1a36      	subs	r6, r6, r0
    3efc:	469a      	mov	sl, r3
    3efe:	4698      	mov	r8, r3
    3f00:	e791      	b.n	3e26 <__aeabi_fmul+0x32>
    3f02:	2480      	movs	r4, #128	; 0x80
    3f04:	2500      	movs	r5, #0
    3f06:	03e4      	lsls	r4, r4, #15
    3f08:	23ff      	movs	r3, #255	; 0xff
    3f0a:	e7b7      	b.n	3e7c <__aeabi_fmul+0x88>
    3f0c:	465b      	mov	r3, fp
    3f0e:	1c3c      	adds	r4, r7, #0
    3f10:	9301      	str	r3, [sp, #4]
    3f12:	4688      	mov	r8, r1
    3f14:	e7aa      	b.n	3e6c <__aeabi_fmul+0x78>
    3f16:	1c3c      	adds	r4, r7, #0
    3f18:	4688      	mov	r8, r1
    3f1a:	e7a7      	b.n	3e6c <__aeabi_fmul+0x78>
    3f1c:	0c25      	lsrs	r5, r4, #16
    3f1e:	0424      	lsls	r4, r4, #16
    3f20:	0c3a      	lsrs	r2, r7, #16
    3f22:	0c24      	lsrs	r4, r4, #16
    3f24:	043f      	lsls	r7, r7, #16
    3f26:	18f6      	adds	r6, r6, r3
    3f28:	0c3f      	lsrs	r7, r7, #16
    3f2a:	1c21      	adds	r1, r4, #0
    3f2c:	1c23      	adds	r3, r4, #0
    3f2e:	4379      	muls	r1, r7
    3f30:	4353      	muls	r3, r2
    3f32:	436f      	muls	r7, r5
    3f34:	4355      	muls	r5, r2
    3f36:	18fb      	adds	r3, r7, r3
    3f38:	0c0a      	lsrs	r2, r1, #16
    3f3a:	189b      	adds	r3, r3, r2
    3f3c:	46b1      	mov	r9, r6
    3f3e:	429f      	cmp	r7, r3
    3f40:	d902      	bls.n	3f48 <__aeabi_fmul+0x154>
    3f42:	2280      	movs	r2, #128	; 0x80
    3f44:	0252      	lsls	r2, r2, #9
    3f46:	18ad      	adds	r5, r5, r2
    3f48:	0409      	lsls	r1, r1, #16
    3f4a:	041a      	lsls	r2, r3, #16
    3f4c:	0c09      	lsrs	r1, r1, #16
    3f4e:	1852      	adds	r2, r2, r1
    3f50:	0194      	lsls	r4, r2, #6
    3f52:	0c1b      	lsrs	r3, r3, #16
    3f54:	1e61      	subs	r1, r4, #1
    3f56:	418c      	sbcs	r4, r1
    3f58:	0e92      	lsrs	r2, r2, #26
    3f5a:	18ed      	adds	r5, r5, r3
    3f5c:	4314      	orrs	r4, r2
    3f5e:	01ad      	lsls	r5, r5, #6
    3f60:	432c      	orrs	r4, r5
    3f62:	0123      	lsls	r3, r4, #4
    3f64:	d505      	bpl.n	3f72 <__aeabi_fmul+0x17e>
    3f66:	2201      	movs	r2, #1
    3f68:	0863      	lsrs	r3, r4, #1
    3f6a:	2001      	movs	r0, #1
    3f6c:	4014      	ands	r4, r2
    3f6e:	4481      	add	r9, r0
    3f70:	431c      	orrs	r4, r3
    3f72:	464b      	mov	r3, r9
    3f74:	337f      	adds	r3, #127	; 0x7f
    3f76:	2b00      	cmp	r3, #0
    3f78:	dd2d      	ble.n	3fd6 <__aeabi_fmul+0x1e2>
    3f7a:	0760      	lsls	r0, r4, #29
    3f7c:	d004      	beq.n	3f88 <__aeabi_fmul+0x194>
    3f7e:	220f      	movs	r2, #15
    3f80:	4022      	ands	r2, r4
    3f82:	2a04      	cmp	r2, #4
    3f84:	d000      	beq.n	3f88 <__aeabi_fmul+0x194>
    3f86:	3404      	adds	r4, #4
    3f88:	0122      	lsls	r2, r4, #4
    3f8a:	d503      	bpl.n	3f94 <__aeabi_fmul+0x1a0>
    3f8c:	4b2d      	ldr	r3, [pc, #180]	; (4044 <__aeabi_fmul+0x250>)
    3f8e:	401c      	ands	r4, r3
    3f90:	464b      	mov	r3, r9
    3f92:	3380      	adds	r3, #128	; 0x80
    3f94:	2bfe      	cmp	r3, #254	; 0xfe
    3f96:	dd17      	ble.n	3fc8 <__aeabi_fmul+0x1d4>
    3f98:	9b01      	ldr	r3, [sp, #4]
    3f9a:	2501      	movs	r5, #1
    3f9c:	401d      	ands	r5, r3
    3f9e:	2400      	movs	r4, #0
    3fa0:	23ff      	movs	r3, #255	; 0xff
    3fa2:	e76b      	b.n	3e7c <__aeabi_fmul+0x88>
    3fa4:	2080      	movs	r0, #128	; 0x80
    3fa6:	03c0      	lsls	r0, r0, #15
    3fa8:	4204      	tst	r4, r0
    3faa:	d008      	beq.n	3fbe <__aeabi_fmul+0x1ca>
    3fac:	4207      	tst	r7, r0
    3fae:	d106      	bne.n	3fbe <__aeabi_fmul+0x1ca>
    3fb0:	1c04      	adds	r4, r0, #0
    3fb2:	433c      	orrs	r4, r7
    3fb4:	0264      	lsls	r4, r4, #9
    3fb6:	0a64      	lsrs	r4, r4, #9
    3fb8:	465d      	mov	r5, fp
    3fba:	23ff      	movs	r3, #255	; 0xff
    3fbc:	e75e      	b.n	3e7c <__aeabi_fmul+0x88>
    3fbe:	4304      	orrs	r4, r0
    3fc0:	0264      	lsls	r4, r4, #9
    3fc2:	0a64      	lsrs	r4, r4, #9
    3fc4:	23ff      	movs	r3, #255	; 0xff
    3fc6:	e759      	b.n	3e7c <__aeabi_fmul+0x88>
    3fc8:	9801      	ldr	r0, [sp, #4]
    3fca:	01a4      	lsls	r4, r4, #6
    3fcc:	2501      	movs	r5, #1
    3fce:	0a64      	lsrs	r4, r4, #9
    3fd0:	b2db      	uxtb	r3, r3
    3fd2:	4005      	ands	r5, r0
    3fd4:	e752      	b.n	3e7c <__aeabi_fmul+0x88>
    3fd6:	237e      	movs	r3, #126	; 0x7e
    3fd8:	425b      	negs	r3, r3
    3fda:	464a      	mov	r2, r9
    3fdc:	1a9b      	subs	r3, r3, r2
    3fde:	2b1b      	cmp	r3, #27
    3fe0:	dd05      	ble.n	3fee <__aeabi_fmul+0x1fa>
    3fe2:	9b01      	ldr	r3, [sp, #4]
    3fe4:	2501      	movs	r5, #1
    3fe6:	401d      	ands	r5, r3
    3fe8:	2400      	movs	r4, #0
    3fea:	2300      	movs	r3, #0
    3fec:	e746      	b.n	3e7c <__aeabi_fmul+0x88>
    3fee:	1c22      	adds	r2, r4, #0
    3ff0:	40da      	lsrs	r2, r3
    3ff2:	464b      	mov	r3, r9
    3ff4:	339e      	adds	r3, #158	; 0x9e
    3ff6:	409c      	lsls	r4, r3
    3ff8:	1c23      	adds	r3, r4, #0
    3ffa:	1e5c      	subs	r4, r3, #1
    3ffc:	41a3      	sbcs	r3, r4
    3ffe:	4313      	orrs	r3, r2
    4000:	0758      	lsls	r0, r3, #29
    4002:	d004      	beq.n	400e <__aeabi_fmul+0x21a>
    4004:	220f      	movs	r2, #15
    4006:	401a      	ands	r2, r3
    4008:	2a04      	cmp	r2, #4
    400a:	d000      	beq.n	400e <__aeabi_fmul+0x21a>
    400c:	3304      	adds	r3, #4
    400e:	015a      	lsls	r2, r3, #5
    4010:	d505      	bpl.n	401e <__aeabi_fmul+0x22a>
    4012:	9b01      	ldr	r3, [sp, #4]
    4014:	2501      	movs	r5, #1
    4016:	401d      	ands	r5, r3
    4018:	2400      	movs	r4, #0
    401a:	2301      	movs	r3, #1
    401c:	e72e      	b.n	3e7c <__aeabi_fmul+0x88>
    401e:	9801      	ldr	r0, [sp, #4]
    4020:	019c      	lsls	r4, r3, #6
    4022:	2501      	movs	r5, #1
    4024:	0a64      	lsrs	r4, r4, #9
    4026:	4005      	ands	r5, r0
    4028:	2300      	movs	r3, #0
    402a:	e727      	b.n	3e7c <__aeabi_fmul+0x88>
    402c:	2780      	movs	r7, #128	; 0x80
    402e:	03ff      	lsls	r7, r7, #15
    4030:	9b01      	ldr	r3, [sp, #4]
    4032:	433c      	orrs	r4, r7
    4034:	0264      	lsls	r4, r4, #9
    4036:	2501      	movs	r5, #1
    4038:	401d      	ands	r5, r3
    403a:	0a64      	lsrs	r4, r4, #9
    403c:	23ff      	movs	r3, #255	; 0xff
    403e:	e71d      	b.n	3e7c <__aeabi_fmul+0x88>
    4040:	000067ec 	.word	0x000067ec
    4044:	f7ffffff 	.word	0xf7ffffff

00004048 <__aeabi_fsub>:
    4048:	b5f8      	push	{r3, r4, r5, r6, r7, lr}
    404a:	0fc2      	lsrs	r2, r0, #31
    404c:	0243      	lsls	r3, r0, #9
    404e:	0044      	lsls	r4, r0, #1
    4050:	024d      	lsls	r5, r1, #9
    4052:	0048      	lsls	r0, r1, #1
    4054:	0e24      	lsrs	r4, r4, #24
    4056:	1c16      	adds	r6, r2, #0
    4058:	099b      	lsrs	r3, r3, #6
    405a:	0e00      	lsrs	r0, r0, #24
    405c:	0fc9      	lsrs	r1, r1, #31
    405e:	09ad      	lsrs	r5, r5, #6
    4060:	28ff      	cmp	r0, #255	; 0xff
    4062:	d100      	bne.n	4066 <__aeabi_fsub+0x1e>
    4064:	e083      	b.n	416e <__aeabi_fsub+0x126>
    4066:	2701      	movs	r7, #1
    4068:	4079      	eors	r1, r7
    406a:	428a      	cmp	r2, r1
    406c:	d05c      	beq.n	4128 <__aeabi_fsub+0xe0>
    406e:	1a22      	subs	r2, r4, r0
    4070:	2a00      	cmp	r2, #0
    4072:	dc00      	bgt.n	4076 <__aeabi_fsub+0x2e>
    4074:	e08e      	b.n	4194 <__aeabi_fsub+0x14c>
    4076:	2800      	cmp	r0, #0
    4078:	d11e      	bne.n	40b8 <__aeabi_fsub+0x70>
    407a:	2d00      	cmp	r5, #0
    407c:	d000      	beq.n	4080 <__aeabi_fsub+0x38>
    407e:	e07a      	b.n	4176 <__aeabi_fsub+0x12e>
    4080:	0758      	lsls	r0, r3, #29
    4082:	d004      	beq.n	408e <__aeabi_fsub+0x46>
    4084:	220f      	movs	r2, #15
    4086:	401a      	ands	r2, r3
    4088:	2a04      	cmp	r2, #4
    408a:	d000      	beq.n	408e <__aeabi_fsub+0x46>
    408c:	3304      	adds	r3, #4
    408e:	2180      	movs	r1, #128	; 0x80
    4090:	04c9      	lsls	r1, r1, #19
    4092:	2201      	movs	r2, #1
    4094:	4019      	ands	r1, r3
    4096:	4032      	ands	r2, r6
    4098:	2900      	cmp	r1, #0
    409a:	d03a      	beq.n	4112 <__aeabi_fsub+0xca>
    409c:	3401      	adds	r4, #1
    409e:	2cff      	cmp	r4, #255	; 0xff
    40a0:	d100      	bne.n	40a4 <__aeabi_fsub+0x5c>
    40a2:	e083      	b.n	41ac <__aeabi_fsub+0x164>
    40a4:	019b      	lsls	r3, r3, #6
    40a6:	0a5b      	lsrs	r3, r3, #9
    40a8:	025b      	lsls	r3, r3, #9
    40aa:	b2e4      	uxtb	r4, r4
    40ac:	05e4      	lsls	r4, r4, #23
    40ae:	0a58      	lsrs	r0, r3, #9
    40b0:	07d2      	lsls	r2, r2, #31
    40b2:	4320      	orrs	r0, r4
    40b4:	4310      	orrs	r0, r2
    40b6:	bdf8      	pop	{r3, r4, r5, r6, r7, pc}
    40b8:	2cff      	cmp	r4, #255	; 0xff
    40ba:	d0e1      	beq.n	4080 <__aeabi_fsub+0x38>
    40bc:	2180      	movs	r1, #128	; 0x80
    40be:	04c9      	lsls	r1, r1, #19
    40c0:	430d      	orrs	r5, r1
    40c2:	2a1b      	cmp	r2, #27
    40c4:	dd00      	ble.n	40c8 <__aeabi_fsub+0x80>
    40c6:	e131      	b.n	432c <__aeabi_fsub+0x2e4>
    40c8:	1c29      	adds	r1, r5, #0
    40ca:	2020      	movs	r0, #32
    40cc:	40d1      	lsrs	r1, r2
    40ce:	1a82      	subs	r2, r0, r2
    40d0:	4095      	lsls	r5, r2
    40d2:	1e6a      	subs	r2, r5, #1
    40d4:	4195      	sbcs	r5, r2
    40d6:	430d      	orrs	r5, r1
    40d8:	1b5b      	subs	r3, r3, r5
    40da:	0158      	lsls	r0, r3, #5
    40dc:	d5d0      	bpl.n	4080 <__aeabi_fsub+0x38>
    40de:	019b      	lsls	r3, r3, #6
    40e0:	099f      	lsrs	r7, r3, #6
    40e2:	1c38      	adds	r0, r7, #0
    40e4:	f002 f820 	bl	6128 <__clzsi2>
    40e8:	1f42      	subs	r2, r0, #5
    40ea:	4097      	lsls	r7, r2
    40ec:	4294      	cmp	r4, r2
    40ee:	dc5f      	bgt.n	41b0 <__aeabi_fsub+0x168>
    40f0:	1b14      	subs	r4, r2, r4
    40f2:	231f      	movs	r3, #31
    40f4:	1b1b      	subs	r3, r3, r4
    40f6:	1c3a      	adds	r2, r7, #0
    40f8:	409f      	lsls	r7, r3
    40fa:	1c61      	adds	r1, r4, #1
    40fc:	1c3b      	adds	r3, r7, #0
    40fe:	40ca      	lsrs	r2, r1
    4100:	1e5f      	subs	r7, r3, #1
    4102:	41bb      	sbcs	r3, r7
    4104:	4313      	orrs	r3, r2
    4106:	2400      	movs	r4, #0
    4108:	e7ba      	b.n	4080 <__aeabi_fsub+0x38>
    410a:	1e13      	subs	r3, r2, #0
    410c:	d1b8      	bne.n	4080 <__aeabi_fsub+0x38>
    410e:	2300      	movs	r3, #0
    4110:	2200      	movs	r2, #0
    4112:	08db      	lsrs	r3, r3, #3
    4114:	2cff      	cmp	r4, #255	; 0xff
    4116:	d104      	bne.n	4122 <__aeabi_fsub+0xda>
    4118:	2b00      	cmp	r3, #0
    411a:	d047      	beq.n	41ac <__aeabi_fsub+0x164>
    411c:	2080      	movs	r0, #128	; 0x80
    411e:	03c0      	lsls	r0, r0, #15
    4120:	4303      	orrs	r3, r0
    4122:	025b      	lsls	r3, r3, #9
    4124:	0a5b      	lsrs	r3, r3, #9
    4126:	e7bf      	b.n	40a8 <__aeabi_fsub+0x60>
    4128:	1a21      	subs	r1, r4, r0
    412a:	2900      	cmp	r1, #0
    412c:	dd44      	ble.n	41b8 <__aeabi_fsub+0x170>
    412e:	2800      	cmp	r0, #0
    4130:	d027      	beq.n	4182 <__aeabi_fsub+0x13a>
    4132:	2cff      	cmp	r4, #255	; 0xff
    4134:	d0a4      	beq.n	4080 <__aeabi_fsub+0x38>
    4136:	2080      	movs	r0, #128	; 0x80
    4138:	04c0      	lsls	r0, r0, #19
    413a:	4305      	orrs	r5, r0
    413c:	291b      	cmp	r1, #27
    413e:	dd00      	ble.n	4142 <__aeabi_fsub+0xfa>
    4140:	e0f2      	b.n	4328 <__aeabi_fsub+0x2e0>
    4142:	1c28      	adds	r0, r5, #0
    4144:	2720      	movs	r7, #32
    4146:	40c8      	lsrs	r0, r1
    4148:	1a79      	subs	r1, r7, r1
    414a:	408d      	lsls	r5, r1
    414c:	1e69      	subs	r1, r5, #1
    414e:	418d      	sbcs	r5, r1
    4150:	4305      	orrs	r5, r0
    4152:	195b      	adds	r3, r3, r5
    4154:	0159      	lsls	r1, r3, #5
    4156:	d400      	bmi.n	415a <__aeabi_fsub+0x112>
    4158:	e792      	b.n	4080 <__aeabi_fsub+0x38>
    415a:	3401      	adds	r4, #1
    415c:	2cff      	cmp	r4, #255	; 0xff
    415e:	d059      	beq.n	4214 <__aeabi_fsub+0x1cc>
    4160:	4973      	ldr	r1, [pc, #460]	; (4330 <__aeabi_fsub+0x2e8>)
    4162:	2201      	movs	r2, #1
    4164:	401a      	ands	r2, r3
    4166:	400b      	ands	r3, r1
    4168:	085b      	lsrs	r3, r3, #1
    416a:	4313      	orrs	r3, r2
    416c:	e788      	b.n	4080 <__aeabi_fsub+0x38>
    416e:	2d00      	cmp	r5, #0
    4170:	d000      	beq.n	4174 <__aeabi_fsub+0x12c>
    4172:	e77a      	b.n	406a <__aeabi_fsub+0x22>
    4174:	e777      	b.n	4066 <__aeabi_fsub+0x1e>
    4176:	3a01      	subs	r2, #1
    4178:	2a00      	cmp	r2, #0
    417a:	d0ad      	beq.n	40d8 <__aeabi_fsub+0x90>
    417c:	2cff      	cmp	r4, #255	; 0xff
    417e:	d1a0      	bne.n	40c2 <__aeabi_fsub+0x7a>
    4180:	e77e      	b.n	4080 <__aeabi_fsub+0x38>
    4182:	2d00      	cmp	r5, #0
    4184:	d100      	bne.n	4188 <__aeabi_fsub+0x140>
    4186:	e77b      	b.n	4080 <__aeabi_fsub+0x38>
    4188:	3901      	subs	r1, #1
    418a:	2900      	cmp	r1, #0
    418c:	d0e1      	beq.n	4152 <__aeabi_fsub+0x10a>
    418e:	2cff      	cmp	r4, #255	; 0xff
    4190:	d1d4      	bne.n	413c <__aeabi_fsub+0xf4>
    4192:	e775      	b.n	4080 <__aeabi_fsub+0x38>
    4194:	2a00      	cmp	r2, #0
    4196:	d11b      	bne.n	41d0 <__aeabi_fsub+0x188>
    4198:	1c62      	adds	r2, r4, #1
    419a:	b2d2      	uxtb	r2, r2
    419c:	2a01      	cmp	r2, #1
    419e:	dd4b      	ble.n	4238 <__aeabi_fsub+0x1f0>
    41a0:	1b5f      	subs	r7, r3, r5
    41a2:	017a      	lsls	r2, r7, #5
    41a4:	d523      	bpl.n	41ee <__aeabi_fsub+0x1a6>
    41a6:	1aef      	subs	r7, r5, r3
    41a8:	1c0e      	adds	r6, r1, #0
    41aa:	e79a      	b.n	40e2 <__aeabi_fsub+0x9a>
    41ac:	2300      	movs	r3, #0
    41ae:	e77b      	b.n	40a8 <__aeabi_fsub+0x60>
    41b0:	4b5f      	ldr	r3, [pc, #380]	; (4330 <__aeabi_fsub+0x2e8>)
    41b2:	1aa4      	subs	r4, r4, r2
    41b4:	403b      	ands	r3, r7
    41b6:	e763      	b.n	4080 <__aeabi_fsub+0x38>
    41b8:	2900      	cmp	r1, #0
    41ba:	d146      	bne.n	424a <__aeabi_fsub+0x202>
    41bc:	1c61      	adds	r1, r4, #1
    41be:	b2c8      	uxtb	r0, r1
    41c0:	2801      	cmp	r0, #1
    41c2:	dd29      	ble.n	4218 <__aeabi_fsub+0x1d0>
    41c4:	29ff      	cmp	r1, #255	; 0xff
    41c6:	d024      	beq.n	4212 <__aeabi_fsub+0x1ca>
    41c8:	18eb      	adds	r3, r5, r3
    41ca:	085b      	lsrs	r3, r3, #1
    41cc:	1c0c      	adds	r4, r1, #0
    41ce:	e757      	b.n	4080 <__aeabi_fsub+0x38>
    41d0:	2c00      	cmp	r4, #0
    41d2:	d013      	beq.n	41fc <__aeabi_fsub+0x1b4>
    41d4:	28ff      	cmp	r0, #255	; 0xff
    41d6:	d018      	beq.n	420a <__aeabi_fsub+0x1c2>
    41d8:	2480      	movs	r4, #128	; 0x80
    41da:	04e4      	lsls	r4, r4, #19
    41dc:	4252      	negs	r2, r2
    41de:	4323      	orrs	r3, r4
    41e0:	2a1b      	cmp	r2, #27
    41e2:	dd4d      	ble.n	4280 <__aeabi_fsub+0x238>
    41e4:	2301      	movs	r3, #1
    41e6:	1aeb      	subs	r3, r5, r3
    41e8:	1c04      	adds	r4, r0, #0
    41ea:	1c0e      	adds	r6, r1, #0
    41ec:	e775      	b.n	40da <__aeabi_fsub+0x92>
    41ee:	2f00      	cmp	r7, #0
    41f0:	d000      	beq.n	41f4 <__aeabi_fsub+0x1ac>
    41f2:	e776      	b.n	40e2 <__aeabi_fsub+0x9a>
    41f4:	2300      	movs	r3, #0
    41f6:	2200      	movs	r2, #0
    41f8:	2400      	movs	r4, #0
    41fa:	e78a      	b.n	4112 <__aeabi_fsub+0xca>
    41fc:	2b00      	cmp	r3, #0
    41fe:	d03b      	beq.n	4278 <__aeabi_fsub+0x230>
    4200:	43d2      	mvns	r2, r2
    4202:	2a00      	cmp	r2, #0
    4204:	d0ef      	beq.n	41e6 <__aeabi_fsub+0x19e>
    4206:	28ff      	cmp	r0, #255	; 0xff
    4208:	d1ea      	bne.n	41e0 <__aeabi_fsub+0x198>
    420a:	1c2b      	adds	r3, r5, #0
    420c:	24ff      	movs	r4, #255	; 0xff
    420e:	1c0e      	adds	r6, r1, #0
    4210:	e736      	b.n	4080 <__aeabi_fsub+0x38>
    4212:	24ff      	movs	r4, #255	; 0xff
    4214:	2300      	movs	r3, #0
    4216:	e77c      	b.n	4112 <__aeabi_fsub+0xca>
    4218:	2c00      	cmp	r4, #0
    421a:	d15c      	bne.n	42d6 <__aeabi_fsub+0x28e>
    421c:	2b00      	cmp	r3, #0
    421e:	d100      	bne.n	4222 <__aeabi_fsub+0x1da>
    4220:	e080      	b.n	4324 <__aeabi_fsub+0x2dc>
    4222:	2d00      	cmp	r5, #0
    4224:	d100      	bne.n	4228 <__aeabi_fsub+0x1e0>
    4226:	e72b      	b.n	4080 <__aeabi_fsub+0x38>
    4228:	195b      	adds	r3, r3, r5
    422a:	0158      	lsls	r0, r3, #5
    422c:	d400      	bmi.n	4230 <__aeabi_fsub+0x1e8>
    422e:	e727      	b.n	4080 <__aeabi_fsub+0x38>
    4230:	4a3f      	ldr	r2, [pc, #252]	; (4330 <__aeabi_fsub+0x2e8>)
    4232:	2401      	movs	r4, #1
    4234:	4013      	ands	r3, r2
    4236:	e723      	b.n	4080 <__aeabi_fsub+0x38>
    4238:	2c00      	cmp	r4, #0
    423a:	d115      	bne.n	4268 <__aeabi_fsub+0x220>
    423c:	2b00      	cmp	r3, #0
    423e:	d140      	bne.n	42c2 <__aeabi_fsub+0x27a>
    4240:	2d00      	cmp	r5, #0
    4242:	d063      	beq.n	430c <__aeabi_fsub+0x2c4>
    4244:	1c2b      	adds	r3, r5, #0
    4246:	1c0e      	adds	r6, r1, #0
    4248:	e71a      	b.n	4080 <__aeabi_fsub+0x38>
    424a:	2c00      	cmp	r4, #0
    424c:	d121      	bne.n	4292 <__aeabi_fsub+0x24a>
    424e:	2b00      	cmp	r3, #0
    4250:	d054      	beq.n	42fc <__aeabi_fsub+0x2b4>
    4252:	43c9      	mvns	r1, r1
    4254:	2900      	cmp	r1, #0
    4256:	d004      	beq.n	4262 <__aeabi_fsub+0x21a>
    4258:	28ff      	cmp	r0, #255	; 0xff
    425a:	d04c      	beq.n	42f6 <__aeabi_fsub+0x2ae>
    425c:	291b      	cmp	r1, #27
    425e:	dd58      	ble.n	4312 <__aeabi_fsub+0x2ca>
    4260:	2301      	movs	r3, #1
    4262:	195b      	adds	r3, r3, r5
    4264:	1c04      	adds	r4, r0, #0
    4266:	e775      	b.n	4154 <__aeabi_fsub+0x10c>
    4268:	2b00      	cmp	r3, #0
    426a:	d119      	bne.n	42a0 <__aeabi_fsub+0x258>
    426c:	2d00      	cmp	r5, #0
    426e:	d048      	beq.n	4302 <__aeabi_fsub+0x2ba>
    4270:	1c2b      	adds	r3, r5, #0
    4272:	1c0e      	adds	r6, r1, #0
    4274:	24ff      	movs	r4, #255	; 0xff
    4276:	e703      	b.n	4080 <__aeabi_fsub+0x38>
    4278:	1c2b      	adds	r3, r5, #0
    427a:	1c04      	adds	r4, r0, #0
    427c:	1c0e      	adds	r6, r1, #0
    427e:	e6ff      	b.n	4080 <__aeabi_fsub+0x38>
    4280:	1c1c      	adds	r4, r3, #0
    4282:	2620      	movs	r6, #32
    4284:	40d4      	lsrs	r4, r2
    4286:	1ab2      	subs	r2, r6, r2
    4288:	4093      	lsls	r3, r2
    428a:	1e5a      	subs	r2, r3, #1
    428c:	4193      	sbcs	r3, r2
    428e:	4323      	orrs	r3, r4
    4290:	e7a9      	b.n	41e6 <__aeabi_fsub+0x19e>
    4292:	28ff      	cmp	r0, #255	; 0xff
    4294:	d02f      	beq.n	42f6 <__aeabi_fsub+0x2ae>
    4296:	2480      	movs	r4, #128	; 0x80
    4298:	04e4      	lsls	r4, r4, #19
    429a:	4249      	negs	r1, r1
    429c:	4323      	orrs	r3, r4
    429e:	e7dd      	b.n	425c <__aeabi_fsub+0x214>
    42a0:	24ff      	movs	r4, #255	; 0xff
    42a2:	2d00      	cmp	r5, #0
    42a4:	d100      	bne.n	42a8 <__aeabi_fsub+0x260>
    42a6:	e6eb      	b.n	4080 <__aeabi_fsub+0x38>
    42a8:	2280      	movs	r2, #128	; 0x80
    42aa:	08db      	lsrs	r3, r3, #3
    42ac:	03d2      	lsls	r2, r2, #15
    42ae:	4213      	tst	r3, r2
    42b0:	d004      	beq.n	42bc <__aeabi_fsub+0x274>
    42b2:	08ed      	lsrs	r5, r5, #3
    42b4:	4215      	tst	r5, r2
    42b6:	d101      	bne.n	42bc <__aeabi_fsub+0x274>
    42b8:	1c2b      	adds	r3, r5, #0
    42ba:	1c0e      	adds	r6, r1, #0
    42bc:	00db      	lsls	r3, r3, #3
    42be:	24ff      	movs	r4, #255	; 0xff
    42c0:	e6de      	b.n	4080 <__aeabi_fsub+0x38>
    42c2:	2d00      	cmp	r5, #0
    42c4:	d100      	bne.n	42c8 <__aeabi_fsub+0x280>
    42c6:	e6db      	b.n	4080 <__aeabi_fsub+0x38>
    42c8:	1b5a      	subs	r2, r3, r5
    42ca:	0150      	lsls	r0, r2, #5
    42cc:	d400      	bmi.n	42d0 <__aeabi_fsub+0x288>
    42ce:	e71c      	b.n	410a <__aeabi_fsub+0xc2>
    42d0:	1aeb      	subs	r3, r5, r3
    42d2:	1c0e      	adds	r6, r1, #0
    42d4:	e6d4      	b.n	4080 <__aeabi_fsub+0x38>
    42d6:	2b00      	cmp	r3, #0
    42d8:	d00d      	beq.n	42f6 <__aeabi_fsub+0x2ae>
    42da:	24ff      	movs	r4, #255	; 0xff
    42dc:	2d00      	cmp	r5, #0
    42de:	d100      	bne.n	42e2 <__aeabi_fsub+0x29a>
    42e0:	e6ce      	b.n	4080 <__aeabi_fsub+0x38>
    42e2:	2280      	movs	r2, #128	; 0x80
    42e4:	08db      	lsrs	r3, r3, #3
    42e6:	03d2      	lsls	r2, r2, #15
    42e8:	4213      	tst	r3, r2
    42ea:	d0e7      	beq.n	42bc <__aeabi_fsub+0x274>
    42ec:	08ed      	lsrs	r5, r5, #3
    42ee:	4215      	tst	r5, r2
    42f0:	d1e4      	bne.n	42bc <__aeabi_fsub+0x274>
    42f2:	1c2b      	adds	r3, r5, #0
    42f4:	e7e2      	b.n	42bc <__aeabi_fsub+0x274>
    42f6:	1c2b      	adds	r3, r5, #0
    42f8:	24ff      	movs	r4, #255	; 0xff
    42fa:	e6c1      	b.n	4080 <__aeabi_fsub+0x38>
    42fc:	1c2b      	adds	r3, r5, #0
    42fe:	1c04      	adds	r4, r0, #0
    4300:	e6be      	b.n	4080 <__aeabi_fsub+0x38>
    4302:	2380      	movs	r3, #128	; 0x80
    4304:	2200      	movs	r2, #0
    4306:	049b      	lsls	r3, r3, #18
    4308:	24ff      	movs	r4, #255	; 0xff
    430a:	e702      	b.n	4112 <__aeabi_fsub+0xca>
    430c:	1c23      	adds	r3, r4, #0
    430e:	2200      	movs	r2, #0
    4310:	e6ff      	b.n	4112 <__aeabi_fsub+0xca>
    4312:	1c1c      	adds	r4, r3, #0
    4314:	2720      	movs	r7, #32
    4316:	40cc      	lsrs	r4, r1
    4318:	1a79      	subs	r1, r7, r1
    431a:	408b      	lsls	r3, r1
    431c:	1e59      	subs	r1, r3, #1
    431e:	418b      	sbcs	r3, r1
    4320:	4323      	orrs	r3, r4
    4322:	e79e      	b.n	4262 <__aeabi_fsub+0x21a>
    4324:	1c2b      	adds	r3, r5, #0
    4326:	e6ab      	b.n	4080 <__aeabi_fsub+0x38>
    4328:	2501      	movs	r5, #1
    432a:	e712      	b.n	4152 <__aeabi_fsub+0x10a>
    432c:	2501      	movs	r5, #1
    432e:	e6d3      	b.n	40d8 <__aeabi_fsub+0x90>
    4330:	fbffffff 	.word	0xfbffffff

00004334 <__aeabi_f2iz>:
    4334:	0243      	lsls	r3, r0, #9
    4336:	0a59      	lsrs	r1, r3, #9
    4338:	0043      	lsls	r3, r0, #1
    433a:	0fc2      	lsrs	r2, r0, #31
    433c:	0e1b      	lsrs	r3, r3, #24
    433e:	2000      	movs	r0, #0
    4340:	2b7e      	cmp	r3, #126	; 0x7e
    4342:	dd0d      	ble.n	4360 <__aeabi_f2iz+0x2c>
    4344:	2b9d      	cmp	r3, #157	; 0x9d
    4346:	dc0c      	bgt.n	4362 <__aeabi_f2iz+0x2e>
    4348:	2080      	movs	r0, #128	; 0x80
    434a:	0400      	lsls	r0, r0, #16
    434c:	4301      	orrs	r1, r0
    434e:	2b95      	cmp	r3, #149	; 0x95
    4350:	dc0a      	bgt.n	4368 <__aeabi_f2iz+0x34>
    4352:	2096      	movs	r0, #150	; 0x96
    4354:	1ac3      	subs	r3, r0, r3
    4356:	40d9      	lsrs	r1, r3
    4358:	4248      	negs	r0, r1
    435a:	2a00      	cmp	r2, #0
    435c:	d100      	bne.n	4360 <__aeabi_f2iz+0x2c>
    435e:	1c08      	adds	r0, r1, #0
    4360:	4770      	bx	lr
    4362:	4b03      	ldr	r3, [pc, #12]	; (4370 <__aeabi_f2iz+0x3c>)
    4364:	18d0      	adds	r0, r2, r3
    4366:	e7fb      	b.n	4360 <__aeabi_f2iz+0x2c>
    4368:	3b96      	subs	r3, #150	; 0x96
    436a:	4099      	lsls	r1, r3
    436c:	e7f4      	b.n	4358 <__aeabi_f2iz+0x24>
    436e:	46c0      	nop			; (mov r8, r8)
    4370:	7fffffff 	.word	0x7fffffff

00004374 <__aeabi_i2f>:
    4374:	b570      	push	{r4, r5, r6, lr}
    4376:	1e04      	subs	r4, r0, #0
    4378:	d03c      	beq.n	43f4 <__aeabi_i2f+0x80>
    437a:	0fc6      	lsrs	r6, r0, #31
    437c:	d000      	beq.n	4380 <__aeabi_i2f+0xc>
    437e:	4244      	negs	r4, r0
    4380:	1c20      	adds	r0, r4, #0
    4382:	f001 fed1 	bl	6128 <__clzsi2>
    4386:	239e      	movs	r3, #158	; 0x9e
    4388:	1c25      	adds	r5, r4, #0
    438a:	1a1b      	subs	r3, r3, r0
    438c:	2b96      	cmp	r3, #150	; 0x96
    438e:	dc0c      	bgt.n	43aa <__aeabi_i2f+0x36>
    4390:	3808      	subs	r0, #8
    4392:	4084      	lsls	r4, r0
    4394:	0264      	lsls	r4, r4, #9
    4396:	0a64      	lsrs	r4, r4, #9
    4398:	b2db      	uxtb	r3, r3
    439a:	1c32      	adds	r2, r6, #0
    439c:	0264      	lsls	r4, r4, #9
    439e:	05db      	lsls	r3, r3, #23
    43a0:	0a60      	lsrs	r0, r4, #9
    43a2:	07d2      	lsls	r2, r2, #31
    43a4:	4318      	orrs	r0, r3
    43a6:	4310      	orrs	r0, r2
    43a8:	bd70      	pop	{r4, r5, r6, pc}
    43aa:	2b99      	cmp	r3, #153	; 0x99
    43ac:	dd0a      	ble.n	43c4 <__aeabi_i2f+0x50>
    43ae:	2205      	movs	r2, #5
    43b0:	1a12      	subs	r2, r2, r0
    43b2:	1c21      	adds	r1, r4, #0
    43b4:	40d1      	lsrs	r1, r2
    43b6:	1c0a      	adds	r2, r1, #0
    43b8:	1c01      	adds	r1, r0, #0
    43ba:	311b      	adds	r1, #27
    43bc:	408d      	lsls	r5, r1
    43be:	1e69      	subs	r1, r5, #1
    43c0:	418d      	sbcs	r5, r1
    43c2:	4315      	orrs	r5, r2
    43c4:	2805      	cmp	r0, #5
    43c6:	dd01      	ble.n	43cc <__aeabi_i2f+0x58>
    43c8:	1f42      	subs	r2, r0, #5
    43ca:	4095      	lsls	r5, r2
    43cc:	4c16      	ldr	r4, [pc, #88]	; (4428 <__aeabi_i2f+0xb4>)
    43ce:	402c      	ands	r4, r5
    43d0:	076a      	lsls	r2, r5, #29
    43d2:	d004      	beq.n	43de <__aeabi_i2f+0x6a>
    43d4:	220f      	movs	r2, #15
    43d6:	4015      	ands	r5, r2
    43d8:	2d04      	cmp	r5, #4
    43da:	d000      	beq.n	43de <__aeabi_i2f+0x6a>
    43dc:	3404      	adds	r4, #4
    43de:	0161      	lsls	r1, r4, #5
    43e0:	d50c      	bpl.n	43fc <__aeabi_i2f+0x88>
    43e2:	239f      	movs	r3, #159	; 0x9f
    43e4:	1a18      	subs	r0, r3, r0
    43e6:	28ff      	cmp	r0, #255	; 0xff
    43e8:	d01a      	beq.n	4420 <__aeabi_i2f+0xac>
    43ea:	01a4      	lsls	r4, r4, #6
    43ec:	0a64      	lsrs	r4, r4, #9
    43ee:	b2c3      	uxtb	r3, r0
    43f0:	1c32      	adds	r2, r6, #0
    43f2:	e7d3      	b.n	439c <__aeabi_i2f+0x28>
    43f4:	2200      	movs	r2, #0
    43f6:	2300      	movs	r3, #0
    43f8:	2400      	movs	r4, #0
    43fa:	e7cf      	b.n	439c <__aeabi_i2f+0x28>
    43fc:	08e4      	lsrs	r4, r4, #3
    43fe:	2bff      	cmp	r3, #255	; 0xff
    4400:	d004      	beq.n	440c <__aeabi_i2f+0x98>
    4402:	0264      	lsls	r4, r4, #9
    4404:	0a64      	lsrs	r4, r4, #9
    4406:	b2db      	uxtb	r3, r3
    4408:	1c32      	adds	r2, r6, #0
    440a:	e7c7      	b.n	439c <__aeabi_i2f+0x28>
    440c:	2c00      	cmp	r4, #0
    440e:	d004      	beq.n	441a <__aeabi_i2f+0xa6>
    4410:	2080      	movs	r0, #128	; 0x80
    4412:	03c0      	lsls	r0, r0, #15
    4414:	4304      	orrs	r4, r0
    4416:	0264      	lsls	r4, r4, #9
    4418:	0a64      	lsrs	r4, r4, #9
    441a:	1c32      	adds	r2, r6, #0
    441c:	23ff      	movs	r3, #255	; 0xff
    441e:	e7bd      	b.n	439c <__aeabi_i2f+0x28>
    4420:	1c32      	adds	r2, r6, #0
    4422:	23ff      	movs	r3, #255	; 0xff
    4424:	2400      	movs	r4, #0
    4426:	e7b9      	b.n	439c <__aeabi_i2f+0x28>
    4428:	fbffffff 	.word	0xfbffffff

0000442c <__aeabi_ui2f>:
    442c:	b510      	push	{r4, lr}
    442e:	1e04      	subs	r4, r0, #0
    4430:	d033      	beq.n	449a <__aeabi_ui2f+0x6e>
    4432:	f001 fe79 	bl	6128 <__clzsi2>
    4436:	239e      	movs	r3, #158	; 0x9e
    4438:	1a1b      	subs	r3, r3, r0
    443a:	2b96      	cmp	r3, #150	; 0x96
    443c:	dc09      	bgt.n	4452 <__aeabi_ui2f+0x26>
    443e:	3808      	subs	r0, #8
    4440:	4084      	lsls	r4, r0
    4442:	0264      	lsls	r4, r4, #9
    4444:	0a64      	lsrs	r4, r4, #9
    4446:	b2db      	uxtb	r3, r3
    4448:	0264      	lsls	r4, r4, #9
    444a:	05db      	lsls	r3, r3, #23
    444c:	0a60      	lsrs	r0, r4, #9
    444e:	4318      	orrs	r0, r3
    4450:	bd10      	pop	{r4, pc}
    4452:	2b99      	cmp	r3, #153	; 0x99
    4454:	dd0a      	ble.n	446c <__aeabi_ui2f+0x40>
    4456:	2205      	movs	r2, #5
    4458:	1a12      	subs	r2, r2, r0
    445a:	1c21      	adds	r1, r4, #0
    445c:	40d1      	lsrs	r1, r2
    445e:	1c0a      	adds	r2, r1, #0
    4460:	1c01      	adds	r1, r0, #0
    4462:	311b      	adds	r1, #27
    4464:	408c      	lsls	r4, r1
    4466:	1e61      	subs	r1, r4, #1
    4468:	418c      	sbcs	r4, r1
    446a:	4314      	orrs	r4, r2
    446c:	2805      	cmp	r0, #5
    446e:	dd01      	ble.n	4474 <__aeabi_ui2f+0x48>
    4470:	1f42      	subs	r2, r0, #5
    4472:	4094      	lsls	r4, r2
    4474:	4a14      	ldr	r2, [pc, #80]	; (44c8 <__aeabi_ui2f+0x9c>)
    4476:	4022      	ands	r2, r4
    4478:	0761      	lsls	r1, r4, #29
    447a:	d004      	beq.n	4486 <__aeabi_ui2f+0x5a>
    447c:	210f      	movs	r1, #15
    447e:	400c      	ands	r4, r1
    4480:	2c04      	cmp	r4, #4
    4482:	d000      	beq.n	4486 <__aeabi_ui2f+0x5a>
    4484:	3204      	adds	r2, #4
    4486:	0151      	lsls	r1, r2, #5
    4488:	d50a      	bpl.n	44a0 <__aeabi_ui2f+0x74>
    448a:	239f      	movs	r3, #159	; 0x9f
    448c:	1a18      	subs	r0, r3, r0
    448e:	28ff      	cmp	r0, #255	; 0xff
    4490:	d016      	beq.n	44c0 <__aeabi_ui2f+0x94>
    4492:	0194      	lsls	r4, r2, #6
    4494:	0a64      	lsrs	r4, r4, #9
    4496:	b2c3      	uxtb	r3, r0
    4498:	e7d6      	b.n	4448 <__aeabi_ui2f+0x1c>
    449a:	2300      	movs	r3, #0
    449c:	2400      	movs	r4, #0
    449e:	e7d3      	b.n	4448 <__aeabi_ui2f+0x1c>
    44a0:	08d2      	lsrs	r2, r2, #3
    44a2:	2bff      	cmp	r3, #255	; 0xff
    44a4:	d003      	beq.n	44ae <__aeabi_ui2f+0x82>
    44a6:	0254      	lsls	r4, r2, #9
    44a8:	0a64      	lsrs	r4, r4, #9
    44aa:	b2db      	uxtb	r3, r3
    44ac:	e7cc      	b.n	4448 <__aeabi_ui2f+0x1c>
    44ae:	2a00      	cmp	r2, #0
    44b0:	d006      	beq.n	44c0 <__aeabi_ui2f+0x94>
    44b2:	2480      	movs	r4, #128	; 0x80
    44b4:	03e4      	lsls	r4, r4, #15
    44b6:	4314      	orrs	r4, r2
    44b8:	0264      	lsls	r4, r4, #9
    44ba:	0a64      	lsrs	r4, r4, #9
    44bc:	23ff      	movs	r3, #255	; 0xff
    44be:	e7c3      	b.n	4448 <__aeabi_ui2f+0x1c>
    44c0:	23ff      	movs	r3, #255	; 0xff
    44c2:	2400      	movs	r4, #0
    44c4:	e7c0      	b.n	4448 <__aeabi_ui2f+0x1c>
    44c6:	46c0      	nop			; (mov r8, r8)
    44c8:	fbffffff 	.word	0xfbffffff

000044cc <__aeabi_dadd>:
    44cc:	b5f8      	push	{r3, r4, r5, r6, r7, lr}
    44ce:	465f      	mov	r7, fp
    44d0:	4656      	mov	r6, sl
    44d2:	4644      	mov	r4, r8
    44d4:	464d      	mov	r5, r9
    44d6:	b4f0      	push	{r4, r5, r6, r7}
    44d8:	030c      	lsls	r4, r1, #12
    44da:	004d      	lsls	r5, r1, #1
    44dc:	0fce      	lsrs	r6, r1, #31
    44de:	0a61      	lsrs	r1, r4, #9
    44e0:	0f44      	lsrs	r4, r0, #29
    44e2:	4321      	orrs	r1, r4
    44e4:	00c4      	lsls	r4, r0, #3
    44e6:	0318      	lsls	r0, r3, #12
    44e8:	4680      	mov	r8, r0
    44ea:	0058      	lsls	r0, r3, #1
    44ec:	0d40      	lsrs	r0, r0, #21
    44ee:	4682      	mov	sl, r0
    44f0:	0fd8      	lsrs	r0, r3, #31
    44f2:	4684      	mov	ip, r0
    44f4:	4640      	mov	r0, r8
    44f6:	0a40      	lsrs	r0, r0, #9
    44f8:	0f53      	lsrs	r3, r2, #29
    44fa:	4303      	orrs	r3, r0
    44fc:	00d0      	lsls	r0, r2, #3
    44fe:	0d6d      	lsrs	r5, r5, #21
    4500:	1c37      	adds	r7, r6, #0
    4502:	4683      	mov	fp, r0
    4504:	4652      	mov	r2, sl
    4506:	4566      	cmp	r6, ip
    4508:	d100      	bne.n	450c <__aeabi_dadd+0x40>
    450a:	e0a4      	b.n	4656 <__aeabi_dadd+0x18a>
    450c:	1aaf      	subs	r7, r5, r2
    450e:	2f00      	cmp	r7, #0
    4510:	dc00      	bgt.n	4514 <__aeabi_dadd+0x48>
    4512:	e109      	b.n	4728 <__aeabi_dadd+0x25c>
    4514:	2a00      	cmp	r2, #0
    4516:	d13b      	bne.n	4590 <__aeabi_dadd+0xc4>
    4518:	4318      	orrs	r0, r3
    451a:	d000      	beq.n	451e <__aeabi_dadd+0x52>
    451c:	e0ea      	b.n	46f4 <__aeabi_dadd+0x228>
    451e:	0763      	lsls	r3, r4, #29
    4520:	d100      	bne.n	4524 <__aeabi_dadd+0x58>
    4522:	e087      	b.n	4634 <__aeabi_dadd+0x168>
    4524:	230f      	movs	r3, #15
    4526:	4023      	ands	r3, r4
    4528:	2b04      	cmp	r3, #4
    452a:	d100      	bne.n	452e <__aeabi_dadd+0x62>
    452c:	e082      	b.n	4634 <__aeabi_dadd+0x168>
    452e:	1d22      	adds	r2, r4, #4
    4530:	42a2      	cmp	r2, r4
    4532:	41a4      	sbcs	r4, r4
    4534:	4264      	negs	r4, r4
    4536:	2380      	movs	r3, #128	; 0x80
    4538:	1909      	adds	r1, r1, r4
    453a:	041b      	lsls	r3, r3, #16
    453c:	400b      	ands	r3, r1
    453e:	1c37      	adds	r7, r6, #0
    4540:	1c14      	adds	r4, r2, #0
    4542:	2b00      	cmp	r3, #0
    4544:	d100      	bne.n	4548 <__aeabi_dadd+0x7c>
    4546:	e07c      	b.n	4642 <__aeabi_dadd+0x176>
    4548:	4bce      	ldr	r3, [pc, #824]	; (4884 <__aeabi_dadd+0x3b8>)
    454a:	3501      	adds	r5, #1
    454c:	429d      	cmp	r5, r3
    454e:	d100      	bne.n	4552 <__aeabi_dadd+0x86>
    4550:	e105      	b.n	475e <__aeabi_dadd+0x292>
    4552:	4bcd      	ldr	r3, [pc, #820]	; (4888 <__aeabi_dadd+0x3bc>)
    4554:	08e4      	lsrs	r4, r4, #3
    4556:	4019      	ands	r1, r3
    4558:	0748      	lsls	r0, r1, #29
    455a:	0249      	lsls	r1, r1, #9
    455c:	4304      	orrs	r4, r0
    455e:	0b0b      	lsrs	r3, r1, #12
    4560:	2000      	movs	r0, #0
    4562:	2100      	movs	r1, #0
    4564:	031b      	lsls	r3, r3, #12
    4566:	0b1a      	lsrs	r2, r3, #12
    4568:	0d0b      	lsrs	r3, r1, #20
    456a:	056d      	lsls	r5, r5, #21
    456c:	051b      	lsls	r3, r3, #20
    456e:	4313      	orrs	r3, r2
    4570:	086a      	lsrs	r2, r5, #1
    4572:	4dc6      	ldr	r5, [pc, #792]	; (488c <__aeabi_dadd+0x3c0>)
    4574:	07ff      	lsls	r7, r7, #31
    4576:	401d      	ands	r5, r3
    4578:	4315      	orrs	r5, r2
    457a:	006d      	lsls	r5, r5, #1
    457c:	086d      	lsrs	r5, r5, #1
    457e:	1c29      	adds	r1, r5, #0
    4580:	4339      	orrs	r1, r7
    4582:	1c20      	adds	r0, r4, #0
    4584:	bc3c      	pop	{r2, r3, r4, r5}
    4586:	4690      	mov	r8, r2
    4588:	4699      	mov	r9, r3
    458a:	46a2      	mov	sl, r4
    458c:	46ab      	mov	fp, r5
    458e:	bdf8      	pop	{r3, r4, r5, r6, r7, pc}
    4590:	48bc      	ldr	r0, [pc, #752]	; (4884 <__aeabi_dadd+0x3b8>)
    4592:	4285      	cmp	r5, r0
    4594:	d0c3      	beq.n	451e <__aeabi_dadd+0x52>
    4596:	2080      	movs	r0, #128	; 0x80
    4598:	0400      	lsls	r0, r0, #16
    459a:	4303      	orrs	r3, r0
    459c:	2f38      	cmp	r7, #56	; 0x38
    459e:	dd00      	ble.n	45a2 <__aeabi_dadd+0xd6>
    45a0:	e0f0      	b.n	4784 <__aeabi_dadd+0x2b8>
    45a2:	2f1f      	cmp	r7, #31
    45a4:	dd00      	ble.n	45a8 <__aeabi_dadd+0xdc>
    45a6:	e124      	b.n	47f2 <__aeabi_dadd+0x326>
    45a8:	2020      	movs	r0, #32
    45aa:	1bc0      	subs	r0, r0, r7
    45ac:	1c1a      	adds	r2, r3, #0
    45ae:	4681      	mov	r9, r0
    45b0:	4082      	lsls	r2, r0
    45b2:	4658      	mov	r0, fp
    45b4:	40f8      	lsrs	r0, r7
    45b6:	4302      	orrs	r2, r0
    45b8:	4694      	mov	ip, r2
    45ba:	4658      	mov	r0, fp
    45bc:	464a      	mov	r2, r9
    45be:	4090      	lsls	r0, r2
    45c0:	1e42      	subs	r2, r0, #1
    45c2:	4190      	sbcs	r0, r2
    45c4:	40fb      	lsrs	r3, r7
    45c6:	4662      	mov	r2, ip
    45c8:	4302      	orrs	r2, r0
    45ca:	1c1f      	adds	r7, r3, #0
    45cc:	1aa2      	subs	r2, r4, r2
    45ce:	4294      	cmp	r4, r2
    45d0:	41a4      	sbcs	r4, r4
    45d2:	4264      	negs	r4, r4
    45d4:	1bc9      	subs	r1, r1, r7
    45d6:	1b09      	subs	r1, r1, r4
    45d8:	1c14      	adds	r4, r2, #0
    45da:	020b      	lsls	r3, r1, #8
    45dc:	d59f      	bpl.n	451e <__aeabi_dadd+0x52>
    45de:	0249      	lsls	r1, r1, #9
    45e0:	0a4f      	lsrs	r7, r1, #9
    45e2:	2f00      	cmp	r7, #0
    45e4:	d100      	bne.n	45e8 <__aeabi_dadd+0x11c>
    45e6:	e0c8      	b.n	477a <__aeabi_dadd+0x2ae>
    45e8:	1c38      	adds	r0, r7, #0
    45ea:	f001 fd9d 	bl	6128 <__clzsi2>
    45ee:	1c02      	adds	r2, r0, #0
    45f0:	3a08      	subs	r2, #8
    45f2:	2a1f      	cmp	r2, #31
    45f4:	dd00      	ble.n	45f8 <__aeabi_dadd+0x12c>
    45f6:	e0b5      	b.n	4764 <__aeabi_dadd+0x298>
    45f8:	2128      	movs	r1, #40	; 0x28
    45fa:	1a09      	subs	r1, r1, r0
    45fc:	1c20      	adds	r0, r4, #0
    45fe:	4097      	lsls	r7, r2
    4600:	40c8      	lsrs	r0, r1
    4602:	4307      	orrs	r7, r0
    4604:	4094      	lsls	r4, r2
    4606:	4295      	cmp	r5, r2
    4608:	dd00      	ble.n	460c <__aeabi_dadd+0x140>
    460a:	e0b2      	b.n	4772 <__aeabi_dadd+0x2a6>
    460c:	1b55      	subs	r5, r2, r5
    460e:	1c69      	adds	r1, r5, #1
    4610:	291f      	cmp	r1, #31
    4612:	dd00      	ble.n	4616 <__aeabi_dadd+0x14a>
    4614:	e0dc      	b.n	47d0 <__aeabi_dadd+0x304>
    4616:	221f      	movs	r2, #31
    4618:	1b55      	subs	r5, r2, r5
    461a:	1c3b      	adds	r3, r7, #0
    461c:	1c22      	adds	r2, r4, #0
    461e:	40ab      	lsls	r3, r5
    4620:	40ca      	lsrs	r2, r1
    4622:	40ac      	lsls	r4, r5
    4624:	1e65      	subs	r5, r4, #1
    4626:	41ac      	sbcs	r4, r5
    4628:	4313      	orrs	r3, r2
    462a:	40cf      	lsrs	r7, r1
    462c:	431c      	orrs	r4, r3
    462e:	1c39      	adds	r1, r7, #0
    4630:	2500      	movs	r5, #0
    4632:	e774      	b.n	451e <__aeabi_dadd+0x52>
    4634:	2380      	movs	r3, #128	; 0x80
    4636:	041b      	lsls	r3, r3, #16
    4638:	400b      	ands	r3, r1
    463a:	1c37      	adds	r7, r6, #0
    463c:	2b00      	cmp	r3, #0
    463e:	d000      	beq.n	4642 <__aeabi_dadd+0x176>
    4640:	e782      	b.n	4548 <__aeabi_dadd+0x7c>
    4642:	4b90      	ldr	r3, [pc, #576]	; (4884 <__aeabi_dadd+0x3b8>)
    4644:	0748      	lsls	r0, r1, #29
    4646:	08e4      	lsrs	r4, r4, #3
    4648:	4304      	orrs	r4, r0
    464a:	08c9      	lsrs	r1, r1, #3
    464c:	429d      	cmp	r5, r3
    464e:	d048      	beq.n	46e2 <__aeabi_dadd+0x216>
    4650:	0309      	lsls	r1, r1, #12
    4652:	0b0b      	lsrs	r3, r1, #12
    4654:	e784      	b.n	4560 <__aeabi_dadd+0x94>
    4656:	1aaa      	subs	r2, r5, r2
    4658:	4694      	mov	ip, r2
    465a:	2a00      	cmp	r2, #0
    465c:	dc00      	bgt.n	4660 <__aeabi_dadd+0x194>
    465e:	e098      	b.n	4792 <__aeabi_dadd+0x2c6>
    4660:	4650      	mov	r0, sl
    4662:	2800      	cmp	r0, #0
    4664:	d052      	beq.n	470c <__aeabi_dadd+0x240>
    4666:	4887      	ldr	r0, [pc, #540]	; (4884 <__aeabi_dadd+0x3b8>)
    4668:	4285      	cmp	r5, r0
    466a:	d100      	bne.n	466e <__aeabi_dadd+0x1a2>
    466c:	e757      	b.n	451e <__aeabi_dadd+0x52>
    466e:	2080      	movs	r0, #128	; 0x80
    4670:	0400      	lsls	r0, r0, #16
    4672:	4303      	orrs	r3, r0
    4674:	4662      	mov	r2, ip
    4676:	2a38      	cmp	r2, #56	; 0x38
    4678:	dd00      	ble.n	467c <__aeabi_dadd+0x1b0>
    467a:	e0fc      	b.n	4876 <__aeabi_dadd+0x3aa>
    467c:	2a1f      	cmp	r2, #31
    467e:	dd00      	ble.n	4682 <__aeabi_dadd+0x1b6>
    4680:	e14a      	b.n	4918 <__aeabi_dadd+0x44c>
    4682:	2220      	movs	r2, #32
    4684:	4660      	mov	r0, ip
    4686:	1a10      	subs	r0, r2, r0
    4688:	1c1a      	adds	r2, r3, #0
    468a:	4082      	lsls	r2, r0
    468c:	4682      	mov	sl, r0
    468e:	4691      	mov	r9, r2
    4690:	4658      	mov	r0, fp
    4692:	4662      	mov	r2, ip
    4694:	40d0      	lsrs	r0, r2
    4696:	464a      	mov	r2, r9
    4698:	4302      	orrs	r2, r0
    469a:	4690      	mov	r8, r2
    469c:	4658      	mov	r0, fp
    469e:	4652      	mov	r2, sl
    46a0:	4090      	lsls	r0, r2
    46a2:	1e42      	subs	r2, r0, #1
    46a4:	4190      	sbcs	r0, r2
    46a6:	4642      	mov	r2, r8
    46a8:	4302      	orrs	r2, r0
    46aa:	4660      	mov	r0, ip
    46ac:	40c3      	lsrs	r3, r0
    46ae:	1912      	adds	r2, r2, r4
    46b0:	42a2      	cmp	r2, r4
    46b2:	41a4      	sbcs	r4, r4
    46b4:	4264      	negs	r4, r4
    46b6:	1859      	adds	r1, r3, r1
    46b8:	1909      	adds	r1, r1, r4
    46ba:	1c14      	adds	r4, r2, #0
    46bc:	0208      	lsls	r0, r1, #8
    46be:	d400      	bmi.n	46c2 <__aeabi_dadd+0x1f6>
    46c0:	e72d      	b.n	451e <__aeabi_dadd+0x52>
    46c2:	4b70      	ldr	r3, [pc, #448]	; (4884 <__aeabi_dadd+0x3b8>)
    46c4:	3501      	adds	r5, #1
    46c6:	429d      	cmp	r5, r3
    46c8:	d100      	bne.n	46cc <__aeabi_dadd+0x200>
    46ca:	e122      	b.n	4912 <__aeabi_dadd+0x446>
    46cc:	4b6e      	ldr	r3, [pc, #440]	; (4888 <__aeabi_dadd+0x3bc>)
    46ce:	0860      	lsrs	r0, r4, #1
    46d0:	4019      	ands	r1, r3
    46d2:	2301      	movs	r3, #1
    46d4:	4023      	ands	r3, r4
    46d6:	1c1c      	adds	r4, r3, #0
    46d8:	4304      	orrs	r4, r0
    46da:	07cb      	lsls	r3, r1, #31
    46dc:	431c      	orrs	r4, r3
    46de:	0849      	lsrs	r1, r1, #1
    46e0:	e71d      	b.n	451e <__aeabi_dadd+0x52>
    46e2:	1c23      	adds	r3, r4, #0
    46e4:	430b      	orrs	r3, r1
    46e6:	d03a      	beq.n	475e <__aeabi_dadd+0x292>
    46e8:	2380      	movs	r3, #128	; 0x80
    46ea:	031b      	lsls	r3, r3, #12
    46ec:	430b      	orrs	r3, r1
    46ee:	031b      	lsls	r3, r3, #12
    46f0:	0b1b      	lsrs	r3, r3, #12
    46f2:	e735      	b.n	4560 <__aeabi_dadd+0x94>
    46f4:	3f01      	subs	r7, #1
    46f6:	2f00      	cmp	r7, #0
    46f8:	d165      	bne.n	47c6 <__aeabi_dadd+0x2fa>
    46fa:	4658      	mov	r0, fp
    46fc:	1a22      	subs	r2, r4, r0
    46fe:	4294      	cmp	r4, r2
    4700:	41a4      	sbcs	r4, r4
    4702:	4264      	negs	r4, r4
    4704:	1ac9      	subs	r1, r1, r3
    4706:	1b09      	subs	r1, r1, r4
    4708:	1c14      	adds	r4, r2, #0
    470a:	e766      	b.n	45da <__aeabi_dadd+0x10e>
    470c:	4658      	mov	r0, fp
    470e:	4318      	orrs	r0, r3
    4710:	d100      	bne.n	4714 <__aeabi_dadd+0x248>
    4712:	e704      	b.n	451e <__aeabi_dadd+0x52>
    4714:	2201      	movs	r2, #1
    4716:	4252      	negs	r2, r2
    4718:	4494      	add	ip, r2
    471a:	4660      	mov	r0, ip
    471c:	2800      	cmp	r0, #0
    471e:	d000      	beq.n	4722 <__aeabi_dadd+0x256>
    4720:	e0c5      	b.n	48ae <__aeabi_dadd+0x3e2>
    4722:	4658      	mov	r0, fp
    4724:	1902      	adds	r2, r0, r4
    4726:	e7c3      	b.n	46b0 <__aeabi_dadd+0x1e4>
    4728:	2f00      	cmp	r7, #0
    472a:	d173      	bne.n	4814 <__aeabi_dadd+0x348>
    472c:	1c68      	adds	r0, r5, #1
    472e:	0540      	lsls	r0, r0, #21
    4730:	0d40      	lsrs	r0, r0, #21
    4732:	2801      	cmp	r0, #1
    4734:	dc00      	bgt.n	4738 <__aeabi_dadd+0x26c>
    4736:	e0de      	b.n	48f6 <__aeabi_dadd+0x42a>
    4738:	465a      	mov	r2, fp
    473a:	1aa2      	subs	r2, r4, r2
    473c:	4294      	cmp	r4, r2
    473e:	41bf      	sbcs	r7, r7
    4740:	1ac8      	subs	r0, r1, r3
    4742:	427f      	negs	r7, r7
    4744:	1bc7      	subs	r7, r0, r7
    4746:	0238      	lsls	r0, r7, #8
    4748:	d400      	bmi.n	474c <__aeabi_dadd+0x280>
    474a:	e089      	b.n	4860 <__aeabi_dadd+0x394>
    474c:	465a      	mov	r2, fp
    474e:	1b14      	subs	r4, r2, r4
    4750:	45a3      	cmp	fp, r4
    4752:	4192      	sbcs	r2, r2
    4754:	1a59      	subs	r1, r3, r1
    4756:	4252      	negs	r2, r2
    4758:	1a8f      	subs	r7, r1, r2
    475a:	4666      	mov	r6, ip
    475c:	e741      	b.n	45e2 <__aeabi_dadd+0x116>
    475e:	2300      	movs	r3, #0
    4760:	2400      	movs	r4, #0
    4762:	e6fd      	b.n	4560 <__aeabi_dadd+0x94>
    4764:	1c27      	adds	r7, r4, #0
    4766:	3828      	subs	r0, #40	; 0x28
    4768:	4087      	lsls	r7, r0
    476a:	2400      	movs	r4, #0
    476c:	4295      	cmp	r5, r2
    476e:	dc00      	bgt.n	4772 <__aeabi_dadd+0x2a6>
    4770:	e74c      	b.n	460c <__aeabi_dadd+0x140>
    4772:	4945      	ldr	r1, [pc, #276]	; (4888 <__aeabi_dadd+0x3bc>)
    4774:	1aad      	subs	r5, r5, r2
    4776:	4039      	ands	r1, r7
    4778:	e6d1      	b.n	451e <__aeabi_dadd+0x52>
    477a:	1c20      	adds	r0, r4, #0
    477c:	f001 fcd4 	bl	6128 <__clzsi2>
    4780:	3020      	adds	r0, #32
    4782:	e734      	b.n	45ee <__aeabi_dadd+0x122>
    4784:	465a      	mov	r2, fp
    4786:	431a      	orrs	r2, r3
    4788:	1e53      	subs	r3, r2, #1
    478a:	419a      	sbcs	r2, r3
    478c:	b2d2      	uxtb	r2, r2
    478e:	2700      	movs	r7, #0
    4790:	e71c      	b.n	45cc <__aeabi_dadd+0x100>
    4792:	2a00      	cmp	r2, #0
    4794:	d000      	beq.n	4798 <__aeabi_dadd+0x2cc>
    4796:	e0dc      	b.n	4952 <__aeabi_dadd+0x486>
    4798:	1c68      	adds	r0, r5, #1
    479a:	0542      	lsls	r2, r0, #21
    479c:	0d52      	lsrs	r2, r2, #21
    479e:	2a01      	cmp	r2, #1
    47a0:	dc00      	bgt.n	47a4 <__aeabi_dadd+0x2d8>
    47a2:	e08d      	b.n	48c0 <__aeabi_dadd+0x3f4>
    47a4:	4d37      	ldr	r5, [pc, #220]	; (4884 <__aeabi_dadd+0x3b8>)
    47a6:	42a8      	cmp	r0, r5
    47a8:	d100      	bne.n	47ac <__aeabi_dadd+0x2e0>
    47aa:	e0f3      	b.n	4994 <__aeabi_dadd+0x4c8>
    47ac:	465d      	mov	r5, fp
    47ae:	192a      	adds	r2, r5, r4
    47b0:	42a2      	cmp	r2, r4
    47b2:	41a4      	sbcs	r4, r4
    47b4:	4264      	negs	r4, r4
    47b6:	1859      	adds	r1, r3, r1
    47b8:	1909      	adds	r1, r1, r4
    47ba:	07cc      	lsls	r4, r1, #31
    47bc:	0852      	lsrs	r2, r2, #1
    47be:	4314      	orrs	r4, r2
    47c0:	0849      	lsrs	r1, r1, #1
    47c2:	1c05      	adds	r5, r0, #0
    47c4:	e6ab      	b.n	451e <__aeabi_dadd+0x52>
    47c6:	482f      	ldr	r0, [pc, #188]	; (4884 <__aeabi_dadd+0x3b8>)
    47c8:	4285      	cmp	r5, r0
    47ca:	d000      	beq.n	47ce <__aeabi_dadd+0x302>
    47cc:	e6e6      	b.n	459c <__aeabi_dadd+0xd0>
    47ce:	e6a6      	b.n	451e <__aeabi_dadd+0x52>
    47d0:	1c2b      	adds	r3, r5, #0
    47d2:	3b1f      	subs	r3, #31
    47d4:	1c3a      	adds	r2, r7, #0
    47d6:	40da      	lsrs	r2, r3
    47d8:	1c13      	adds	r3, r2, #0
    47da:	2920      	cmp	r1, #32
    47dc:	d06c      	beq.n	48b8 <__aeabi_dadd+0x3ec>
    47de:	223f      	movs	r2, #63	; 0x3f
    47e0:	1b55      	subs	r5, r2, r5
    47e2:	40af      	lsls	r7, r5
    47e4:	433c      	orrs	r4, r7
    47e6:	1e60      	subs	r0, r4, #1
    47e8:	4184      	sbcs	r4, r0
    47ea:	431c      	orrs	r4, r3
    47ec:	2100      	movs	r1, #0
    47ee:	2500      	movs	r5, #0
    47f0:	e695      	b.n	451e <__aeabi_dadd+0x52>
    47f2:	1c38      	adds	r0, r7, #0
    47f4:	3820      	subs	r0, #32
    47f6:	1c1a      	adds	r2, r3, #0
    47f8:	40c2      	lsrs	r2, r0
    47fa:	1c10      	adds	r0, r2, #0
    47fc:	2f20      	cmp	r7, #32
    47fe:	d05d      	beq.n	48bc <__aeabi_dadd+0x3f0>
    4800:	2240      	movs	r2, #64	; 0x40
    4802:	1bd7      	subs	r7, r2, r7
    4804:	40bb      	lsls	r3, r7
    4806:	465a      	mov	r2, fp
    4808:	431a      	orrs	r2, r3
    480a:	1e53      	subs	r3, r2, #1
    480c:	419a      	sbcs	r2, r3
    480e:	4302      	orrs	r2, r0
    4810:	2700      	movs	r7, #0
    4812:	e6db      	b.n	45cc <__aeabi_dadd+0x100>
    4814:	2d00      	cmp	r5, #0
    4816:	d03b      	beq.n	4890 <__aeabi_dadd+0x3c4>
    4818:	4d1a      	ldr	r5, [pc, #104]	; (4884 <__aeabi_dadd+0x3b8>)
    481a:	45aa      	cmp	sl, r5
    481c:	d100      	bne.n	4820 <__aeabi_dadd+0x354>
    481e:	e093      	b.n	4948 <__aeabi_dadd+0x47c>
    4820:	2580      	movs	r5, #128	; 0x80
    4822:	042d      	lsls	r5, r5, #16
    4824:	427f      	negs	r7, r7
    4826:	4329      	orrs	r1, r5
    4828:	2f38      	cmp	r7, #56	; 0x38
    482a:	dd00      	ble.n	482e <__aeabi_dadd+0x362>
    482c:	e0ac      	b.n	4988 <__aeabi_dadd+0x4bc>
    482e:	2f1f      	cmp	r7, #31
    4830:	dd00      	ble.n	4834 <__aeabi_dadd+0x368>
    4832:	e129      	b.n	4a88 <__aeabi_dadd+0x5bc>
    4834:	2520      	movs	r5, #32
    4836:	1bed      	subs	r5, r5, r7
    4838:	1c08      	adds	r0, r1, #0
    483a:	1c26      	adds	r6, r4, #0
    483c:	40a8      	lsls	r0, r5
    483e:	40fe      	lsrs	r6, r7
    4840:	40ac      	lsls	r4, r5
    4842:	4306      	orrs	r6, r0
    4844:	1e65      	subs	r5, r4, #1
    4846:	41ac      	sbcs	r4, r5
    4848:	4334      	orrs	r4, r6
    484a:	40f9      	lsrs	r1, r7
    484c:	465d      	mov	r5, fp
    484e:	1b2c      	subs	r4, r5, r4
    4850:	45a3      	cmp	fp, r4
    4852:	4192      	sbcs	r2, r2
    4854:	1a5b      	subs	r3, r3, r1
    4856:	4252      	negs	r2, r2
    4858:	1a99      	subs	r1, r3, r2
    485a:	4655      	mov	r5, sl
    485c:	4666      	mov	r6, ip
    485e:	e6bc      	b.n	45da <__aeabi_dadd+0x10e>
    4860:	1c13      	adds	r3, r2, #0
    4862:	433b      	orrs	r3, r7
    4864:	1c14      	adds	r4, r2, #0
    4866:	2b00      	cmp	r3, #0
    4868:	d000      	beq.n	486c <__aeabi_dadd+0x3a0>
    486a:	e6ba      	b.n	45e2 <__aeabi_dadd+0x116>
    486c:	2700      	movs	r7, #0
    486e:	2100      	movs	r1, #0
    4870:	2500      	movs	r5, #0
    4872:	2400      	movs	r4, #0
    4874:	e6e5      	b.n	4642 <__aeabi_dadd+0x176>
    4876:	465a      	mov	r2, fp
    4878:	431a      	orrs	r2, r3
    487a:	1e53      	subs	r3, r2, #1
    487c:	419a      	sbcs	r2, r3
    487e:	b2d2      	uxtb	r2, r2
    4880:	2300      	movs	r3, #0
    4882:	e714      	b.n	46ae <__aeabi_dadd+0x1e2>
    4884:	000007ff 	.word	0x000007ff
    4888:	ff7fffff 	.word	0xff7fffff
    488c:	800fffff 	.word	0x800fffff
    4890:	1c0d      	adds	r5, r1, #0
    4892:	4325      	orrs	r5, r4
    4894:	d058      	beq.n	4948 <__aeabi_dadd+0x47c>
    4896:	43ff      	mvns	r7, r7
    4898:	2f00      	cmp	r7, #0
    489a:	d151      	bne.n	4940 <__aeabi_dadd+0x474>
    489c:	1b04      	subs	r4, r0, r4
    489e:	45a3      	cmp	fp, r4
    48a0:	4192      	sbcs	r2, r2
    48a2:	1a59      	subs	r1, r3, r1
    48a4:	4252      	negs	r2, r2
    48a6:	1a89      	subs	r1, r1, r2
    48a8:	4655      	mov	r5, sl
    48aa:	4666      	mov	r6, ip
    48ac:	e695      	b.n	45da <__aeabi_dadd+0x10e>
    48ae:	4896      	ldr	r0, [pc, #600]	; (4b08 <__aeabi_dadd+0x63c>)
    48b0:	4285      	cmp	r5, r0
    48b2:	d000      	beq.n	48b6 <__aeabi_dadd+0x3ea>
    48b4:	e6de      	b.n	4674 <__aeabi_dadd+0x1a8>
    48b6:	e632      	b.n	451e <__aeabi_dadd+0x52>
    48b8:	2700      	movs	r7, #0
    48ba:	e793      	b.n	47e4 <__aeabi_dadd+0x318>
    48bc:	2300      	movs	r3, #0
    48be:	e7a2      	b.n	4806 <__aeabi_dadd+0x33a>
    48c0:	1c08      	adds	r0, r1, #0
    48c2:	4320      	orrs	r0, r4
    48c4:	2d00      	cmp	r5, #0
    48c6:	d000      	beq.n	48ca <__aeabi_dadd+0x3fe>
    48c8:	e0c4      	b.n	4a54 <__aeabi_dadd+0x588>
    48ca:	2800      	cmp	r0, #0
    48cc:	d100      	bne.n	48d0 <__aeabi_dadd+0x404>
    48ce:	e0f7      	b.n	4ac0 <__aeabi_dadd+0x5f4>
    48d0:	4658      	mov	r0, fp
    48d2:	4318      	orrs	r0, r3
    48d4:	d100      	bne.n	48d8 <__aeabi_dadd+0x40c>
    48d6:	e622      	b.n	451e <__aeabi_dadd+0x52>
    48d8:	4658      	mov	r0, fp
    48da:	1902      	adds	r2, r0, r4
    48dc:	42a2      	cmp	r2, r4
    48de:	41a4      	sbcs	r4, r4
    48e0:	4264      	negs	r4, r4
    48e2:	1859      	adds	r1, r3, r1
    48e4:	1909      	adds	r1, r1, r4
    48e6:	1c14      	adds	r4, r2, #0
    48e8:	020a      	lsls	r2, r1, #8
    48ea:	d400      	bmi.n	48ee <__aeabi_dadd+0x422>
    48ec:	e617      	b.n	451e <__aeabi_dadd+0x52>
    48ee:	4b87      	ldr	r3, [pc, #540]	; (4b0c <__aeabi_dadd+0x640>)
    48f0:	2501      	movs	r5, #1
    48f2:	4019      	ands	r1, r3
    48f4:	e613      	b.n	451e <__aeabi_dadd+0x52>
    48f6:	1c08      	adds	r0, r1, #0
    48f8:	4320      	orrs	r0, r4
    48fa:	2d00      	cmp	r5, #0
    48fc:	d139      	bne.n	4972 <__aeabi_dadd+0x4a6>
    48fe:	2800      	cmp	r0, #0
    4900:	d171      	bne.n	49e6 <__aeabi_dadd+0x51a>
    4902:	4659      	mov	r1, fp
    4904:	4319      	orrs	r1, r3
    4906:	d003      	beq.n	4910 <__aeabi_dadd+0x444>
    4908:	1c19      	adds	r1, r3, #0
    490a:	465c      	mov	r4, fp
    490c:	4666      	mov	r6, ip
    490e:	e606      	b.n	451e <__aeabi_dadd+0x52>
    4910:	2700      	movs	r7, #0
    4912:	2100      	movs	r1, #0
    4914:	2400      	movs	r4, #0
    4916:	e694      	b.n	4642 <__aeabi_dadd+0x176>
    4918:	4660      	mov	r0, ip
    491a:	3820      	subs	r0, #32
    491c:	1c1a      	adds	r2, r3, #0
    491e:	40c2      	lsrs	r2, r0
    4920:	4660      	mov	r0, ip
    4922:	4691      	mov	r9, r2
    4924:	2820      	cmp	r0, #32
    4926:	d100      	bne.n	492a <__aeabi_dadd+0x45e>
    4928:	e0ac      	b.n	4a84 <__aeabi_dadd+0x5b8>
    492a:	2240      	movs	r2, #64	; 0x40
    492c:	1a12      	subs	r2, r2, r0
    492e:	4093      	lsls	r3, r2
    4930:	465a      	mov	r2, fp
    4932:	431a      	orrs	r2, r3
    4934:	1e53      	subs	r3, r2, #1
    4936:	419a      	sbcs	r2, r3
    4938:	464b      	mov	r3, r9
    493a:	431a      	orrs	r2, r3
    493c:	2300      	movs	r3, #0
    493e:	e6b6      	b.n	46ae <__aeabi_dadd+0x1e2>
    4940:	4d71      	ldr	r5, [pc, #452]	; (4b08 <__aeabi_dadd+0x63c>)
    4942:	45aa      	cmp	sl, r5
    4944:	d000      	beq.n	4948 <__aeabi_dadd+0x47c>
    4946:	e76f      	b.n	4828 <__aeabi_dadd+0x35c>
    4948:	1c19      	adds	r1, r3, #0
    494a:	465c      	mov	r4, fp
    494c:	4655      	mov	r5, sl
    494e:	4666      	mov	r6, ip
    4950:	e5e5      	b.n	451e <__aeabi_dadd+0x52>
    4952:	2d00      	cmp	r5, #0
    4954:	d122      	bne.n	499c <__aeabi_dadd+0x4d0>
    4956:	1c0d      	adds	r5, r1, #0
    4958:	4325      	orrs	r5, r4
    495a:	d077      	beq.n	4a4c <__aeabi_dadd+0x580>
    495c:	43d5      	mvns	r5, r2
    495e:	2d00      	cmp	r5, #0
    4960:	d171      	bne.n	4a46 <__aeabi_dadd+0x57a>
    4962:	445c      	add	r4, fp
    4964:	455c      	cmp	r4, fp
    4966:	4192      	sbcs	r2, r2
    4968:	1859      	adds	r1, r3, r1
    496a:	4252      	negs	r2, r2
    496c:	1889      	adds	r1, r1, r2
    496e:	4655      	mov	r5, sl
    4970:	e6a4      	b.n	46bc <__aeabi_dadd+0x1f0>
    4972:	2800      	cmp	r0, #0
    4974:	d14d      	bne.n	4a12 <__aeabi_dadd+0x546>
    4976:	4659      	mov	r1, fp
    4978:	4319      	orrs	r1, r3
    497a:	d100      	bne.n	497e <__aeabi_dadd+0x4b2>
    497c:	e094      	b.n	4aa8 <__aeabi_dadd+0x5dc>
    497e:	1c19      	adds	r1, r3, #0
    4980:	465c      	mov	r4, fp
    4982:	4666      	mov	r6, ip
    4984:	4d60      	ldr	r5, [pc, #384]	; (4b08 <__aeabi_dadd+0x63c>)
    4986:	e5ca      	b.n	451e <__aeabi_dadd+0x52>
    4988:	430c      	orrs	r4, r1
    498a:	1e61      	subs	r1, r4, #1
    498c:	418c      	sbcs	r4, r1
    498e:	b2e4      	uxtb	r4, r4
    4990:	2100      	movs	r1, #0
    4992:	e75b      	b.n	484c <__aeabi_dadd+0x380>
    4994:	1c05      	adds	r5, r0, #0
    4996:	2100      	movs	r1, #0
    4998:	2400      	movs	r4, #0
    499a:	e652      	b.n	4642 <__aeabi_dadd+0x176>
    499c:	4d5a      	ldr	r5, [pc, #360]	; (4b08 <__aeabi_dadd+0x63c>)
    499e:	45aa      	cmp	sl, r5
    49a0:	d054      	beq.n	4a4c <__aeabi_dadd+0x580>
    49a2:	4255      	negs	r5, r2
    49a4:	2280      	movs	r2, #128	; 0x80
    49a6:	0410      	lsls	r0, r2, #16
    49a8:	4301      	orrs	r1, r0
    49aa:	2d38      	cmp	r5, #56	; 0x38
    49ac:	dd00      	ble.n	49b0 <__aeabi_dadd+0x4e4>
    49ae:	e081      	b.n	4ab4 <__aeabi_dadd+0x5e8>
    49b0:	2d1f      	cmp	r5, #31
    49b2:	dd00      	ble.n	49b6 <__aeabi_dadd+0x4ea>
    49b4:	e092      	b.n	4adc <__aeabi_dadd+0x610>
    49b6:	2220      	movs	r2, #32
    49b8:	1b50      	subs	r0, r2, r5
    49ba:	1c0a      	adds	r2, r1, #0
    49bc:	4684      	mov	ip, r0
    49be:	4082      	lsls	r2, r0
    49c0:	1c20      	adds	r0, r4, #0
    49c2:	40e8      	lsrs	r0, r5
    49c4:	4302      	orrs	r2, r0
    49c6:	4690      	mov	r8, r2
    49c8:	4662      	mov	r2, ip
    49ca:	4094      	lsls	r4, r2
    49cc:	1e60      	subs	r0, r4, #1
    49ce:	4184      	sbcs	r4, r0
    49d0:	4642      	mov	r2, r8
    49d2:	4314      	orrs	r4, r2
    49d4:	40e9      	lsrs	r1, r5
    49d6:	445c      	add	r4, fp
    49d8:	455c      	cmp	r4, fp
    49da:	4192      	sbcs	r2, r2
    49dc:	18cb      	adds	r3, r1, r3
    49de:	4252      	negs	r2, r2
    49e0:	1899      	adds	r1, r3, r2
    49e2:	4655      	mov	r5, sl
    49e4:	e66a      	b.n	46bc <__aeabi_dadd+0x1f0>
    49e6:	4658      	mov	r0, fp
    49e8:	4318      	orrs	r0, r3
    49ea:	d100      	bne.n	49ee <__aeabi_dadd+0x522>
    49ec:	e597      	b.n	451e <__aeabi_dadd+0x52>
    49ee:	4658      	mov	r0, fp
    49f0:	1a27      	subs	r7, r4, r0
    49f2:	42bc      	cmp	r4, r7
    49f4:	4192      	sbcs	r2, r2
    49f6:	1ac8      	subs	r0, r1, r3
    49f8:	4252      	negs	r2, r2
    49fa:	1a80      	subs	r0, r0, r2
    49fc:	0202      	lsls	r2, r0, #8
    49fe:	d566      	bpl.n	4ace <__aeabi_dadd+0x602>
    4a00:	4658      	mov	r0, fp
    4a02:	1b04      	subs	r4, r0, r4
    4a04:	45a3      	cmp	fp, r4
    4a06:	4192      	sbcs	r2, r2
    4a08:	1a59      	subs	r1, r3, r1
    4a0a:	4252      	negs	r2, r2
    4a0c:	1a89      	subs	r1, r1, r2
    4a0e:	4666      	mov	r6, ip
    4a10:	e585      	b.n	451e <__aeabi_dadd+0x52>
    4a12:	4658      	mov	r0, fp
    4a14:	4318      	orrs	r0, r3
    4a16:	d033      	beq.n	4a80 <__aeabi_dadd+0x5b4>
    4a18:	0748      	lsls	r0, r1, #29
    4a1a:	08e4      	lsrs	r4, r4, #3
    4a1c:	4304      	orrs	r4, r0
    4a1e:	2080      	movs	r0, #128	; 0x80
    4a20:	08c9      	lsrs	r1, r1, #3
    4a22:	0300      	lsls	r0, r0, #12
    4a24:	4201      	tst	r1, r0
    4a26:	d008      	beq.n	4a3a <__aeabi_dadd+0x56e>
    4a28:	08dd      	lsrs	r5, r3, #3
    4a2a:	4205      	tst	r5, r0
    4a2c:	d105      	bne.n	4a3a <__aeabi_dadd+0x56e>
    4a2e:	4659      	mov	r1, fp
    4a30:	08ca      	lsrs	r2, r1, #3
    4a32:	075c      	lsls	r4, r3, #29
    4a34:	4314      	orrs	r4, r2
    4a36:	1c29      	adds	r1, r5, #0
    4a38:	4666      	mov	r6, ip
    4a3a:	0f63      	lsrs	r3, r4, #29
    4a3c:	00c9      	lsls	r1, r1, #3
    4a3e:	4319      	orrs	r1, r3
    4a40:	00e4      	lsls	r4, r4, #3
    4a42:	4d31      	ldr	r5, [pc, #196]	; (4b08 <__aeabi_dadd+0x63c>)
    4a44:	e56b      	b.n	451e <__aeabi_dadd+0x52>
    4a46:	4a30      	ldr	r2, [pc, #192]	; (4b08 <__aeabi_dadd+0x63c>)
    4a48:	4592      	cmp	sl, r2
    4a4a:	d1ae      	bne.n	49aa <__aeabi_dadd+0x4de>
    4a4c:	1c19      	adds	r1, r3, #0
    4a4e:	465c      	mov	r4, fp
    4a50:	4655      	mov	r5, sl
    4a52:	e564      	b.n	451e <__aeabi_dadd+0x52>
    4a54:	2800      	cmp	r0, #0
    4a56:	d036      	beq.n	4ac6 <__aeabi_dadd+0x5fa>
    4a58:	4658      	mov	r0, fp
    4a5a:	4318      	orrs	r0, r3
    4a5c:	d010      	beq.n	4a80 <__aeabi_dadd+0x5b4>
    4a5e:	2580      	movs	r5, #128	; 0x80
    4a60:	0748      	lsls	r0, r1, #29
    4a62:	08e4      	lsrs	r4, r4, #3
    4a64:	08c9      	lsrs	r1, r1, #3
    4a66:	032d      	lsls	r5, r5, #12
    4a68:	4304      	orrs	r4, r0
    4a6a:	4229      	tst	r1, r5
    4a6c:	d0e5      	beq.n	4a3a <__aeabi_dadd+0x56e>
    4a6e:	08d8      	lsrs	r0, r3, #3
    4a70:	4228      	tst	r0, r5
    4a72:	d1e2      	bne.n	4a3a <__aeabi_dadd+0x56e>
    4a74:	465d      	mov	r5, fp
    4a76:	08ea      	lsrs	r2, r5, #3
    4a78:	075c      	lsls	r4, r3, #29
    4a7a:	4314      	orrs	r4, r2
    4a7c:	1c01      	adds	r1, r0, #0
    4a7e:	e7dc      	b.n	4a3a <__aeabi_dadd+0x56e>
    4a80:	4d21      	ldr	r5, [pc, #132]	; (4b08 <__aeabi_dadd+0x63c>)
    4a82:	e54c      	b.n	451e <__aeabi_dadd+0x52>
    4a84:	2300      	movs	r3, #0
    4a86:	e753      	b.n	4930 <__aeabi_dadd+0x464>
    4a88:	1c3d      	adds	r5, r7, #0
    4a8a:	3d20      	subs	r5, #32
    4a8c:	1c0a      	adds	r2, r1, #0
    4a8e:	40ea      	lsrs	r2, r5
    4a90:	1c15      	adds	r5, r2, #0
    4a92:	2f20      	cmp	r7, #32
    4a94:	d034      	beq.n	4b00 <__aeabi_dadd+0x634>
    4a96:	2640      	movs	r6, #64	; 0x40
    4a98:	1bf7      	subs	r7, r6, r7
    4a9a:	40b9      	lsls	r1, r7
    4a9c:	430c      	orrs	r4, r1
    4a9e:	1e61      	subs	r1, r4, #1
    4aa0:	418c      	sbcs	r4, r1
    4aa2:	432c      	orrs	r4, r5
    4aa4:	2100      	movs	r1, #0
    4aa6:	e6d1      	b.n	484c <__aeabi_dadd+0x380>
    4aa8:	2180      	movs	r1, #128	; 0x80
    4aaa:	2700      	movs	r7, #0
    4aac:	03c9      	lsls	r1, r1, #15
    4aae:	4d16      	ldr	r5, [pc, #88]	; (4b08 <__aeabi_dadd+0x63c>)
    4ab0:	2400      	movs	r4, #0
    4ab2:	e5c6      	b.n	4642 <__aeabi_dadd+0x176>
    4ab4:	430c      	orrs	r4, r1
    4ab6:	1e61      	subs	r1, r4, #1
    4ab8:	418c      	sbcs	r4, r1
    4aba:	b2e4      	uxtb	r4, r4
    4abc:	2100      	movs	r1, #0
    4abe:	e78a      	b.n	49d6 <__aeabi_dadd+0x50a>
    4ac0:	1c19      	adds	r1, r3, #0
    4ac2:	465c      	mov	r4, fp
    4ac4:	e52b      	b.n	451e <__aeabi_dadd+0x52>
    4ac6:	1c19      	adds	r1, r3, #0
    4ac8:	465c      	mov	r4, fp
    4aca:	4d0f      	ldr	r5, [pc, #60]	; (4b08 <__aeabi_dadd+0x63c>)
    4acc:	e527      	b.n	451e <__aeabi_dadd+0x52>
    4ace:	1c03      	adds	r3, r0, #0
    4ad0:	433b      	orrs	r3, r7
    4ad2:	d100      	bne.n	4ad6 <__aeabi_dadd+0x60a>
    4ad4:	e71c      	b.n	4910 <__aeabi_dadd+0x444>
    4ad6:	1c01      	adds	r1, r0, #0
    4ad8:	1c3c      	adds	r4, r7, #0
    4ada:	e520      	b.n	451e <__aeabi_dadd+0x52>
    4adc:	2020      	movs	r0, #32
    4ade:	4240      	negs	r0, r0
    4ae0:	1940      	adds	r0, r0, r5
    4ae2:	1c0a      	adds	r2, r1, #0
    4ae4:	40c2      	lsrs	r2, r0
    4ae6:	4690      	mov	r8, r2
    4ae8:	2d20      	cmp	r5, #32
    4aea:	d00b      	beq.n	4b04 <__aeabi_dadd+0x638>
    4aec:	2040      	movs	r0, #64	; 0x40
    4aee:	1b45      	subs	r5, r0, r5
    4af0:	40a9      	lsls	r1, r5
    4af2:	430c      	orrs	r4, r1
    4af4:	1e61      	subs	r1, r4, #1
    4af6:	418c      	sbcs	r4, r1
    4af8:	4645      	mov	r5, r8
    4afa:	432c      	orrs	r4, r5
    4afc:	2100      	movs	r1, #0
    4afe:	e76a      	b.n	49d6 <__aeabi_dadd+0x50a>
    4b00:	2100      	movs	r1, #0
    4b02:	e7cb      	b.n	4a9c <__aeabi_dadd+0x5d0>
    4b04:	2100      	movs	r1, #0
    4b06:	e7f4      	b.n	4af2 <__aeabi_dadd+0x626>
    4b08:	000007ff 	.word	0x000007ff
    4b0c:	ff7fffff 	.word	0xff7fffff

00004b10 <__aeabi_ddiv>:
    4b10:	b5f0      	push	{r4, r5, r6, r7, lr}
    4b12:	4656      	mov	r6, sl
    4b14:	4644      	mov	r4, r8
    4b16:	465f      	mov	r7, fp
    4b18:	464d      	mov	r5, r9
    4b1a:	b4f0      	push	{r4, r5, r6, r7}
    4b1c:	1c1f      	adds	r7, r3, #0
    4b1e:	030b      	lsls	r3, r1, #12
    4b20:	0b1b      	lsrs	r3, r3, #12
    4b22:	4698      	mov	r8, r3
    4b24:	004b      	lsls	r3, r1, #1
    4b26:	b087      	sub	sp, #28
    4b28:	1c04      	adds	r4, r0, #0
    4b2a:	4681      	mov	r9, r0
    4b2c:	0d5b      	lsrs	r3, r3, #21
    4b2e:	0fc8      	lsrs	r0, r1, #31
    4b30:	1c16      	adds	r6, r2, #0
    4b32:	469a      	mov	sl, r3
    4b34:	9000      	str	r0, [sp, #0]
    4b36:	2b00      	cmp	r3, #0
    4b38:	d051      	beq.n	4bde <__aeabi_ddiv+0xce>
    4b3a:	4b6a      	ldr	r3, [pc, #424]	; (4ce4 <__aeabi_ddiv+0x1d4>)
    4b3c:	459a      	cmp	sl, r3
    4b3e:	d031      	beq.n	4ba4 <__aeabi_ddiv+0x94>
    4b40:	2280      	movs	r2, #128	; 0x80
    4b42:	4641      	mov	r1, r8
    4b44:	0352      	lsls	r2, r2, #13
    4b46:	430a      	orrs	r2, r1
    4b48:	0f63      	lsrs	r3, r4, #29
    4b4a:	00d2      	lsls	r2, r2, #3
    4b4c:	431a      	orrs	r2, r3
    4b4e:	4b66      	ldr	r3, [pc, #408]	; (4ce8 <__aeabi_ddiv+0x1d8>)
    4b50:	4690      	mov	r8, r2
    4b52:	2500      	movs	r5, #0
    4b54:	00e2      	lsls	r2, r4, #3
    4b56:	4691      	mov	r9, r2
    4b58:	449a      	add	sl, r3
    4b5a:	2400      	movs	r4, #0
    4b5c:	9502      	str	r5, [sp, #8]
    4b5e:	033b      	lsls	r3, r7, #12
    4b60:	0b1b      	lsrs	r3, r3, #12
    4b62:	469b      	mov	fp, r3
    4b64:	0ffd      	lsrs	r5, r7, #31
    4b66:	007b      	lsls	r3, r7, #1
    4b68:	1c31      	adds	r1, r6, #0
    4b6a:	0d5b      	lsrs	r3, r3, #21
    4b6c:	9501      	str	r5, [sp, #4]
    4b6e:	d060      	beq.n	4c32 <__aeabi_ddiv+0x122>
    4b70:	4a5c      	ldr	r2, [pc, #368]	; (4ce4 <__aeabi_ddiv+0x1d4>)
    4b72:	4293      	cmp	r3, r2
    4b74:	d054      	beq.n	4c20 <__aeabi_ddiv+0x110>
    4b76:	2180      	movs	r1, #128	; 0x80
    4b78:	4658      	mov	r0, fp
    4b7a:	0349      	lsls	r1, r1, #13
    4b7c:	4301      	orrs	r1, r0
    4b7e:	0f72      	lsrs	r2, r6, #29
    4b80:	00c9      	lsls	r1, r1, #3
    4b82:	4311      	orrs	r1, r2
    4b84:	4a58      	ldr	r2, [pc, #352]	; (4ce8 <__aeabi_ddiv+0x1d8>)
    4b86:	468b      	mov	fp, r1
    4b88:	189b      	adds	r3, r3, r2
    4b8a:	00f1      	lsls	r1, r6, #3
    4b8c:	2000      	movs	r0, #0
    4b8e:	9a00      	ldr	r2, [sp, #0]
    4b90:	4304      	orrs	r4, r0
    4b92:	406a      	eors	r2, r5
    4b94:	9203      	str	r2, [sp, #12]
    4b96:	2c0f      	cmp	r4, #15
    4b98:	d900      	bls.n	4b9c <__aeabi_ddiv+0x8c>
    4b9a:	e0ad      	b.n	4cf8 <__aeabi_ddiv+0x1e8>
    4b9c:	4e53      	ldr	r6, [pc, #332]	; (4cec <__aeabi_ddiv+0x1dc>)
    4b9e:	00a4      	lsls	r4, r4, #2
    4ba0:	5934      	ldr	r4, [r6, r4]
    4ba2:	46a7      	mov	pc, r4
    4ba4:	4640      	mov	r0, r8
    4ba6:	4304      	orrs	r4, r0
    4ba8:	d16e      	bne.n	4c88 <__aeabi_ddiv+0x178>
    4baa:	2100      	movs	r1, #0
    4bac:	2502      	movs	r5, #2
    4bae:	2408      	movs	r4, #8
    4bb0:	4688      	mov	r8, r1
    4bb2:	4689      	mov	r9, r1
    4bb4:	9502      	str	r5, [sp, #8]
    4bb6:	e7d2      	b.n	4b5e <__aeabi_ddiv+0x4e>
    4bb8:	9c00      	ldr	r4, [sp, #0]
    4bba:	9802      	ldr	r0, [sp, #8]
    4bbc:	46c3      	mov	fp, r8
    4bbe:	4649      	mov	r1, r9
    4bc0:	9401      	str	r4, [sp, #4]
    4bc2:	2802      	cmp	r0, #2
    4bc4:	d064      	beq.n	4c90 <__aeabi_ddiv+0x180>
    4bc6:	2803      	cmp	r0, #3
    4bc8:	d100      	bne.n	4bcc <__aeabi_ddiv+0xbc>
    4bca:	e2ab      	b.n	5124 <__aeabi_ddiv+0x614>
    4bcc:	2801      	cmp	r0, #1
    4bce:	d000      	beq.n	4bd2 <__aeabi_ddiv+0xc2>
    4bd0:	e238      	b.n	5044 <__aeabi_ddiv+0x534>
    4bd2:	9a01      	ldr	r2, [sp, #4]
    4bd4:	2400      	movs	r4, #0
    4bd6:	4002      	ands	r2, r0
    4bd8:	2500      	movs	r5, #0
    4bda:	46a1      	mov	r9, r4
    4bdc:	e060      	b.n	4ca0 <__aeabi_ddiv+0x190>
    4bde:	4643      	mov	r3, r8
    4be0:	4323      	orrs	r3, r4
    4be2:	d04a      	beq.n	4c7a <__aeabi_ddiv+0x16a>
    4be4:	4640      	mov	r0, r8
    4be6:	2800      	cmp	r0, #0
    4be8:	d100      	bne.n	4bec <__aeabi_ddiv+0xdc>
    4bea:	e1c0      	b.n	4f6e <__aeabi_ddiv+0x45e>
    4bec:	f001 fa9c 	bl	6128 <__clzsi2>
    4bf0:	1e03      	subs	r3, r0, #0
    4bf2:	2b27      	cmp	r3, #39	; 0x27
    4bf4:	dd00      	ble.n	4bf8 <__aeabi_ddiv+0xe8>
    4bf6:	e1b3      	b.n	4f60 <__aeabi_ddiv+0x450>
    4bf8:	2128      	movs	r1, #40	; 0x28
    4bfa:	1a0d      	subs	r5, r1, r0
    4bfc:	1c21      	adds	r1, r4, #0
    4bfe:	3b08      	subs	r3, #8
    4c00:	4642      	mov	r2, r8
    4c02:	40e9      	lsrs	r1, r5
    4c04:	409a      	lsls	r2, r3
    4c06:	1c0d      	adds	r5, r1, #0
    4c08:	4315      	orrs	r5, r2
    4c0a:	1c22      	adds	r2, r4, #0
    4c0c:	409a      	lsls	r2, r3
    4c0e:	46a8      	mov	r8, r5
    4c10:	4691      	mov	r9, r2
    4c12:	4b37      	ldr	r3, [pc, #220]	; (4cf0 <__aeabi_ddiv+0x1e0>)
    4c14:	2500      	movs	r5, #0
    4c16:	1a1b      	subs	r3, r3, r0
    4c18:	469a      	mov	sl, r3
    4c1a:	2400      	movs	r4, #0
    4c1c:	9502      	str	r5, [sp, #8]
    4c1e:	e79e      	b.n	4b5e <__aeabi_ddiv+0x4e>
    4c20:	465a      	mov	r2, fp
    4c22:	4316      	orrs	r6, r2
    4c24:	2003      	movs	r0, #3
    4c26:	2e00      	cmp	r6, #0
    4c28:	d1b1      	bne.n	4b8e <__aeabi_ddiv+0x7e>
    4c2a:	46b3      	mov	fp, r6
    4c2c:	2100      	movs	r1, #0
    4c2e:	2002      	movs	r0, #2
    4c30:	e7ad      	b.n	4b8e <__aeabi_ddiv+0x7e>
    4c32:	465a      	mov	r2, fp
    4c34:	4332      	orrs	r2, r6
    4c36:	d01b      	beq.n	4c70 <__aeabi_ddiv+0x160>
    4c38:	465b      	mov	r3, fp
    4c3a:	2b00      	cmp	r3, #0
    4c3c:	d100      	bne.n	4c40 <__aeabi_ddiv+0x130>
    4c3e:	e18a      	b.n	4f56 <__aeabi_ddiv+0x446>
    4c40:	4658      	mov	r0, fp
    4c42:	f001 fa71 	bl	6128 <__clzsi2>
    4c46:	2827      	cmp	r0, #39	; 0x27
    4c48:	dd00      	ble.n	4c4c <__aeabi_ddiv+0x13c>
    4c4a:	e17d      	b.n	4f48 <__aeabi_ddiv+0x438>
    4c4c:	2228      	movs	r2, #40	; 0x28
    4c4e:	1a17      	subs	r7, r2, r0
    4c50:	1c01      	adds	r1, r0, #0
    4c52:	1c32      	adds	r2, r6, #0
    4c54:	3908      	subs	r1, #8
    4c56:	465b      	mov	r3, fp
    4c58:	40fa      	lsrs	r2, r7
    4c5a:	408b      	lsls	r3, r1
    4c5c:	1c17      	adds	r7, r2, #0
    4c5e:	431f      	orrs	r7, r3
    4c60:	1c33      	adds	r3, r6, #0
    4c62:	408b      	lsls	r3, r1
    4c64:	46bb      	mov	fp, r7
    4c66:	1c19      	adds	r1, r3, #0
    4c68:	4b21      	ldr	r3, [pc, #132]	; (4cf0 <__aeabi_ddiv+0x1e0>)
    4c6a:	1a1b      	subs	r3, r3, r0
    4c6c:	2000      	movs	r0, #0
    4c6e:	e78e      	b.n	4b8e <__aeabi_ddiv+0x7e>
    4c70:	2700      	movs	r7, #0
    4c72:	46bb      	mov	fp, r7
    4c74:	2100      	movs	r1, #0
    4c76:	2001      	movs	r0, #1
    4c78:	e789      	b.n	4b8e <__aeabi_ddiv+0x7e>
    4c7a:	2000      	movs	r0, #0
    4c7c:	2501      	movs	r5, #1
    4c7e:	2404      	movs	r4, #4
    4c80:	4680      	mov	r8, r0
    4c82:	4681      	mov	r9, r0
    4c84:	9502      	str	r5, [sp, #8]
    4c86:	e76a      	b.n	4b5e <__aeabi_ddiv+0x4e>
    4c88:	2503      	movs	r5, #3
    4c8a:	240c      	movs	r4, #12
    4c8c:	9502      	str	r5, [sp, #8]
    4c8e:	e766      	b.n	4b5e <__aeabi_ddiv+0x4e>
    4c90:	9c01      	ldr	r4, [sp, #4]
    4c92:	9403      	str	r4, [sp, #12]
    4c94:	9d03      	ldr	r5, [sp, #12]
    4c96:	2201      	movs	r2, #1
    4c98:	402a      	ands	r2, r5
    4c9a:	2400      	movs	r4, #0
    4c9c:	4d11      	ldr	r5, [pc, #68]	; (4ce4 <__aeabi_ddiv+0x1d4>)
    4c9e:	46a1      	mov	r9, r4
    4ca0:	2000      	movs	r0, #0
    4ca2:	2100      	movs	r1, #0
    4ca4:	0324      	lsls	r4, r4, #12
    4ca6:	0b26      	lsrs	r6, r4, #12
    4ca8:	0d0c      	lsrs	r4, r1, #20
    4caa:	0524      	lsls	r4, r4, #20
    4cac:	4b11      	ldr	r3, [pc, #68]	; (4cf4 <__aeabi_ddiv+0x1e4>)
    4cae:	4334      	orrs	r4, r6
    4cb0:	052d      	lsls	r5, r5, #20
    4cb2:	4023      	ands	r3, r4
    4cb4:	432b      	orrs	r3, r5
    4cb6:	005b      	lsls	r3, r3, #1
    4cb8:	085b      	lsrs	r3, r3, #1
    4cba:	07d2      	lsls	r2, r2, #31
    4cbc:	1c19      	adds	r1, r3, #0
    4cbe:	4648      	mov	r0, r9
    4cc0:	4311      	orrs	r1, r2
    4cc2:	b007      	add	sp, #28
    4cc4:	bc3c      	pop	{r2, r3, r4, r5}
    4cc6:	4690      	mov	r8, r2
    4cc8:	4699      	mov	r9, r3
    4cca:	46a2      	mov	sl, r4
    4ccc:	46ab      	mov	fp, r5
    4cce:	bdf0      	pop	{r4, r5, r6, r7, pc}
    4cd0:	2200      	movs	r2, #0
    4cd2:	2480      	movs	r4, #128	; 0x80
    4cd4:	0324      	lsls	r4, r4, #12
    4cd6:	4691      	mov	r9, r2
    4cd8:	4d02      	ldr	r5, [pc, #8]	; (4ce4 <__aeabi_ddiv+0x1d4>)
    4cda:	e7e1      	b.n	4ca0 <__aeabi_ddiv+0x190>
    4cdc:	2400      	movs	r4, #0
    4cde:	2500      	movs	r5, #0
    4ce0:	46a1      	mov	r9, r4
    4ce2:	e7dd      	b.n	4ca0 <__aeabi_ddiv+0x190>
    4ce4:	000007ff 	.word	0x000007ff
    4ce8:	fffffc01 	.word	0xfffffc01
    4cec:	0000682c 	.word	0x0000682c
    4cf0:	fffffc0d 	.word	0xfffffc0d
    4cf4:	800fffff 	.word	0x800fffff
    4cf8:	4655      	mov	r5, sl
    4cfa:	1aed      	subs	r5, r5, r3
    4cfc:	9504      	str	r5, [sp, #16]
    4cfe:	45d8      	cmp	r8, fp
    4d00:	d900      	bls.n	4d04 <__aeabi_ddiv+0x1f4>
    4d02:	e153      	b.n	4fac <__aeabi_ddiv+0x49c>
    4d04:	d100      	bne.n	4d08 <__aeabi_ddiv+0x1f8>
    4d06:	e14e      	b.n	4fa6 <__aeabi_ddiv+0x496>
    4d08:	9c04      	ldr	r4, [sp, #16]
    4d0a:	2500      	movs	r5, #0
    4d0c:	3c01      	subs	r4, #1
    4d0e:	464e      	mov	r6, r9
    4d10:	9404      	str	r4, [sp, #16]
    4d12:	4647      	mov	r7, r8
    4d14:	46a9      	mov	r9, r5
    4d16:	4658      	mov	r0, fp
    4d18:	0203      	lsls	r3, r0, #8
    4d1a:	0e0c      	lsrs	r4, r1, #24
    4d1c:	431c      	orrs	r4, r3
    4d1e:	0209      	lsls	r1, r1, #8
    4d20:	0c25      	lsrs	r5, r4, #16
    4d22:	0423      	lsls	r3, r4, #16
    4d24:	0c1b      	lsrs	r3, r3, #16
    4d26:	9100      	str	r1, [sp, #0]
    4d28:	1c38      	adds	r0, r7, #0
    4d2a:	1c29      	adds	r1, r5, #0
    4d2c:	9301      	str	r3, [sp, #4]
    4d2e:	f7fe fc31 	bl	3594 <__aeabi_uidiv>
    4d32:	9901      	ldr	r1, [sp, #4]
    4d34:	4683      	mov	fp, r0
    4d36:	4341      	muls	r1, r0
    4d38:	1c38      	adds	r0, r7, #0
    4d3a:	468a      	mov	sl, r1
    4d3c:	1c29      	adds	r1, r5, #0
    4d3e:	f7fe fc6d 	bl	361c <__aeabi_uidivmod>
    4d42:	0c33      	lsrs	r3, r6, #16
    4d44:	0409      	lsls	r1, r1, #16
    4d46:	4319      	orrs	r1, r3
    4d48:	458a      	cmp	sl, r1
    4d4a:	d90c      	bls.n	4d66 <__aeabi_ddiv+0x256>
    4d4c:	465b      	mov	r3, fp
    4d4e:	1909      	adds	r1, r1, r4
    4d50:	3b01      	subs	r3, #1
    4d52:	428c      	cmp	r4, r1
    4d54:	d900      	bls.n	4d58 <__aeabi_ddiv+0x248>
    4d56:	e147      	b.n	4fe8 <__aeabi_ddiv+0x4d8>
    4d58:	458a      	cmp	sl, r1
    4d5a:	d800      	bhi.n	4d5e <__aeabi_ddiv+0x24e>
    4d5c:	e144      	b.n	4fe8 <__aeabi_ddiv+0x4d8>
    4d5e:	2202      	movs	r2, #2
    4d60:	4252      	negs	r2, r2
    4d62:	4493      	add	fp, r2
    4d64:	1909      	adds	r1, r1, r4
    4d66:	4653      	mov	r3, sl
    4d68:	1acb      	subs	r3, r1, r3
    4d6a:	1c18      	adds	r0, r3, #0
    4d6c:	1c29      	adds	r1, r5, #0
    4d6e:	4698      	mov	r8, r3
    4d70:	f7fe fc10 	bl	3594 <__aeabi_uidiv>
    4d74:	1c07      	adds	r7, r0, #0
    4d76:	9801      	ldr	r0, [sp, #4]
    4d78:	1c29      	adds	r1, r5, #0
    4d7a:	4378      	muls	r0, r7
    4d7c:	4682      	mov	sl, r0
    4d7e:	4640      	mov	r0, r8
    4d80:	f7fe fc4c 	bl	361c <__aeabi_uidivmod>
    4d84:	0436      	lsls	r6, r6, #16
    4d86:	040b      	lsls	r3, r1, #16
    4d88:	0c36      	lsrs	r6, r6, #16
    4d8a:	4333      	orrs	r3, r6
    4d8c:	459a      	cmp	sl, r3
    4d8e:	d909      	bls.n	4da4 <__aeabi_ddiv+0x294>
    4d90:	191b      	adds	r3, r3, r4
    4d92:	1e7a      	subs	r2, r7, #1
    4d94:	429c      	cmp	r4, r3
    4d96:	d900      	bls.n	4d9a <__aeabi_ddiv+0x28a>
    4d98:	e124      	b.n	4fe4 <__aeabi_ddiv+0x4d4>
    4d9a:	459a      	cmp	sl, r3
    4d9c:	d800      	bhi.n	4da0 <__aeabi_ddiv+0x290>
    4d9e:	e121      	b.n	4fe4 <__aeabi_ddiv+0x4d4>
    4da0:	3f02      	subs	r7, #2
    4da2:	191b      	adds	r3, r3, r4
    4da4:	465e      	mov	r6, fp
    4da6:	0432      	lsls	r2, r6, #16
    4da8:	4317      	orrs	r7, r2
    4daa:	0c38      	lsrs	r0, r7, #16
    4dac:	46bb      	mov	fp, r7
    4dae:	9e00      	ldr	r6, [sp, #0]
    4db0:	9f00      	ldr	r7, [sp, #0]
    4db2:	4651      	mov	r1, sl
    4db4:	0c3f      	lsrs	r7, r7, #16
    4db6:	0432      	lsls	r2, r6, #16
    4db8:	1a5b      	subs	r3, r3, r1
    4dba:	4659      	mov	r1, fp
    4dbc:	46ba      	mov	sl, r7
    4dbe:	0c12      	lsrs	r2, r2, #16
    4dc0:	040f      	lsls	r7, r1, #16
    4dc2:	0c3f      	lsrs	r7, r7, #16
    4dc4:	4690      	mov	r8, r2
    4dc6:	4651      	mov	r1, sl
    4dc8:	437a      	muls	r2, r7
    4dca:	434f      	muls	r7, r1
    4dcc:	4641      	mov	r1, r8
    4dce:	4341      	muls	r1, r0
    4dd0:	4656      	mov	r6, sl
    4dd2:	4370      	muls	r0, r6
    4dd4:	19cf      	adds	r7, r1, r7
    4dd6:	0c16      	lsrs	r6, r2, #16
    4dd8:	19be      	adds	r6, r7, r6
    4dda:	42b1      	cmp	r1, r6
    4ddc:	d902      	bls.n	4de4 <__aeabi_ddiv+0x2d4>
    4dde:	2780      	movs	r7, #128	; 0x80
    4de0:	027f      	lsls	r7, r7, #9
    4de2:	19c0      	adds	r0, r0, r7
    4de4:	0c31      	lsrs	r1, r6, #16
    4de6:	0412      	lsls	r2, r2, #16
    4de8:	0436      	lsls	r6, r6, #16
    4dea:	0c12      	lsrs	r2, r2, #16
    4dec:	1840      	adds	r0, r0, r1
    4dee:	18b6      	adds	r6, r6, r2
    4df0:	4283      	cmp	r3, r0
    4df2:	d200      	bcs.n	4df6 <__aeabi_ddiv+0x2e6>
    4df4:	e0c4      	b.n	4f80 <__aeabi_ddiv+0x470>
    4df6:	d100      	bne.n	4dfa <__aeabi_ddiv+0x2ea>
    4df8:	e0be      	b.n	4f78 <__aeabi_ddiv+0x468>
    4dfa:	1a19      	subs	r1, r3, r0
    4dfc:	4648      	mov	r0, r9
    4dfe:	1b86      	subs	r6, r0, r6
    4e00:	45b1      	cmp	r9, r6
    4e02:	41bf      	sbcs	r7, r7
    4e04:	427f      	negs	r7, r7
    4e06:	1bcf      	subs	r7, r1, r7
    4e08:	42a7      	cmp	r7, r4
    4e0a:	d100      	bne.n	4e0e <__aeabi_ddiv+0x2fe>
    4e0c:	e113      	b.n	5036 <__aeabi_ddiv+0x526>
    4e0e:	1c29      	adds	r1, r5, #0
    4e10:	1c38      	adds	r0, r7, #0
    4e12:	f7fe fbbf 	bl	3594 <__aeabi_uidiv>
    4e16:	9901      	ldr	r1, [sp, #4]
    4e18:	9002      	str	r0, [sp, #8]
    4e1a:	4341      	muls	r1, r0
    4e1c:	1c38      	adds	r0, r7, #0
    4e1e:	4689      	mov	r9, r1
    4e20:	1c29      	adds	r1, r5, #0
    4e22:	f7fe fbfb 	bl	361c <__aeabi_uidivmod>
    4e26:	0c33      	lsrs	r3, r6, #16
    4e28:	0409      	lsls	r1, r1, #16
    4e2a:	4319      	orrs	r1, r3
    4e2c:	4589      	cmp	r9, r1
    4e2e:	d90c      	bls.n	4e4a <__aeabi_ddiv+0x33a>
    4e30:	9b02      	ldr	r3, [sp, #8]
    4e32:	1909      	adds	r1, r1, r4
    4e34:	3b01      	subs	r3, #1
    4e36:	428c      	cmp	r4, r1
    4e38:	d900      	bls.n	4e3c <__aeabi_ddiv+0x32c>
    4e3a:	e0ff      	b.n	503c <__aeabi_ddiv+0x52c>
    4e3c:	4589      	cmp	r9, r1
    4e3e:	d800      	bhi.n	4e42 <__aeabi_ddiv+0x332>
    4e40:	e0fc      	b.n	503c <__aeabi_ddiv+0x52c>
    4e42:	9f02      	ldr	r7, [sp, #8]
    4e44:	1909      	adds	r1, r1, r4
    4e46:	3f02      	subs	r7, #2
    4e48:	9702      	str	r7, [sp, #8]
    4e4a:	464f      	mov	r7, r9
    4e4c:	1bcf      	subs	r7, r1, r7
    4e4e:	1c38      	adds	r0, r7, #0
    4e50:	1c29      	adds	r1, r5, #0
    4e52:	9705      	str	r7, [sp, #20]
    4e54:	f7fe fb9e 	bl	3594 <__aeabi_uidiv>
    4e58:	1c07      	adds	r7, r0, #0
    4e5a:	9801      	ldr	r0, [sp, #4]
    4e5c:	1c29      	adds	r1, r5, #0
    4e5e:	4378      	muls	r0, r7
    4e60:	4681      	mov	r9, r0
    4e62:	9805      	ldr	r0, [sp, #20]
    4e64:	f7fe fbda 	bl	361c <__aeabi_uidivmod>
    4e68:	0436      	lsls	r6, r6, #16
    4e6a:	0409      	lsls	r1, r1, #16
    4e6c:	0c36      	lsrs	r6, r6, #16
    4e6e:	430e      	orrs	r6, r1
    4e70:	45b1      	cmp	r9, r6
    4e72:	d909      	bls.n	4e88 <__aeabi_ddiv+0x378>
    4e74:	1936      	adds	r6, r6, r4
    4e76:	1e7b      	subs	r3, r7, #1
    4e78:	42b4      	cmp	r4, r6
    4e7a:	d900      	bls.n	4e7e <__aeabi_ddiv+0x36e>
    4e7c:	e0e0      	b.n	5040 <__aeabi_ddiv+0x530>
    4e7e:	45b1      	cmp	r9, r6
    4e80:	d800      	bhi.n	4e84 <__aeabi_ddiv+0x374>
    4e82:	e0dd      	b.n	5040 <__aeabi_ddiv+0x530>
    4e84:	3f02      	subs	r7, #2
    4e86:	1936      	adds	r6, r6, r4
    4e88:	9d02      	ldr	r5, [sp, #8]
    4e8a:	4649      	mov	r1, r9
    4e8c:	1a76      	subs	r6, r6, r1
    4e8e:	0429      	lsls	r1, r5, #16
    4e90:	4339      	orrs	r1, r7
    4e92:	040b      	lsls	r3, r1, #16
    4e94:	4657      	mov	r7, sl
    4e96:	0c0a      	lsrs	r2, r1, #16
    4e98:	0c1b      	lsrs	r3, r3, #16
    4e9a:	4640      	mov	r0, r8
    4e9c:	4645      	mov	r5, r8
    4e9e:	4358      	muls	r0, r3
    4ea0:	4355      	muls	r5, r2
    4ea2:	437b      	muls	r3, r7
    4ea4:	437a      	muls	r2, r7
    4ea6:	18eb      	adds	r3, r5, r3
    4ea8:	0c07      	lsrs	r7, r0, #16
    4eaa:	19db      	adds	r3, r3, r7
    4eac:	429d      	cmp	r5, r3
    4eae:	d902      	bls.n	4eb6 <__aeabi_ddiv+0x3a6>
    4eb0:	2580      	movs	r5, #128	; 0x80
    4eb2:	026d      	lsls	r5, r5, #9
    4eb4:	1952      	adds	r2, r2, r5
    4eb6:	0c1d      	lsrs	r5, r3, #16
    4eb8:	0400      	lsls	r0, r0, #16
    4eba:	041b      	lsls	r3, r3, #16
    4ebc:	0c00      	lsrs	r0, r0, #16
    4ebe:	1952      	adds	r2, r2, r5
    4ec0:	181b      	adds	r3, r3, r0
    4ec2:	4296      	cmp	r6, r2
    4ec4:	d335      	bcc.n	4f32 <__aeabi_ddiv+0x422>
    4ec6:	d100      	bne.n	4eca <__aeabi_ddiv+0x3ba>
    4ec8:	e0fc      	b.n	50c4 <__aeabi_ddiv+0x5b4>
    4eca:	2301      	movs	r3, #1
    4ecc:	4319      	orrs	r1, r3
    4ece:	9e04      	ldr	r6, [sp, #16]
    4ed0:	4f99      	ldr	r7, [pc, #612]	; (5138 <__aeabi_ddiv+0x628>)
    4ed2:	19f5      	adds	r5, r6, r7
    4ed4:	2d00      	cmp	r5, #0
    4ed6:	dc00      	bgt.n	4eda <__aeabi_ddiv+0x3ca>
    4ed8:	e0a1      	b.n	501e <__aeabi_ddiv+0x50e>
    4eda:	0748      	lsls	r0, r1, #29
    4edc:	d009      	beq.n	4ef2 <__aeabi_ddiv+0x3e2>
    4ede:	230f      	movs	r3, #15
    4ee0:	400b      	ands	r3, r1
    4ee2:	2b04      	cmp	r3, #4
    4ee4:	d005      	beq.n	4ef2 <__aeabi_ddiv+0x3e2>
    4ee6:	1d0b      	adds	r3, r1, #4
    4ee8:	428b      	cmp	r3, r1
    4eea:	4189      	sbcs	r1, r1
    4eec:	4249      	negs	r1, r1
    4eee:	448b      	add	fp, r1
    4ef0:	1c19      	adds	r1, r3, #0
    4ef2:	465a      	mov	r2, fp
    4ef4:	01d2      	lsls	r2, r2, #7
    4ef6:	d507      	bpl.n	4f08 <__aeabi_ddiv+0x3f8>
    4ef8:	4b90      	ldr	r3, [pc, #576]	; (513c <__aeabi_ddiv+0x62c>)
    4efa:	465c      	mov	r4, fp
    4efc:	9e04      	ldr	r6, [sp, #16]
    4efe:	2780      	movs	r7, #128	; 0x80
    4f00:	401c      	ands	r4, r3
    4f02:	00ff      	lsls	r7, r7, #3
    4f04:	46a3      	mov	fp, r4
    4f06:	19f5      	adds	r5, r6, r7
    4f08:	4b8d      	ldr	r3, [pc, #564]	; (5140 <__aeabi_ddiv+0x630>)
    4f0a:	429d      	cmp	r5, r3
    4f0c:	dd7a      	ble.n	5004 <__aeabi_ddiv+0x4f4>
    4f0e:	9c03      	ldr	r4, [sp, #12]
    4f10:	2201      	movs	r2, #1
    4f12:	4022      	ands	r2, r4
    4f14:	2400      	movs	r4, #0
    4f16:	4d8b      	ldr	r5, [pc, #556]	; (5144 <__aeabi_ddiv+0x634>)
    4f18:	46a1      	mov	r9, r4
    4f1a:	e6c1      	b.n	4ca0 <__aeabi_ddiv+0x190>
    4f1c:	2480      	movs	r4, #128	; 0x80
    4f1e:	0324      	lsls	r4, r4, #12
    4f20:	4647      	mov	r7, r8
    4f22:	4227      	tst	r7, r4
    4f24:	d14c      	bne.n	4fc0 <__aeabi_ddiv+0x4b0>
    4f26:	433c      	orrs	r4, r7
    4f28:	0324      	lsls	r4, r4, #12
    4f2a:	0b24      	lsrs	r4, r4, #12
    4f2c:	9a00      	ldr	r2, [sp, #0]
    4f2e:	4d85      	ldr	r5, [pc, #532]	; (5144 <__aeabi_ddiv+0x634>)
    4f30:	e6b6      	b.n	4ca0 <__aeabi_ddiv+0x190>
    4f32:	1936      	adds	r6, r6, r4
    4f34:	1e48      	subs	r0, r1, #1
    4f36:	42b4      	cmp	r4, r6
    4f38:	d95e      	bls.n	4ff8 <__aeabi_ddiv+0x4e8>
    4f3a:	1c01      	adds	r1, r0, #0
    4f3c:	4296      	cmp	r6, r2
    4f3e:	d1c4      	bne.n	4eca <__aeabi_ddiv+0x3ba>
    4f40:	9e00      	ldr	r6, [sp, #0]
    4f42:	429e      	cmp	r6, r3
    4f44:	d1c1      	bne.n	4eca <__aeabi_ddiv+0x3ba>
    4f46:	e7c2      	b.n	4ece <__aeabi_ddiv+0x3be>
    4f48:	1c03      	adds	r3, r0, #0
    4f4a:	3b28      	subs	r3, #40	; 0x28
    4f4c:	1c31      	adds	r1, r6, #0
    4f4e:	4099      	lsls	r1, r3
    4f50:	468b      	mov	fp, r1
    4f52:	2100      	movs	r1, #0
    4f54:	e688      	b.n	4c68 <__aeabi_ddiv+0x158>
    4f56:	1c30      	adds	r0, r6, #0
    4f58:	f001 f8e6 	bl	6128 <__clzsi2>
    4f5c:	3020      	adds	r0, #32
    4f5e:	e672      	b.n	4c46 <__aeabi_ddiv+0x136>
    4f60:	3b28      	subs	r3, #40	; 0x28
    4f62:	1c21      	adds	r1, r4, #0
    4f64:	4099      	lsls	r1, r3
    4f66:	2200      	movs	r2, #0
    4f68:	4688      	mov	r8, r1
    4f6a:	4691      	mov	r9, r2
    4f6c:	e651      	b.n	4c12 <__aeabi_ddiv+0x102>
    4f6e:	1c20      	adds	r0, r4, #0
    4f70:	f001 f8da 	bl	6128 <__clzsi2>
    4f74:	3020      	adds	r0, #32
    4f76:	e63b      	b.n	4bf0 <__aeabi_ddiv+0xe0>
    4f78:	2100      	movs	r1, #0
    4f7a:	45b1      	cmp	r9, r6
    4f7c:	d300      	bcc.n	4f80 <__aeabi_ddiv+0x470>
    4f7e:	e73d      	b.n	4dfc <__aeabi_ddiv+0x2ec>
    4f80:	9f00      	ldr	r7, [sp, #0]
    4f82:	465a      	mov	r2, fp
    4f84:	44b9      	add	r9, r7
    4f86:	45b9      	cmp	r9, r7
    4f88:	41bf      	sbcs	r7, r7
    4f8a:	427f      	negs	r7, r7
    4f8c:	193f      	adds	r7, r7, r4
    4f8e:	18fb      	adds	r3, r7, r3
    4f90:	3a01      	subs	r2, #1
    4f92:	429c      	cmp	r4, r3
    4f94:	d21e      	bcs.n	4fd4 <__aeabi_ddiv+0x4c4>
    4f96:	4298      	cmp	r0, r3
    4f98:	d900      	bls.n	4f9c <__aeabi_ddiv+0x48c>
    4f9a:	e07e      	b.n	509a <__aeabi_ddiv+0x58a>
    4f9c:	d100      	bne.n	4fa0 <__aeabi_ddiv+0x490>
    4f9e:	e0b5      	b.n	510c <__aeabi_ddiv+0x5fc>
    4fa0:	1a19      	subs	r1, r3, r0
    4fa2:	4693      	mov	fp, r2
    4fa4:	e72a      	b.n	4dfc <__aeabi_ddiv+0x2ec>
    4fa6:	4589      	cmp	r9, r1
    4fa8:	d800      	bhi.n	4fac <__aeabi_ddiv+0x49c>
    4faa:	e6ad      	b.n	4d08 <__aeabi_ddiv+0x1f8>
    4fac:	4648      	mov	r0, r9
    4fae:	4646      	mov	r6, r8
    4fb0:	4642      	mov	r2, r8
    4fb2:	0877      	lsrs	r7, r6, #1
    4fb4:	07d3      	lsls	r3, r2, #31
    4fb6:	0846      	lsrs	r6, r0, #1
    4fb8:	07c0      	lsls	r0, r0, #31
    4fba:	431e      	orrs	r6, r3
    4fbc:	4681      	mov	r9, r0
    4fbe:	e6aa      	b.n	4d16 <__aeabi_ddiv+0x206>
    4fc0:	4658      	mov	r0, fp
    4fc2:	4220      	tst	r0, r4
    4fc4:	d112      	bne.n	4fec <__aeabi_ddiv+0x4dc>
    4fc6:	4304      	orrs	r4, r0
    4fc8:	0324      	lsls	r4, r4, #12
    4fca:	1c2a      	adds	r2, r5, #0
    4fcc:	0b24      	lsrs	r4, r4, #12
    4fce:	4689      	mov	r9, r1
    4fd0:	4d5c      	ldr	r5, [pc, #368]	; (5144 <__aeabi_ddiv+0x634>)
    4fd2:	e665      	b.n	4ca0 <__aeabi_ddiv+0x190>
    4fd4:	42a3      	cmp	r3, r4
    4fd6:	d1e3      	bne.n	4fa0 <__aeabi_ddiv+0x490>
    4fd8:	9f00      	ldr	r7, [sp, #0]
    4fda:	454f      	cmp	r7, r9
    4fdc:	d9db      	bls.n	4f96 <__aeabi_ddiv+0x486>
    4fde:	1a21      	subs	r1, r4, r0
    4fe0:	4693      	mov	fp, r2
    4fe2:	e70b      	b.n	4dfc <__aeabi_ddiv+0x2ec>
    4fe4:	1c17      	adds	r7, r2, #0
    4fe6:	e6dd      	b.n	4da4 <__aeabi_ddiv+0x294>
    4fe8:	469b      	mov	fp, r3
    4fea:	e6bc      	b.n	4d66 <__aeabi_ddiv+0x256>
    4fec:	433c      	orrs	r4, r7
    4fee:	0324      	lsls	r4, r4, #12
    4ff0:	0b24      	lsrs	r4, r4, #12
    4ff2:	9a00      	ldr	r2, [sp, #0]
    4ff4:	4d53      	ldr	r5, [pc, #332]	; (5144 <__aeabi_ddiv+0x634>)
    4ff6:	e653      	b.n	4ca0 <__aeabi_ddiv+0x190>
    4ff8:	42b2      	cmp	r2, r6
    4ffa:	d859      	bhi.n	50b0 <__aeabi_ddiv+0x5a0>
    4ffc:	d100      	bne.n	5000 <__aeabi_ddiv+0x4f0>
    4ffe:	e08a      	b.n	5116 <__aeabi_ddiv+0x606>
    5000:	1c01      	adds	r1, r0, #0
    5002:	e762      	b.n	4eca <__aeabi_ddiv+0x3ba>
    5004:	465f      	mov	r7, fp
    5006:	08c9      	lsrs	r1, r1, #3
    5008:	077b      	lsls	r3, r7, #29
    500a:	9e03      	ldr	r6, [sp, #12]
    500c:	430b      	orrs	r3, r1
    500e:	027c      	lsls	r4, r7, #9
    5010:	056d      	lsls	r5, r5, #21
    5012:	2201      	movs	r2, #1
    5014:	4699      	mov	r9, r3
    5016:	0b24      	lsrs	r4, r4, #12
    5018:	0d6d      	lsrs	r5, r5, #21
    501a:	4032      	ands	r2, r6
    501c:	e640      	b.n	4ca0 <__aeabi_ddiv+0x190>
    501e:	4b4a      	ldr	r3, [pc, #296]	; (5148 <__aeabi_ddiv+0x638>)
    5020:	9f04      	ldr	r7, [sp, #16]
    5022:	1bdb      	subs	r3, r3, r7
    5024:	2b38      	cmp	r3, #56	; 0x38
    5026:	dd10      	ble.n	504a <__aeabi_ddiv+0x53a>
    5028:	9c03      	ldr	r4, [sp, #12]
    502a:	2201      	movs	r2, #1
    502c:	4022      	ands	r2, r4
    502e:	2400      	movs	r4, #0
    5030:	2500      	movs	r5, #0
    5032:	46a1      	mov	r9, r4
    5034:	e634      	b.n	4ca0 <__aeabi_ddiv+0x190>
    5036:	2101      	movs	r1, #1
    5038:	4249      	negs	r1, r1
    503a:	e748      	b.n	4ece <__aeabi_ddiv+0x3be>
    503c:	9302      	str	r3, [sp, #8]
    503e:	e704      	b.n	4e4a <__aeabi_ddiv+0x33a>
    5040:	1c1f      	adds	r7, r3, #0
    5042:	e721      	b.n	4e88 <__aeabi_ddiv+0x378>
    5044:	9c01      	ldr	r4, [sp, #4]
    5046:	9403      	str	r4, [sp, #12]
    5048:	e741      	b.n	4ece <__aeabi_ddiv+0x3be>
    504a:	2b1f      	cmp	r3, #31
    504c:	dc40      	bgt.n	50d0 <__aeabi_ddiv+0x5c0>
    504e:	483f      	ldr	r0, [pc, #252]	; (514c <__aeabi_ddiv+0x63c>)
    5050:	9f04      	ldr	r7, [sp, #16]
    5052:	1c0c      	adds	r4, r1, #0
    5054:	183a      	adds	r2, r7, r0
    5056:	4658      	mov	r0, fp
    5058:	4091      	lsls	r1, r2
    505a:	40dc      	lsrs	r4, r3
    505c:	4090      	lsls	r0, r2
    505e:	4320      	orrs	r0, r4
    5060:	1c0a      	adds	r2, r1, #0
    5062:	1e51      	subs	r1, r2, #1
    5064:	418a      	sbcs	r2, r1
    5066:	1c01      	adds	r1, r0, #0
    5068:	4311      	orrs	r1, r2
    506a:	465a      	mov	r2, fp
    506c:	40da      	lsrs	r2, r3
    506e:	1c13      	adds	r3, r2, #0
    5070:	0748      	lsls	r0, r1, #29
    5072:	d009      	beq.n	5088 <__aeabi_ddiv+0x578>
    5074:	220f      	movs	r2, #15
    5076:	400a      	ands	r2, r1
    5078:	2a04      	cmp	r2, #4
    507a:	d005      	beq.n	5088 <__aeabi_ddiv+0x578>
    507c:	1d0a      	adds	r2, r1, #4
    507e:	428a      	cmp	r2, r1
    5080:	4189      	sbcs	r1, r1
    5082:	4249      	negs	r1, r1
    5084:	185b      	adds	r3, r3, r1
    5086:	1c11      	adds	r1, r2, #0
    5088:	021a      	lsls	r2, r3, #8
    508a:	d534      	bpl.n	50f6 <__aeabi_ddiv+0x5e6>
    508c:	9c03      	ldr	r4, [sp, #12]
    508e:	2201      	movs	r2, #1
    5090:	4022      	ands	r2, r4
    5092:	2400      	movs	r4, #0
    5094:	2501      	movs	r5, #1
    5096:	46a1      	mov	r9, r4
    5098:	e602      	b.n	4ca0 <__aeabi_ddiv+0x190>
    509a:	9f00      	ldr	r7, [sp, #0]
    509c:	2102      	movs	r1, #2
    509e:	4249      	negs	r1, r1
    50a0:	44b9      	add	r9, r7
    50a2:	448b      	add	fp, r1
    50a4:	45b9      	cmp	r9, r7
    50a6:	4189      	sbcs	r1, r1
    50a8:	4249      	negs	r1, r1
    50aa:	1909      	adds	r1, r1, r4
    50ac:	18cb      	adds	r3, r1, r3
    50ae:	e6a4      	b.n	4dfa <__aeabi_ddiv+0x2ea>
    50b0:	9d00      	ldr	r5, [sp, #0]
    50b2:	1e88      	subs	r0, r1, #2
    50b4:	0069      	lsls	r1, r5, #1
    50b6:	42a9      	cmp	r1, r5
    50b8:	41ad      	sbcs	r5, r5
    50ba:	426d      	negs	r5, r5
    50bc:	192c      	adds	r4, r5, r4
    50be:	1936      	adds	r6, r6, r4
    50c0:	9100      	str	r1, [sp, #0]
    50c2:	e73a      	b.n	4f3a <__aeabi_ddiv+0x42a>
    50c4:	2b00      	cmp	r3, #0
    50c6:	d000      	beq.n	50ca <__aeabi_ddiv+0x5ba>
    50c8:	e733      	b.n	4f32 <__aeabi_ddiv+0x422>
    50ca:	2400      	movs	r4, #0
    50cc:	9400      	str	r4, [sp, #0]
    50ce:	e737      	b.n	4f40 <__aeabi_ddiv+0x430>
    50d0:	4a1f      	ldr	r2, [pc, #124]	; (5150 <__aeabi_ddiv+0x640>)
    50d2:	9c04      	ldr	r4, [sp, #16]
    50d4:	465d      	mov	r5, fp
    50d6:	1b12      	subs	r2, r2, r4
    50d8:	40d5      	lsrs	r5, r2
    50da:	1c2a      	adds	r2, r5, #0
    50dc:	2b20      	cmp	r3, #32
    50de:	d01f      	beq.n	5120 <__aeabi_ddiv+0x610>
    50e0:	4e1c      	ldr	r6, [pc, #112]	; (5154 <__aeabi_ddiv+0x644>)
    50e2:	465f      	mov	r7, fp
    50e4:	19a3      	adds	r3, r4, r6
    50e6:	409f      	lsls	r7, r3
    50e8:	1c3b      	adds	r3, r7, #0
    50ea:	4319      	orrs	r1, r3
    50ec:	1e4b      	subs	r3, r1, #1
    50ee:	4199      	sbcs	r1, r3
    50f0:	4311      	orrs	r1, r2
    50f2:	2300      	movs	r3, #0
    50f4:	e7bc      	b.n	5070 <__aeabi_ddiv+0x560>
    50f6:	075a      	lsls	r2, r3, #29
    50f8:	08c9      	lsrs	r1, r1, #3
    50fa:	430a      	orrs	r2, r1
    50fc:	9f03      	ldr	r7, [sp, #12]
    50fe:	4691      	mov	r9, r2
    5100:	025b      	lsls	r3, r3, #9
    5102:	2201      	movs	r2, #1
    5104:	0b1c      	lsrs	r4, r3, #12
    5106:	403a      	ands	r2, r7
    5108:	2500      	movs	r5, #0
    510a:	e5c9      	b.n	4ca0 <__aeabi_ddiv+0x190>
    510c:	454e      	cmp	r6, r9
    510e:	d8c4      	bhi.n	509a <__aeabi_ddiv+0x58a>
    5110:	4693      	mov	fp, r2
    5112:	2100      	movs	r1, #0
    5114:	e672      	b.n	4dfc <__aeabi_ddiv+0x2ec>
    5116:	9f00      	ldr	r7, [sp, #0]
    5118:	429f      	cmp	r7, r3
    511a:	d3c9      	bcc.n	50b0 <__aeabi_ddiv+0x5a0>
    511c:	1c01      	adds	r1, r0, #0
    511e:	e70f      	b.n	4f40 <__aeabi_ddiv+0x430>
    5120:	2300      	movs	r3, #0
    5122:	e7e2      	b.n	50ea <__aeabi_ddiv+0x5da>
    5124:	2480      	movs	r4, #128	; 0x80
    5126:	0324      	lsls	r4, r4, #12
    5128:	465f      	mov	r7, fp
    512a:	433c      	orrs	r4, r7
    512c:	0324      	lsls	r4, r4, #12
    512e:	0b24      	lsrs	r4, r4, #12
    5130:	9a01      	ldr	r2, [sp, #4]
    5132:	4689      	mov	r9, r1
    5134:	4d03      	ldr	r5, [pc, #12]	; (5144 <__aeabi_ddiv+0x634>)
    5136:	e5b3      	b.n	4ca0 <__aeabi_ddiv+0x190>
    5138:	000003ff 	.word	0x000003ff
    513c:	feffffff 	.word	0xfeffffff
    5140:	000007fe 	.word	0x000007fe
    5144:	000007ff 	.word	0x000007ff
    5148:	fffffc02 	.word	0xfffffc02
    514c:	0000041e 	.word	0x0000041e
    5150:	fffffbe2 	.word	0xfffffbe2
    5154:	0000043e 	.word	0x0000043e

00005158 <__eqdf2>:
    5158:	b5f0      	push	{r4, r5, r6, r7, lr}
    515a:	465f      	mov	r7, fp
    515c:	4656      	mov	r6, sl
    515e:	464d      	mov	r5, r9
    5160:	4644      	mov	r4, r8
    5162:	b4f0      	push	{r4, r5, r6, r7}
    5164:	1c0d      	adds	r5, r1, #0
    5166:	1c04      	adds	r4, r0, #0
    5168:	4680      	mov	r8, r0
    516a:	0fe8      	lsrs	r0, r5, #31
    516c:	4681      	mov	r9, r0
    516e:	0318      	lsls	r0, r3, #12
    5170:	030f      	lsls	r7, r1, #12
    5172:	0b00      	lsrs	r0, r0, #12
    5174:	0b3f      	lsrs	r7, r7, #12
    5176:	b083      	sub	sp, #12
    5178:	4684      	mov	ip, r0
    517a:	481b      	ldr	r0, [pc, #108]	; (51e8 <__eqdf2+0x90>)
    517c:	9700      	str	r7, [sp, #0]
    517e:	0049      	lsls	r1, r1, #1
    5180:	005e      	lsls	r6, r3, #1
    5182:	0fdf      	lsrs	r7, r3, #31
    5184:	0d49      	lsrs	r1, r1, #21
    5186:	4692      	mov	sl, r2
    5188:	0d76      	lsrs	r6, r6, #21
    518a:	46bb      	mov	fp, r7
    518c:	4281      	cmp	r1, r0
    518e:	d00c      	beq.n	51aa <__eqdf2+0x52>
    5190:	4815      	ldr	r0, [pc, #84]	; (51e8 <__eqdf2+0x90>)
    5192:	4286      	cmp	r6, r0
    5194:	d010      	beq.n	51b8 <__eqdf2+0x60>
    5196:	2001      	movs	r0, #1
    5198:	42b1      	cmp	r1, r6
    519a:	d015      	beq.n	51c8 <__eqdf2+0x70>
    519c:	b003      	add	sp, #12
    519e:	bc3c      	pop	{r2, r3, r4, r5}
    51a0:	4690      	mov	r8, r2
    51a2:	4699      	mov	r9, r3
    51a4:	46a2      	mov	sl, r4
    51a6:	46ab      	mov	fp, r5
    51a8:	bdf0      	pop	{r4, r5, r6, r7, pc}
    51aa:	9f00      	ldr	r7, [sp, #0]
    51ac:	2001      	movs	r0, #1
    51ae:	4327      	orrs	r7, r4
    51b0:	d1f4      	bne.n	519c <__eqdf2+0x44>
    51b2:	480d      	ldr	r0, [pc, #52]	; (51e8 <__eqdf2+0x90>)
    51b4:	4286      	cmp	r6, r0
    51b6:	d1ee      	bne.n	5196 <__eqdf2+0x3e>
    51b8:	4660      	mov	r0, ip
    51ba:	4302      	orrs	r2, r0
    51bc:	2001      	movs	r0, #1
    51be:	2a00      	cmp	r2, #0
    51c0:	d1ec      	bne.n	519c <__eqdf2+0x44>
    51c2:	2001      	movs	r0, #1
    51c4:	42b1      	cmp	r1, r6
    51c6:	d1e9      	bne.n	519c <__eqdf2+0x44>
    51c8:	9b00      	ldr	r3, [sp, #0]
    51ca:	4563      	cmp	r3, ip
    51cc:	d1e6      	bne.n	519c <__eqdf2+0x44>
    51ce:	45d0      	cmp	r8, sl
    51d0:	d1e4      	bne.n	519c <__eqdf2+0x44>
    51d2:	45d9      	cmp	r9, fp
    51d4:	d006      	beq.n	51e4 <__eqdf2+0x8c>
    51d6:	2900      	cmp	r1, #0
    51d8:	d1e0      	bne.n	519c <__eqdf2+0x44>
    51da:	431c      	orrs	r4, r3
    51dc:	1c20      	adds	r0, r4, #0
    51de:	1e44      	subs	r4, r0, #1
    51e0:	41a0      	sbcs	r0, r4
    51e2:	e7db      	b.n	519c <__eqdf2+0x44>
    51e4:	2000      	movs	r0, #0
    51e6:	e7d9      	b.n	519c <__eqdf2+0x44>
    51e8:	000007ff 	.word	0x000007ff

000051ec <__gedf2>:
    51ec:	b5f0      	push	{r4, r5, r6, r7, lr}
    51ee:	465f      	mov	r7, fp
    51f0:	4656      	mov	r6, sl
    51f2:	464d      	mov	r5, r9
    51f4:	4644      	mov	r4, r8
    51f6:	b4f0      	push	{r4, r5, r6, r7}
    51f8:	0fcd      	lsrs	r5, r1, #31
    51fa:	0fde      	lsrs	r6, r3, #31
    51fc:	46ac      	mov	ip, r5
    51fe:	031d      	lsls	r5, r3, #12
    5200:	0b2d      	lsrs	r5, r5, #12
    5202:	46b1      	mov	r9, r6
    5204:	4e37      	ldr	r6, [pc, #220]	; (52e4 <__gedf2+0xf8>)
    5206:	030f      	lsls	r7, r1, #12
    5208:	004c      	lsls	r4, r1, #1
    520a:	46ab      	mov	fp, r5
    520c:	005d      	lsls	r5, r3, #1
    520e:	4680      	mov	r8, r0
    5210:	0b3f      	lsrs	r7, r7, #12
    5212:	0d64      	lsrs	r4, r4, #21
    5214:	4692      	mov	sl, r2
    5216:	0d6d      	lsrs	r5, r5, #21
    5218:	42b4      	cmp	r4, r6
    521a:	d032      	beq.n	5282 <__gedf2+0x96>
    521c:	4e31      	ldr	r6, [pc, #196]	; (52e4 <__gedf2+0xf8>)
    521e:	42b5      	cmp	r5, r6
    5220:	d035      	beq.n	528e <__gedf2+0xa2>
    5222:	2c00      	cmp	r4, #0
    5224:	d10e      	bne.n	5244 <__gedf2+0x58>
    5226:	4338      	orrs	r0, r7
    5228:	4241      	negs	r1, r0
    522a:	4141      	adcs	r1, r0
    522c:	1c08      	adds	r0, r1, #0
    522e:	2d00      	cmp	r5, #0
    5230:	d00b      	beq.n	524a <__gedf2+0x5e>
    5232:	2900      	cmp	r1, #0
    5234:	d119      	bne.n	526a <__gedf2+0x7e>
    5236:	45cc      	cmp	ip, r9
    5238:	d02d      	beq.n	5296 <__gedf2+0xaa>
    523a:	4665      	mov	r5, ip
    523c:	4268      	negs	r0, r5
    523e:	2301      	movs	r3, #1
    5240:	4318      	orrs	r0, r3
    5242:	e018      	b.n	5276 <__gedf2+0x8a>
    5244:	2d00      	cmp	r5, #0
    5246:	d1f6      	bne.n	5236 <__gedf2+0x4a>
    5248:	1c28      	adds	r0, r5, #0
    524a:	4659      	mov	r1, fp
    524c:	430a      	orrs	r2, r1
    524e:	4253      	negs	r3, r2
    5250:	4153      	adcs	r3, r2
    5252:	2800      	cmp	r0, #0
    5254:	d106      	bne.n	5264 <__gedf2+0x78>
    5256:	2b00      	cmp	r3, #0
    5258:	d0ed      	beq.n	5236 <__gedf2+0x4a>
    525a:	4663      	mov	r3, ip
    525c:	4258      	negs	r0, r3
    525e:	2301      	movs	r3, #1
    5260:	4318      	orrs	r0, r3
    5262:	e008      	b.n	5276 <__gedf2+0x8a>
    5264:	2000      	movs	r0, #0
    5266:	2b00      	cmp	r3, #0
    5268:	d105      	bne.n	5276 <__gedf2+0x8a>
    526a:	464a      	mov	r2, r9
    526c:	4250      	negs	r0, r2
    526e:	4150      	adcs	r0, r2
    5270:	4240      	negs	r0, r0
    5272:	2301      	movs	r3, #1
    5274:	4318      	orrs	r0, r3
    5276:	bc3c      	pop	{r2, r3, r4, r5}
    5278:	4690      	mov	r8, r2
    527a:	4699      	mov	r9, r3
    527c:	46a2      	mov	sl, r4
    527e:	46ab      	mov	fp, r5
    5280:	bdf0      	pop	{r4, r5, r6, r7, pc}
    5282:	1c3e      	adds	r6, r7, #0
    5284:	4306      	orrs	r6, r0
    5286:	d0c9      	beq.n	521c <__gedf2+0x30>
    5288:	2002      	movs	r0, #2
    528a:	4240      	negs	r0, r0
    528c:	e7f3      	b.n	5276 <__gedf2+0x8a>
    528e:	465e      	mov	r6, fp
    5290:	4316      	orrs	r6, r2
    5292:	d0c6      	beq.n	5222 <__gedf2+0x36>
    5294:	e7f8      	b.n	5288 <__gedf2+0x9c>
    5296:	42ac      	cmp	r4, r5
    5298:	dc07      	bgt.n	52aa <__gedf2+0xbe>
    529a:	da0b      	bge.n	52b4 <__gedf2+0xc8>
    529c:	4661      	mov	r1, ip
    529e:	4248      	negs	r0, r1
    52a0:	4148      	adcs	r0, r1
    52a2:	4240      	negs	r0, r0
    52a4:	2301      	movs	r3, #1
    52a6:	4318      	orrs	r0, r3
    52a8:	e7e5      	b.n	5276 <__gedf2+0x8a>
    52aa:	4666      	mov	r6, ip
    52ac:	4270      	negs	r0, r6
    52ae:	2301      	movs	r3, #1
    52b0:	4318      	orrs	r0, r3
    52b2:	e7e0      	b.n	5276 <__gedf2+0x8a>
    52b4:	455f      	cmp	r7, fp
    52b6:	d80a      	bhi.n	52ce <__gedf2+0xe2>
    52b8:	d00e      	beq.n	52d8 <__gedf2+0xec>
    52ba:	2000      	movs	r0, #0
    52bc:	455f      	cmp	r7, fp
    52be:	d2da      	bcs.n	5276 <__gedf2+0x8a>
    52c0:	4665      	mov	r5, ip
    52c2:	4268      	negs	r0, r5
    52c4:	4168      	adcs	r0, r5
    52c6:	4240      	negs	r0, r0
    52c8:	2301      	movs	r3, #1
    52ca:	4318      	orrs	r0, r3
    52cc:	e7d3      	b.n	5276 <__gedf2+0x8a>
    52ce:	4662      	mov	r2, ip
    52d0:	4250      	negs	r0, r2
    52d2:	2301      	movs	r3, #1
    52d4:	4318      	orrs	r0, r3
    52d6:	e7ce      	b.n	5276 <__gedf2+0x8a>
    52d8:	45d0      	cmp	r8, sl
    52da:	d8f8      	bhi.n	52ce <__gedf2+0xe2>
    52dc:	2000      	movs	r0, #0
    52de:	45d0      	cmp	r8, sl
    52e0:	d3ee      	bcc.n	52c0 <__gedf2+0xd4>
    52e2:	e7c8      	b.n	5276 <__gedf2+0x8a>
    52e4:	000007ff 	.word	0x000007ff

000052e8 <__ledf2>:
    52e8:	b5f0      	push	{r4, r5, r6, r7, lr}
    52ea:	4656      	mov	r6, sl
    52ec:	464d      	mov	r5, r9
    52ee:	4644      	mov	r4, r8
    52f0:	465f      	mov	r7, fp
    52f2:	b4f0      	push	{r4, r5, r6, r7}
    52f4:	1c0d      	adds	r5, r1, #0
    52f6:	b083      	sub	sp, #12
    52f8:	1c04      	adds	r4, r0, #0
    52fa:	9001      	str	r0, [sp, #4]
    52fc:	0fe8      	lsrs	r0, r5, #31
    52fe:	4681      	mov	r9, r0
    5300:	0318      	lsls	r0, r3, #12
    5302:	030f      	lsls	r7, r1, #12
    5304:	0b00      	lsrs	r0, r0, #12
    5306:	0b3f      	lsrs	r7, r7, #12
    5308:	4684      	mov	ip, r0
    530a:	4835      	ldr	r0, [pc, #212]	; (53e0 <__ledf2+0xf8>)
    530c:	9700      	str	r7, [sp, #0]
    530e:	0049      	lsls	r1, r1, #1
    5310:	005e      	lsls	r6, r3, #1
    5312:	0fdf      	lsrs	r7, r3, #31
    5314:	0d49      	lsrs	r1, r1, #21
    5316:	4692      	mov	sl, r2
    5318:	0d76      	lsrs	r6, r6, #21
    531a:	46b8      	mov	r8, r7
    531c:	4281      	cmp	r1, r0
    531e:	d034      	beq.n	538a <__ledf2+0xa2>
    5320:	482f      	ldr	r0, [pc, #188]	; (53e0 <__ledf2+0xf8>)
    5322:	4286      	cmp	r6, r0
    5324:	d036      	beq.n	5394 <__ledf2+0xac>
    5326:	2900      	cmp	r1, #0
    5328:	d018      	beq.n	535c <__ledf2+0x74>
    532a:	2e00      	cmp	r6, #0
    532c:	d11f      	bne.n	536e <__ledf2+0x86>
    532e:	1c34      	adds	r4, r6, #0
    5330:	4667      	mov	r7, ip
    5332:	433a      	orrs	r2, r7
    5334:	4253      	negs	r3, r2
    5336:	4153      	adcs	r3, r2
    5338:	2c00      	cmp	r4, #0
    533a:	d01f      	beq.n	537c <__ledf2+0x94>
    533c:	2000      	movs	r0, #0
    533e:	2b00      	cmp	r3, #0
    5340:	d105      	bne.n	534e <__ledf2+0x66>
    5342:	4642      	mov	r2, r8
    5344:	4250      	negs	r0, r2
    5346:	4150      	adcs	r0, r2
    5348:	4240      	negs	r0, r0
    534a:	2301      	movs	r3, #1
    534c:	4318      	orrs	r0, r3
    534e:	b003      	add	sp, #12
    5350:	bc3c      	pop	{r2, r3, r4, r5}
    5352:	4690      	mov	r8, r2
    5354:	4699      	mov	r9, r3
    5356:	46a2      	mov	sl, r4
    5358:	46ab      	mov	fp, r5
    535a:	bdf0      	pop	{r4, r5, r6, r7, pc}
    535c:	9800      	ldr	r0, [sp, #0]
    535e:	4304      	orrs	r4, r0
    5360:	4260      	negs	r0, r4
    5362:	4160      	adcs	r0, r4
    5364:	1c04      	adds	r4, r0, #0
    5366:	2e00      	cmp	r6, #0
    5368:	d0e2      	beq.n	5330 <__ledf2+0x48>
    536a:	2800      	cmp	r0, #0
    536c:	d1e9      	bne.n	5342 <__ledf2+0x5a>
    536e:	45c1      	cmp	r9, r8
    5370:	d015      	beq.n	539e <__ledf2+0xb6>
    5372:	464f      	mov	r7, r9
    5374:	4278      	negs	r0, r7
    5376:	2301      	movs	r3, #1
    5378:	4318      	orrs	r0, r3
    537a:	e7e8      	b.n	534e <__ledf2+0x66>
    537c:	2b00      	cmp	r3, #0
    537e:	d0f6      	beq.n	536e <__ledf2+0x86>
    5380:	464b      	mov	r3, r9
    5382:	4258      	negs	r0, r3
    5384:	2301      	movs	r3, #1
    5386:	4318      	orrs	r0, r3
    5388:	e7e1      	b.n	534e <__ledf2+0x66>
    538a:	9f00      	ldr	r7, [sp, #0]
    538c:	2002      	movs	r0, #2
    538e:	4327      	orrs	r7, r4
    5390:	d1dd      	bne.n	534e <__ledf2+0x66>
    5392:	e7c5      	b.n	5320 <__ledf2+0x38>
    5394:	4667      	mov	r7, ip
    5396:	2002      	movs	r0, #2
    5398:	4317      	orrs	r7, r2
    539a:	d1d8      	bne.n	534e <__ledf2+0x66>
    539c:	e7c3      	b.n	5326 <__ledf2+0x3e>
    539e:	42b1      	cmp	r1, r6
    53a0:	dd04      	ble.n	53ac <__ledf2+0xc4>
    53a2:	464a      	mov	r2, r9
    53a4:	4250      	negs	r0, r2
    53a6:	2301      	movs	r3, #1
    53a8:	4318      	orrs	r0, r3
    53aa:	e7d0      	b.n	534e <__ledf2+0x66>
    53ac:	42b1      	cmp	r1, r6
    53ae:	db07      	blt.n	53c0 <__ledf2+0xd8>
    53b0:	9800      	ldr	r0, [sp, #0]
    53b2:	4560      	cmp	r0, ip
    53b4:	d8e4      	bhi.n	5380 <__ledf2+0x98>
    53b6:	d00a      	beq.n	53ce <__ledf2+0xe6>
    53b8:	9f00      	ldr	r7, [sp, #0]
    53ba:	2000      	movs	r0, #0
    53bc:	4567      	cmp	r7, ip
    53be:	d2c6      	bcs.n	534e <__ledf2+0x66>
    53c0:	464f      	mov	r7, r9
    53c2:	4278      	negs	r0, r7
    53c4:	4178      	adcs	r0, r7
    53c6:	4240      	negs	r0, r0
    53c8:	2301      	movs	r3, #1
    53ca:	4318      	orrs	r0, r3
    53cc:	e7bf      	b.n	534e <__ledf2+0x66>
    53ce:	9a01      	ldr	r2, [sp, #4]
    53d0:	4552      	cmp	r2, sl
    53d2:	d8d5      	bhi.n	5380 <__ledf2+0x98>
    53d4:	9a01      	ldr	r2, [sp, #4]
    53d6:	2000      	movs	r0, #0
    53d8:	4552      	cmp	r2, sl
    53da:	d3f1      	bcc.n	53c0 <__ledf2+0xd8>
    53dc:	e7b7      	b.n	534e <__ledf2+0x66>
    53de:	46c0      	nop			; (mov r8, r8)
    53e0:	000007ff 	.word	0x000007ff

000053e4 <__aeabi_dmul>:
    53e4:	b5f0      	push	{r4, r5, r6, r7, lr}
    53e6:	4656      	mov	r6, sl
    53e8:	4644      	mov	r4, r8
    53ea:	465f      	mov	r7, fp
    53ec:	464d      	mov	r5, r9
    53ee:	b4f0      	push	{r4, r5, r6, r7}
    53f0:	1c1f      	adds	r7, r3, #0
    53f2:	030b      	lsls	r3, r1, #12
    53f4:	0b1b      	lsrs	r3, r3, #12
    53f6:	469a      	mov	sl, r3
    53f8:	004b      	lsls	r3, r1, #1
    53fa:	b087      	sub	sp, #28
    53fc:	1c04      	adds	r4, r0, #0
    53fe:	4680      	mov	r8, r0
    5400:	0d5b      	lsrs	r3, r3, #21
    5402:	0fc8      	lsrs	r0, r1, #31
    5404:	1c16      	adds	r6, r2, #0
    5406:	9302      	str	r3, [sp, #8]
    5408:	4681      	mov	r9, r0
    540a:	2b00      	cmp	r3, #0
    540c:	d068      	beq.n	54e0 <__aeabi_dmul+0xfc>
    540e:	4b69      	ldr	r3, [pc, #420]	; (55b4 <__aeabi_dmul+0x1d0>)
    5410:	9902      	ldr	r1, [sp, #8]
    5412:	4299      	cmp	r1, r3
    5414:	d032      	beq.n	547c <__aeabi_dmul+0x98>
    5416:	2280      	movs	r2, #128	; 0x80
    5418:	4653      	mov	r3, sl
    541a:	0352      	lsls	r2, r2, #13
    541c:	431a      	orrs	r2, r3
    541e:	00d2      	lsls	r2, r2, #3
    5420:	0f63      	lsrs	r3, r4, #29
    5422:	431a      	orrs	r2, r3
    5424:	4692      	mov	sl, r2
    5426:	4a64      	ldr	r2, [pc, #400]	; (55b8 <__aeabi_dmul+0x1d4>)
    5428:	00e0      	lsls	r0, r4, #3
    542a:	1889      	adds	r1, r1, r2
    542c:	4680      	mov	r8, r0
    542e:	9102      	str	r1, [sp, #8]
    5430:	2400      	movs	r4, #0
    5432:	2500      	movs	r5, #0
    5434:	033b      	lsls	r3, r7, #12
    5436:	0b1b      	lsrs	r3, r3, #12
    5438:	469b      	mov	fp, r3
    543a:	0078      	lsls	r0, r7, #1
    543c:	0ffb      	lsrs	r3, r7, #31
    543e:	1c32      	adds	r2, r6, #0
    5440:	0d40      	lsrs	r0, r0, #21
    5442:	9303      	str	r3, [sp, #12]
    5444:	d100      	bne.n	5448 <__aeabi_dmul+0x64>
    5446:	e075      	b.n	5534 <__aeabi_dmul+0x150>
    5448:	4b5a      	ldr	r3, [pc, #360]	; (55b4 <__aeabi_dmul+0x1d0>)
    544a:	4298      	cmp	r0, r3
    544c:	d069      	beq.n	5522 <__aeabi_dmul+0x13e>
    544e:	2280      	movs	r2, #128	; 0x80
    5450:	4659      	mov	r1, fp
    5452:	0352      	lsls	r2, r2, #13
    5454:	430a      	orrs	r2, r1
    5456:	0f73      	lsrs	r3, r6, #29
    5458:	00d2      	lsls	r2, r2, #3
    545a:	431a      	orrs	r2, r3
    545c:	4b56      	ldr	r3, [pc, #344]	; (55b8 <__aeabi_dmul+0x1d4>)
    545e:	4693      	mov	fp, r2
    5460:	18c0      	adds	r0, r0, r3
    5462:	00f2      	lsls	r2, r6, #3
    5464:	2300      	movs	r3, #0
    5466:	9903      	ldr	r1, [sp, #12]
    5468:	464e      	mov	r6, r9
    546a:	4071      	eors	r1, r6
    546c:	431c      	orrs	r4, r3
    546e:	2c0f      	cmp	r4, #15
    5470:	d900      	bls.n	5474 <__aeabi_dmul+0x90>
    5472:	e0a9      	b.n	55c8 <__aeabi_dmul+0x1e4>
    5474:	4e51      	ldr	r6, [pc, #324]	; (55bc <__aeabi_dmul+0x1d8>)
    5476:	00a4      	lsls	r4, r4, #2
    5478:	5934      	ldr	r4, [r6, r4]
    547a:	46a7      	mov	pc, r4
    547c:	4653      	mov	r3, sl
    547e:	431c      	orrs	r4, r3
    5480:	d000      	beq.n	5484 <__aeabi_dmul+0xa0>
    5482:	e087      	b.n	5594 <__aeabi_dmul+0x1b0>
    5484:	2500      	movs	r5, #0
    5486:	46aa      	mov	sl, r5
    5488:	46a8      	mov	r8, r5
    548a:	2408      	movs	r4, #8
    548c:	2502      	movs	r5, #2
    548e:	e7d1      	b.n	5434 <__aeabi_dmul+0x50>
    5490:	4649      	mov	r1, r9
    5492:	2d02      	cmp	r5, #2
    5494:	d06c      	beq.n	5570 <__aeabi_dmul+0x18c>
    5496:	2d03      	cmp	r5, #3
    5498:	d100      	bne.n	549c <__aeabi_dmul+0xb8>
    549a:	e217      	b.n	58cc <__aeabi_dmul+0x4e8>
    549c:	2d01      	cmp	r5, #1
    549e:	d000      	beq.n	54a2 <__aeabi_dmul+0xbe>
    54a0:	e158      	b.n	5754 <__aeabi_dmul+0x370>
    54a2:	400d      	ands	r5, r1
    54a4:	b2ed      	uxtb	r5, r5
    54a6:	2400      	movs	r4, #0
    54a8:	46a9      	mov	r9, r5
    54aa:	2300      	movs	r3, #0
    54ac:	46a0      	mov	r8, r4
    54ae:	2000      	movs	r0, #0
    54b0:	2100      	movs	r1, #0
    54b2:	0325      	lsls	r5, r4, #12
    54b4:	0d0a      	lsrs	r2, r1, #20
    54b6:	051c      	lsls	r4, r3, #20
    54b8:	0b2d      	lsrs	r5, r5, #12
    54ba:	0512      	lsls	r2, r2, #20
    54bc:	4b40      	ldr	r3, [pc, #256]	; (55c0 <__aeabi_dmul+0x1dc>)
    54be:	432a      	orrs	r2, r5
    54c0:	4013      	ands	r3, r2
    54c2:	4323      	orrs	r3, r4
    54c4:	005b      	lsls	r3, r3, #1
    54c6:	464c      	mov	r4, r9
    54c8:	085b      	lsrs	r3, r3, #1
    54ca:	07e2      	lsls	r2, r4, #31
    54cc:	1c19      	adds	r1, r3, #0
    54ce:	4640      	mov	r0, r8
    54d0:	4311      	orrs	r1, r2
    54d2:	b007      	add	sp, #28
    54d4:	bc3c      	pop	{r2, r3, r4, r5}
    54d6:	4690      	mov	r8, r2
    54d8:	4699      	mov	r9, r3
    54da:	46a2      	mov	sl, r4
    54dc:	46ab      	mov	fp, r5
    54de:	bdf0      	pop	{r4, r5, r6, r7, pc}
    54e0:	4653      	mov	r3, sl
    54e2:	4323      	orrs	r3, r4
    54e4:	d050      	beq.n	5588 <__aeabi_dmul+0x1a4>
    54e6:	4653      	mov	r3, sl
    54e8:	2b00      	cmp	r3, #0
    54ea:	d100      	bne.n	54ee <__aeabi_dmul+0x10a>
    54ec:	e184      	b.n	57f8 <__aeabi_dmul+0x414>
    54ee:	4650      	mov	r0, sl
    54f0:	f000 fe1a 	bl	6128 <__clzsi2>
    54f4:	1e03      	subs	r3, r0, #0
    54f6:	2b27      	cmp	r3, #39	; 0x27
    54f8:	dd00      	ble.n	54fc <__aeabi_dmul+0x118>
    54fa:	e176      	b.n	57ea <__aeabi_dmul+0x406>
    54fc:	2128      	movs	r1, #40	; 0x28
    54fe:	1a0d      	subs	r5, r1, r0
    5500:	1c21      	adds	r1, r4, #0
    5502:	3b08      	subs	r3, #8
    5504:	4652      	mov	r2, sl
    5506:	40e9      	lsrs	r1, r5
    5508:	409a      	lsls	r2, r3
    550a:	1c0d      	adds	r5, r1, #0
    550c:	4315      	orrs	r5, r2
    550e:	1c22      	adds	r2, r4, #0
    5510:	409a      	lsls	r2, r3
    5512:	46aa      	mov	sl, r5
    5514:	4690      	mov	r8, r2
    5516:	4b2b      	ldr	r3, [pc, #172]	; (55c4 <__aeabi_dmul+0x1e0>)
    5518:	2400      	movs	r4, #0
    551a:	1a1b      	subs	r3, r3, r0
    551c:	9302      	str	r3, [sp, #8]
    551e:	2500      	movs	r5, #0
    5520:	e788      	b.n	5434 <__aeabi_dmul+0x50>
    5522:	465b      	mov	r3, fp
    5524:	431e      	orrs	r6, r3
    5526:	2303      	movs	r3, #3
    5528:	2e00      	cmp	r6, #0
    552a:	d19c      	bne.n	5466 <__aeabi_dmul+0x82>
    552c:	46b3      	mov	fp, r6
    552e:	2200      	movs	r2, #0
    5530:	2302      	movs	r3, #2
    5532:	e798      	b.n	5466 <__aeabi_dmul+0x82>
    5534:	465b      	mov	r3, fp
    5536:	4333      	orrs	r3, r6
    5538:	d021      	beq.n	557e <__aeabi_dmul+0x19a>
    553a:	4658      	mov	r0, fp
    553c:	2800      	cmp	r0, #0
    553e:	d100      	bne.n	5542 <__aeabi_dmul+0x15e>
    5540:	e14e      	b.n	57e0 <__aeabi_dmul+0x3fc>
    5542:	f000 fdf1 	bl	6128 <__clzsi2>
    5546:	2827      	cmp	r0, #39	; 0x27
    5548:	dd00      	ble.n	554c <__aeabi_dmul+0x168>
    554a:	e142      	b.n	57d2 <__aeabi_dmul+0x3ee>
    554c:	2128      	movs	r1, #40	; 0x28
    554e:	1a0f      	subs	r7, r1, r0
    5550:	1c02      	adds	r2, r0, #0
    5552:	1c31      	adds	r1, r6, #0
    5554:	3a08      	subs	r2, #8
    5556:	465b      	mov	r3, fp
    5558:	40f9      	lsrs	r1, r7
    555a:	4093      	lsls	r3, r2
    555c:	1c0f      	adds	r7, r1, #0
    555e:	431f      	orrs	r7, r3
    5560:	1c33      	adds	r3, r6, #0
    5562:	4093      	lsls	r3, r2
    5564:	46bb      	mov	fp, r7
    5566:	1c1a      	adds	r2, r3, #0
    5568:	4b16      	ldr	r3, [pc, #88]	; (55c4 <__aeabi_dmul+0x1e0>)
    556a:	1a18      	subs	r0, r3, r0
    556c:	2300      	movs	r3, #0
    556e:	e77a      	b.n	5466 <__aeabi_dmul+0x82>
    5570:	2301      	movs	r3, #1
    5572:	400b      	ands	r3, r1
    5574:	2400      	movs	r4, #0
    5576:	4699      	mov	r9, r3
    5578:	46a0      	mov	r8, r4
    557a:	4b0e      	ldr	r3, [pc, #56]	; (55b4 <__aeabi_dmul+0x1d0>)
    557c:	e797      	b.n	54ae <__aeabi_dmul+0xca>
    557e:	2700      	movs	r7, #0
    5580:	46bb      	mov	fp, r7
    5582:	2200      	movs	r2, #0
    5584:	2301      	movs	r3, #1
    5586:	e76e      	b.n	5466 <__aeabi_dmul+0x82>
    5588:	2100      	movs	r1, #0
    558a:	2404      	movs	r4, #4
    558c:	468a      	mov	sl, r1
    558e:	4688      	mov	r8, r1
    5590:	2501      	movs	r5, #1
    5592:	e74f      	b.n	5434 <__aeabi_dmul+0x50>
    5594:	240c      	movs	r4, #12
    5596:	2503      	movs	r5, #3
    5598:	e74c      	b.n	5434 <__aeabi_dmul+0x50>
    559a:	2500      	movs	r5, #0
    559c:	2480      	movs	r4, #128	; 0x80
    559e:	46a9      	mov	r9, r5
    55a0:	0324      	lsls	r4, r4, #12
    55a2:	46a8      	mov	r8, r5
    55a4:	4b03      	ldr	r3, [pc, #12]	; (55b4 <__aeabi_dmul+0x1d0>)
    55a6:	e782      	b.n	54ae <__aeabi_dmul+0xca>
    55a8:	46da      	mov	sl, fp
    55aa:	4690      	mov	r8, r2
    55ac:	9903      	ldr	r1, [sp, #12]
    55ae:	1c1d      	adds	r5, r3, #0
    55b0:	e76f      	b.n	5492 <__aeabi_dmul+0xae>
    55b2:	46c0      	nop			; (mov r8, r8)
    55b4:	000007ff 	.word	0x000007ff
    55b8:	fffffc01 	.word	0xfffffc01
    55bc:	0000686c 	.word	0x0000686c
    55c0:	800fffff 	.word	0x800fffff
    55c4:	fffffc0d 	.word	0xfffffc0d
    55c8:	9f02      	ldr	r7, [sp, #8]
    55ca:	0c16      	lsrs	r6, r2, #16
    55cc:	1838      	adds	r0, r7, r0
    55ce:	9004      	str	r0, [sp, #16]
    55d0:	4640      	mov	r0, r8
    55d2:	0c07      	lsrs	r7, r0, #16
    55d4:	0400      	lsls	r0, r0, #16
    55d6:	0c00      	lsrs	r0, r0, #16
    55d8:	0412      	lsls	r2, r2, #16
    55da:	0c12      	lsrs	r2, r2, #16
    55dc:	1c03      	adds	r3, r0, #0
    55de:	4353      	muls	r3, r2
    55e0:	1c04      	adds	r4, r0, #0
    55e2:	1c3d      	adds	r5, r7, #0
    55e4:	4374      	muls	r4, r6
    55e6:	4355      	muls	r5, r2
    55e8:	4698      	mov	r8, r3
    55ea:	1c3b      	adds	r3, r7, #0
    55ec:	4373      	muls	r3, r6
    55ee:	1964      	adds	r4, r4, r5
    55f0:	46a4      	mov	ip, r4
    55f2:	4644      	mov	r4, r8
    55f4:	9302      	str	r3, [sp, #8]
    55f6:	0c23      	lsrs	r3, r4, #16
    55f8:	4463      	add	r3, ip
    55fa:	429d      	cmp	r5, r3
    55fc:	d904      	bls.n	5608 <__aeabi_dmul+0x224>
    55fe:	9d02      	ldr	r5, [sp, #8]
    5600:	2480      	movs	r4, #128	; 0x80
    5602:	0264      	lsls	r4, r4, #9
    5604:	192d      	adds	r5, r5, r4
    5606:	9502      	str	r5, [sp, #8]
    5608:	0c1d      	lsrs	r5, r3, #16
    560a:	9503      	str	r5, [sp, #12]
    560c:	4645      	mov	r5, r8
    560e:	042c      	lsls	r4, r5, #16
    5610:	041b      	lsls	r3, r3, #16
    5612:	0c24      	lsrs	r4, r4, #16
    5614:	191c      	adds	r4, r3, r4
    5616:	9405      	str	r4, [sp, #20]
    5618:	465c      	mov	r4, fp
    561a:	0c23      	lsrs	r3, r4, #16
    561c:	1c05      	adds	r5, r0, #0
    561e:	4358      	muls	r0, r3
    5620:	0424      	lsls	r4, r4, #16
    5622:	0c24      	lsrs	r4, r4, #16
    5624:	4684      	mov	ip, r0
    5626:	1c38      	adds	r0, r7, #0
    5628:	4360      	muls	r0, r4
    562a:	4365      	muls	r5, r4
    562c:	435f      	muls	r7, r3
    562e:	4681      	mov	r9, r0
    5630:	44cc      	add	ip, r9
    5632:	0c28      	lsrs	r0, r5, #16
    5634:	4460      	add	r0, ip
    5636:	46bb      	mov	fp, r7
    5638:	4581      	cmp	r9, r0
    563a:	d902      	bls.n	5642 <__aeabi_dmul+0x25e>
    563c:	2780      	movs	r7, #128	; 0x80
    563e:	027f      	lsls	r7, r7, #9
    5640:	44bb      	add	fp, r7
    5642:	042d      	lsls	r5, r5, #16
    5644:	0c07      	lsrs	r7, r0, #16
    5646:	0c2d      	lsrs	r5, r5, #16
    5648:	0400      	lsls	r0, r0, #16
    564a:	1940      	adds	r0, r0, r5
    564c:	4655      	mov	r5, sl
    564e:	46bc      	mov	ip, r7
    5650:	042f      	lsls	r7, r5, #16
    5652:	44e3      	add	fp, ip
    5654:	4684      	mov	ip, r0
    5656:	0c28      	lsrs	r0, r5, #16
    5658:	0c3d      	lsrs	r5, r7, #16
    565a:	1c2f      	adds	r7, r5, #0
    565c:	4357      	muls	r7, r2
    565e:	46b8      	mov	r8, r7
    5660:	1c2f      	adds	r7, r5, #0
    5662:	4377      	muls	r7, r6
    5664:	4342      	muls	r2, r0
    5666:	46b9      	mov	r9, r7
    5668:	4647      	mov	r7, r8
    566a:	0c3f      	lsrs	r7, r7, #16
    566c:	4491      	add	r9, r2
    566e:	46ba      	mov	sl, r7
    5670:	44d1      	add	r9, sl
    5672:	4346      	muls	r6, r0
    5674:	454a      	cmp	r2, r9
    5676:	d902      	bls.n	567e <__aeabi_dmul+0x29a>
    5678:	2280      	movs	r2, #128	; 0x80
    567a:	0252      	lsls	r2, r2, #9
    567c:	18b6      	adds	r6, r6, r2
    567e:	464f      	mov	r7, r9
    5680:	0c3a      	lsrs	r2, r7, #16
    5682:	18b6      	adds	r6, r6, r2
    5684:	043a      	lsls	r2, r7, #16
    5686:	4647      	mov	r7, r8
    5688:	043f      	lsls	r7, r7, #16
    568a:	0c3f      	lsrs	r7, r7, #16
    568c:	46b8      	mov	r8, r7
    568e:	1c2f      	adds	r7, r5, #0
    5690:	4367      	muls	r7, r4
    5692:	435d      	muls	r5, r3
    5694:	4344      	muls	r4, r0
    5696:	4358      	muls	r0, r3
    5698:	1965      	adds	r5, r4, r5
    569a:	9001      	str	r0, [sp, #4]
    569c:	0c38      	lsrs	r0, r7, #16
    569e:	182d      	adds	r5, r5, r0
    56a0:	4442      	add	r2, r8
    56a2:	46b8      	mov	r8, r7
    56a4:	42ac      	cmp	r4, r5
    56a6:	d904      	bls.n	56b2 <__aeabi_dmul+0x2ce>
    56a8:	9801      	ldr	r0, [sp, #4]
    56aa:	2380      	movs	r3, #128	; 0x80
    56ac:	025b      	lsls	r3, r3, #9
    56ae:	18c0      	adds	r0, r0, r3
    56b0:	9001      	str	r0, [sp, #4]
    56b2:	9c03      	ldr	r4, [sp, #12]
    56b4:	9f02      	ldr	r7, [sp, #8]
    56b6:	1c20      	adds	r0, r4, #0
    56b8:	4460      	add	r0, ip
    56ba:	19c0      	adds	r0, r0, r7
    56bc:	4560      	cmp	r0, ip
    56be:	41a4      	sbcs	r4, r4
    56c0:	4647      	mov	r7, r8
    56c2:	4264      	negs	r4, r4
    56c4:	46a4      	mov	ip, r4
    56c6:	042b      	lsls	r3, r5, #16
    56c8:	043c      	lsls	r4, r7, #16
    56ca:	4699      	mov	r9, r3
    56cc:	0c24      	lsrs	r4, r4, #16
    56ce:	444c      	add	r4, r9
    56d0:	46a0      	mov	r8, r4
    56d2:	44d8      	add	r8, fp
    56d4:	1880      	adds	r0, r0, r2
    56d6:	46c2      	mov	sl, r8
    56d8:	44e2      	add	sl, ip
    56da:	4290      	cmp	r0, r2
    56dc:	4192      	sbcs	r2, r2
    56de:	4657      	mov	r7, sl
    56e0:	4252      	negs	r2, r2
    56e2:	4691      	mov	r9, r2
    56e4:	19f2      	adds	r2, r6, r7
    56e6:	45e2      	cmp	sl, ip
    56e8:	41bf      	sbcs	r7, r7
    56ea:	427f      	negs	r7, r7
    56ec:	464b      	mov	r3, r9
    56ee:	46bc      	mov	ip, r7
    56f0:	45d8      	cmp	r8, fp
    56f2:	41bf      	sbcs	r7, r7
    56f4:	18d4      	adds	r4, r2, r3
    56f6:	427f      	negs	r7, r7
    56f8:	4663      	mov	r3, ip
    56fa:	431f      	orrs	r7, r3
    56fc:	0c2d      	lsrs	r5, r5, #16
    56fe:	197f      	adds	r7, r7, r5
    5700:	42b2      	cmp	r2, r6
    5702:	4192      	sbcs	r2, r2
    5704:	454c      	cmp	r4, r9
    5706:	41ad      	sbcs	r5, r5
    5708:	4252      	negs	r2, r2
    570a:	426d      	negs	r5, r5
    570c:	4315      	orrs	r5, r2
    570e:	9e01      	ldr	r6, [sp, #4]
    5710:	197d      	adds	r5, r7, r5
    5712:	19ab      	adds	r3, r5, r6
    5714:	0de2      	lsrs	r2, r4, #23
    5716:	025b      	lsls	r3, r3, #9
    5718:	9f05      	ldr	r7, [sp, #20]
    571a:	4313      	orrs	r3, r2
    571c:	0242      	lsls	r2, r0, #9
    571e:	433a      	orrs	r2, r7
    5720:	469a      	mov	sl, r3
    5722:	1e53      	subs	r3, r2, #1
    5724:	419a      	sbcs	r2, r3
    5726:	0dc3      	lsrs	r3, r0, #23
    5728:	1c10      	adds	r0, r2, #0
    572a:	4318      	orrs	r0, r3
    572c:	0264      	lsls	r4, r4, #9
    572e:	4320      	orrs	r0, r4
    5730:	4680      	mov	r8, r0
    5732:	4650      	mov	r0, sl
    5734:	01c0      	lsls	r0, r0, #7
    5736:	d50d      	bpl.n	5754 <__aeabi_dmul+0x370>
    5738:	4645      	mov	r5, r8
    573a:	2201      	movs	r2, #1
    573c:	4656      	mov	r6, sl
    573e:	9c04      	ldr	r4, [sp, #16]
    5740:	086b      	lsrs	r3, r5, #1
    5742:	402a      	ands	r2, r5
    5744:	431a      	orrs	r2, r3
    5746:	07f3      	lsls	r3, r6, #31
    5748:	3401      	adds	r4, #1
    574a:	431a      	orrs	r2, r3
    574c:	0876      	lsrs	r6, r6, #1
    574e:	9404      	str	r4, [sp, #16]
    5750:	4690      	mov	r8, r2
    5752:	46b2      	mov	sl, r6
    5754:	9e04      	ldr	r6, [sp, #16]
    5756:	4f63      	ldr	r7, [pc, #396]	; (58e4 <__aeabi_dmul+0x500>)
    5758:	19f3      	adds	r3, r6, r7
    575a:	2b00      	cmp	r3, #0
    575c:	dd61      	ble.n	5822 <__aeabi_dmul+0x43e>
    575e:	4640      	mov	r0, r8
    5760:	0740      	lsls	r0, r0, #29
    5762:	d00b      	beq.n	577c <__aeabi_dmul+0x398>
    5764:	220f      	movs	r2, #15
    5766:	4644      	mov	r4, r8
    5768:	4022      	ands	r2, r4
    576a:	2a04      	cmp	r2, #4
    576c:	d006      	beq.n	577c <__aeabi_dmul+0x398>
    576e:	4642      	mov	r2, r8
    5770:	3204      	adds	r2, #4
    5772:	4542      	cmp	r2, r8
    5774:	4180      	sbcs	r0, r0
    5776:	4240      	negs	r0, r0
    5778:	4482      	add	sl, r0
    577a:	4690      	mov	r8, r2
    577c:	4655      	mov	r5, sl
    577e:	01ed      	lsls	r5, r5, #7
    5780:	d507      	bpl.n	5792 <__aeabi_dmul+0x3ae>
    5782:	4b59      	ldr	r3, [pc, #356]	; (58e8 <__aeabi_dmul+0x504>)
    5784:	4656      	mov	r6, sl
    5786:	9f04      	ldr	r7, [sp, #16]
    5788:	2080      	movs	r0, #128	; 0x80
    578a:	401e      	ands	r6, r3
    578c:	00c0      	lsls	r0, r0, #3
    578e:	46b2      	mov	sl, r6
    5790:	183b      	adds	r3, r7, r0
    5792:	4a56      	ldr	r2, [pc, #344]	; (58ec <__aeabi_dmul+0x508>)
    5794:	4293      	cmp	r3, r2
    5796:	dd00      	ble.n	579a <__aeabi_dmul+0x3b6>
    5798:	e6ea      	b.n	5570 <__aeabi_dmul+0x18c>
    579a:	4644      	mov	r4, r8
    579c:	4655      	mov	r5, sl
    579e:	08e2      	lsrs	r2, r4, #3
    57a0:	0768      	lsls	r0, r5, #29
    57a2:	4310      	orrs	r0, r2
    57a4:	2201      	movs	r2, #1
    57a6:	026c      	lsls	r4, r5, #9
    57a8:	055b      	lsls	r3, r3, #21
    57aa:	400a      	ands	r2, r1
    57ac:	4680      	mov	r8, r0
    57ae:	0b24      	lsrs	r4, r4, #12
    57b0:	0d5b      	lsrs	r3, r3, #21
    57b2:	4691      	mov	r9, r2
    57b4:	e67b      	b.n	54ae <__aeabi_dmul+0xca>
    57b6:	46da      	mov	sl, fp
    57b8:	4690      	mov	r8, r2
    57ba:	1c1d      	adds	r5, r3, #0
    57bc:	e669      	b.n	5492 <__aeabi_dmul+0xae>
    57be:	2480      	movs	r4, #128	; 0x80
    57c0:	0324      	lsls	r4, r4, #12
    57c2:	4657      	mov	r7, sl
    57c4:	4227      	tst	r7, r4
    57c6:	d11c      	bne.n	5802 <__aeabi_dmul+0x41e>
    57c8:	433c      	orrs	r4, r7
    57ca:	0324      	lsls	r4, r4, #12
    57cc:	0b24      	lsrs	r4, r4, #12
    57ce:	4b48      	ldr	r3, [pc, #288]	; (58f0 <__aeabi_dmul+0x50c>)
    57d0:	e66d      	b.n	54ae <__aeabi_dmul+0xca>
    57d2:	1c03      	adds	r3, r0, #0
    57d4:	3b28      	subs	r3, #40	; 0x28
    57d6:	1c31      	adds	r1, r6, #0
    57d8:	4099      	lsls	r1, r3
    57da:	468b      	mov	fp, r1
    57dc:	2200      	movs	r2, #0
    57de:	e6c3      	b.n	5568 <__aeabi_dmul+0x184>
    57e0:	1c30      	adds	r0, r6, #0
    57e2:	f000 fca1 	bl	6128 <__clzsi2>
    57e6:	3020      	adds	r0, #32
    57e8:	e6ad      	b.n	5546 <__aeabi_dmul+0x162>
    57ea:	3b28      	subs	r3, #40	; 0x28
    57ec:	1c21      	adds	r1, r4, #0
    57ee:	4099      	lsls	r1, r3
    57f0:	2200      	movs	r2, #0
    57f2:	468a      	mov	sl, r1
    57f4:	4690      	mov	r8, r2
    57f6:	e68e      	b.n	5516 <__aeabi_dmul+0x132>
    57f8:	1c20      	adds	r0, r4, #0
    57fa:	f000 fc95 	bl	6128 <__clzsi2>
    57fe:	3020      	adds	r0, #32
    5800:	e678      	b.n	54f4 <__aeabi_dmul+0x110>
    5802:	4658      	mov	r0, fp
    5804:	4220      	tst	r0, r4
    5806:	d107      	bne.n	5818 <__aeabi_dmul+0x434>
    5808:	4304      	orrs	r4, r0
    580a:	9903      	ldr	r1, [sp, #12]
    580c:	0324      	lsls	r4, r4, #12
    580e:	0b24      	lsrs	r4, r4, #12
    5810:	4689      	mov	r9, r1
    5812:	4690      	mov	r8, r2
    5814:	4b36      	ldr	r3, [pc, #216]	; (58f0 <__aeabi_dmul+0x50c>)
    5816:	e64a      	b.n	54ae <__aeabi_dmul+0xca>
    5818:	433c      	orrs	r4, r7
    581a:	0324      	lsls	r4, r4, #12
    581c:	0b24      	lsrs	r4, r4, #12
    581e:	4b34      	ldr	r3, [pc, #208]	; (58f0 <__aeabi_dmul+0x50c>)
    5820:	e645      	b.n	54ae <__aeabi_dmul+0xca>
    5822:	4b34      	ldr	r3, [pc, #208]	; (58f4 <__aeabi_dmul+0x510>)
    5824:	9e04      	ldr	r6, [sp, #16]
    5826:	1b9b      	subs	r3, r3, r6
    5828:	2b38      	cmp	r3, #56	; 0x38
    582a:	dd06      	ble.n	583a <__aeabi_dmul+0x456>
    582c:	2301      	movs	r3, #1
    582e:	400b      	ands	r3, r1
    5830:	2400      	movs	r4, #0
    5832:	4699      	mov	r9, r3
    5834:	46a0      	mov	r8, r4
    5836:	2300      	movs	r3, #0
    5838:	e639      	b.n	54ae <__aeabi_dmul+0xca>
    583a:	2b1f      	cmp	r3, #31
    583c:	dc25      	bgt.n	588a <__aeabi_dmul+0x4a6>
    583e:	9c04      	ldr	r4, [sp, #16]
    5840:	4d2d      	ldr	r5, [pc, #180]	; (58f8 <__aeabi_dmul+0x514>)
    5842:	4646      	mov	r6, r8
    5844:	1960      	adds	r0, r4, r5
    5846:	4652      	mov	r2, sl
    5848:	4644      	mov	r4, r8
    584a:	4086      	lsls	r6, r0
    584c:	40dc      	lsrs	r4, r3
    584e:	4082      	lsls	r2, r0
    5850:	4657      	mov	r7, sl
    5852:	1c30      	adds	r0, r6, #0
    5854:	4322      	orrs	r2, r4
    5856:	40df      	lsrs	r7, r3
    5858:	1e44      	subs	r4, r0, #1
    585a:	41a0      	sbcs	r0, r4
    585c:	4302      	orrs	r2, r0
    585e:	1c3b      	adds	r3, r7, #0
    5860:	0754      	lsls	r4, r2, #29
    5862:	d009      	beq.n	5878 <__aeabi_dmul+0x494>
    5864:	200f      	movs	r0, #15
    5866:	4010      	ands	r0, r2
    5868:	2804      	cmp	r0, #4
    586a:	d005      	beq.n	5878 <__aeabi_dmul+0x494>
    586c:	1d10      	adds	r0, r2, #4
    586e:	4290      	cmp	r0, r2
    5870:	4192      	sbcs	r2, r2
    5872:	4252      	negs	r2, r2
    5874:	189b      	adds	r3, r3, r2
    5876:	1c02      	adds	r2, r0, #0
    5878:	021d      	lsls	r5, r3, #8
    587a:	d51a      	bpl.n	58b2 <__aeabi_dmul+0x4ce>
    587c:	2301      	movs	r3, #1
    587e:	400b      	ands	r3, r1
    5880:	2400      	movs	r4, #0
    5882:	4699      	mov	r9, r3
    5884:	46a0      	mov	r8, r4
    5886:	2301      	movs	r3, #1
    5888:	e611      	b.n	54ae <__aeabi_dmul+0xca>
    588a:	481c      	ldr	r0, [pc, #112]	; (58fc <__aeabi_dmul+0x518>)
    588c:	9c04      	ldr	r4, [sp, #16]
    588e:	4655      	mov	r5, sl
    5890:	1b00      	subs	r0, r0, r4
    5892:	40c5      	lsrs	r5, r0
    5894:	1c28      	adds	r0, r5, #0
    5896:	2b20      	cmp	r3, #32
    5898:	d016      	beq.n	58c8 <__aeabi_dmul+0x4e4>
    589a:	4e19      	ldr	r6, [pc, #100]	; (5900 <__aeabi_dmul+0x51c>)
    589c:	4657      	mov	r7, sl
    589e:	19a2      	adds	r2, r4, r6
    58a0:	4097      	lsls	r7, r2
    58a2:	1c3a      	adds	r2, r7, #0
    58a4:	4643      	mov	r3, r8
    58a6:	431a      	orrs	r2, r3
    58a8:	1e53      	subs	r3, r2, #1
    58aa:	419a      	sbcs	r2, r3
    58ac:	4302      	orrs	r2, r0
    58ae:	2300      	movs	r3, #0
    58b0:	e7d6      	b.n	5860 <__aeabi_dmul+0x47c>
    58b2:	0758      	lsls	r0, r3, #29
    58b4:	025b      	lsls	r3, r3, #9
    58b6:	08d2      	lsrs	r2, r2, #3
    58b8:	0b1c      	lsrs	r4, r3, #12
    58ba:	2301      	movs	r3, #1
    58bc:	400b      	ands	r3, r1
    58be:	4310      	orrs	r0, r2
    58c0:	4699      	mov	r9, r3
    58c2:	4680      	mov	r8, r0
    58c4:	2300      	movs	r3, #0
    58c6:	e5f2      	b.n	54ae <__aeabi_dmul+0xca>
    58c8:	2200      	movs	r2, #0
    58ca:	e7eb      	b.n	58a4 <__aeabi_dmul+0x4c0>
    58cc:	2480      	movs	r4, #128	; 0x80
    58ce:	0324      	lsls	r4, r4, #12
    58d0:	4650      	mov	r0, sl
    58d2:	2301      	movs	r3, #1
    58d4:	4304      	orrs	r4, r0
    58d6:	4019      	ands	r1, r3
    58d8:	0324      	lsls	r4, r4, #12
    58da:	0b24      	lsrs	r4, r4, #12
    58dc:	4689      	mov	r9, r1
    58de:	4b04      	ldr	r3, [pc, #16]	; (58f0 <__aeabi_dmul+0x50c>)
    58e0:	e5e5      	b.n	54ae <__aeabi_dmul+0xca>
    58e2:	46c0      	nop			; (mov r8, r8)
    58e4:	000003ff 	.word	0x000003ff
    58e8:	feffffff 	.word	0xfeffffff
    58ec:	000007fe 	.word	0x000007fe
    58f0:	000007ff 	.word	0x000007ff
    58f4:	fffffc02 	.word	0xfffffc02
    58f8:	0000041e 	.word	0x0000041e
    58fc:	fffffbe2 	.word	0xfffffbe2
    5900:	0000043e 	.word	0x0000043e

00005904 <__aeabi_dsub>:
    5904:	b5f8      	push	{r3, r4, r5, r6, r7, lr}
    5906:	465f      	mov	r7, fp
    5908:	4656      	mov	r6, sl
    590a:	4644      	mov	r4, r8
    590c:	464d      	mov	r5, r9
    590e:	b4f0      	push	{r4, r5, r6, r7}
    5910:	030c      	lsls	r4, r1, #12
    5912:	004d      	lsls	r5, r1, #1
    5914:	0fcf      	lsrs	r7, r1, #31
    5916:	0a61      	lsrs	r1, r4, #9
    5918:	0f44      	lsrs	r4, r0, #29
    591a:	4321      	orrs	r1, r4
    591c:	00c4      	lsls	r4, r0, #3
    591e:	0318      	lsls	r0, r3, #12
    5920:	0fde      	lsrs	r6, r3, #31
    5922:	4680      	mov	r8, r0
    5924:	46b4      	mov	ip, r6
    5926:	4646      	mov	r6, r8
    5928:	0058      	lsls	r0, r3, #1
    592a:	0a76      	lsrs	r6, r6, #9
    592c:	0f53      	lsrs	r3, r2, #29
    592e:	4333      	orrs	r3, r6
    5930:	00d6      	lsls	r6, r2, #3
    5932:	4ad1      	ldr	r2, [pc, #836]	; (5c78 <__aeabi_dsub+0x374>)
    5934:	0d6d      	lsrs	r5, r5, #21
    5936:	46ba      	mov	sl, r7
    5938:	0d40      	lsrs	r0, r0, #21
    593a:	46b3      	mov	fp, r6
    593c:	4290      	cmp	r0, r2
    593e:	d100      	bne.n	5942 <__aeabi_dsub+0x3e>
    5940:	e0f5      	b.n	5b2e <__aeabi_dsub+0x22a>
    5942:	4662      	mov	r2, ip
    5944:	2601      	movs	r6, #1
    5946:	4072      	eors	r2, r6
    5948:	4694      	mov	ip, r2
    594a:	4567      	cmp	r7, ip
    594c:	d100      	bne.n	5950 <__aeabi_dsub+0x4c>
    594e:	e0ab      	b.n	5aa8 <__aeabi_dsub+0x1a4>
    5950:	1a2f      	subs	r7, r5, r0
    5952:	2f00      	cmp	r7, #0
    5954:	dc00      	bgt.n	5958 <__aeabi_dsub+0x54>
    5956:	e111      	b.n	5b7c <__aeabi_dsub+0x278>
    5958:	2800      	cmp	r0, #0
    595a:	d13e      	bne.n	59da <__aeabi_dsub+0xd6>
    595c:	4658      	mov	r0, fp
    595e:	4318      	orrs	r0, r3
    5960:	d000      	beq.n	5964 <__aeabi_dsub+0x60>
    5962:	e0f1      	b.n	5b48 <__aeabi_dsub+0x244>
    5964:	0760      	lsls	r0, r4, #29
    5966:	d100      	bne.n	596a <__aeabi_dsub+0x66>
    5968:	e097      	b.n	5a9a <__aeabi_dsub+0x196>
    596a:	230f      	movs	r3, #15
    596c:	4023      	ands	r3, r4
    596e:	2b04      	cmp	r3, #4
    5970:	d100      	bne.n	5974 <__aeabi_dsub+0x70>
    5972:	e122      	b.n	5bba <__aeabi_dsub+0x2b6>
    5974:	1d22      	adds	r2, r4, #4
    5976:	42a2      	cmp	r2, r4
    5978:	41a4      	sbcs	r4, r4
    597a:	4264      	negs	r4, r4
    597c:	2380      	movs	r3, #128	; 0x80
    597e:	1909      	adds	r1, r1, r4
    5980:	041b      	lsls	r3, r3, #16
    5982:	2701      	movs	r7, #1
    5984:	4650      	mov	r0, sl
    5986:	400b      	ands	r3, r1
    5988:	4007      	ands	r7, r0
    598a:	1c14      	adds	r4, r2, #0
    598c:	2b00      	cmp	r3, #0
    598e:	d100      	bne.n	5992 <__aeabi_dsub+0x8e>
    5990:	e079      	b.n	5a86 <__aeabi_dsub+0x182>
    5992:	4bb9      	ldr	r3, [pc, #740]	; (5c78 <__aeabi_dsub+0x374>)
    5994:	3501      	adds	r5, #1
    5996:	429d      	cmp	r5, r3
    5998:	d100      	bne.n	599c <__aeabi_dsub+0x98>
    599a:	e10b      	b.n	5bb4 <__aeabi_dsub+0x2b0>
    599c:	4bb7      	ldr	r3, [pc, #732]	; (5c7c <__aeabi_dsub+0x378>)
    599e:	08e4      	lsrs	r4, r4, #3
    59a0:	4019      	ands	r1, r3
    59a2:	0748      	lsls	r0, r1, #29
    59a4:	0249      	lsls	r1, r1, #9
    59a6:	4304      	orrs	r4, r0
    59a8:	0b0b      	lsrs	r3, r1, #12
    59aa:	2000      	movs	r0, #0
    59ac:	2100      	movs	r1, #0
    59ae:	031b      	lsls	r3, r3, #12
    59b0:	0b1a      	lsrs	r2, r3, #12
    59b2:	0d0b      	lsrs	r3, r1, #20
    59b4:	056d      	lsls	r5, r5, #21
    59b6:	051b      	lsls	r3, r3, #20
    59b8:	4313      	orrs	r3, r2
    59ba:	086a      	lsrs	r2, r5, #1
    59bc:	4db0      	ldr	r5, [pc, #704]	; (5c80 <__aeabi_dsub+0x37c>)
    59be:	07ff      	lsls	r7, r7, #31
    59c0:	401d      	ands	r5, r3
    59c2:	4315      	orrs	r5, r2
    59c4:	006d      	lsls	r5, r5, #1
    59c6:	086d      	lsrs	r5, r5, #1
    59c8:	1c29      	adds	r1, r5, #0
    59ca:	4339      	orrs	r1, r7
    59cc:	1c20      	adds	r0, r4, #0
    59ce:	bc3c      	pop	{r2, r3, r4, r5}
    59d0:	4690      	mov	r8, r2
    59d2:	4699      	mov	r9, r3
    59d4:	46a2      	mov	sl, r4
    59d6:	46ab      	mov	fp, r5
    59d8:	bdf8      	pop	{r3, r4, r5, r6, r7, pc}
    59da:	48a7      	ldr	r0, [pc, #668]	; (5c78 <__aeabi_dsub+0x374>)
    59dc:	4285      	cmp	r5, r0
    59de:	d0c1      	beq.n	5964 <__aeabi_dsub+0x60>
    59e0:	2080      	movs	r0, #128	; 0x80
    59e2:	0400      	lsls	r0, r0, #16
    59e4:	4303      	orrs	r3, r0
    59e6:	2f38      	cmp	r7, #56	; 0x38
    59e8:	dd00      	ble.n	59ec <__aeabi_dsub+0xe8>
    59ea:	e0fd      	b.n	5be8 <__aeabi_dsub+0x2e4>
    59ec:	2f1f      	cmp	r7, #31
    59ee:	dd00      	ble.n	59f2 <__aeabi_dsub+0xee>
    59f0:	e131      	b.n	5c56 <__aeabi_dsub+0x352>
    59f2:	2020      	movs	r0, #32
    59f4:	1bc0      	subs	r0, r0, r7
    59f6:	1c1a      	adds	r2, r3, #0
    59f8:	465e      	mov	r6, fp
    59fa:	4082      	lsls	r2, r0
    59fc:	40fe      	lsrs	r6, r7
    59fe:	4332      	orrs	r2, r6
    5a00:	4694      	mov	ip, r2
    5a02:	465a      	mov	r2, fp
    5a04:	4082      	lsls	r2, r0
    5a06:	1c10      	adds	r0, r2, #0
    5a08:	1e42      	subs	r2, r0, #1
    5a0a:	4190      	sbcs	r0, r2
    5a0c:	40fb      	lsrs	r3, r7
    5a0e:	4662      	mov	r2, ip
    5a10:	4302      	orrs	r2, r0
    5a12:	1c1f      	adds	r7, r3, #0
    5a14:	1aa2      	subs	r2, r4, r2
    5a16:	4294      	cmp	r4, r2
    5a18:	41a4      	sbcs	r4, r4
    5a1a:	4264      	negs	r4, r4
    5a1c:	1bc9      	subs	r1, r1, r7
    5a1e:	1b09      	subs	r1, r1, r4
    5a20:	1c14      	adds	r4, r2, #0
    5a22:	020a      	lsls	r2, r1, #8
    5a24:	d59e      	bpl.n	5964 <__aeabi_dsub+0x60>
    5a26:	0249      	lsls	r1, r1, #9
    5a28:	0a4f      	lsrs	r7, r1, #9
    5a2a:	2f00      	cmp	r7, #0
    5a2c:	d100      	bne.n	5a30 <__aeabi_dsub+0x12c>
    5a2e:	e0d6      	b.n	5bde <__aeabi_dsub+0x2da>
    5a30:	1c38      	adds	r0, r7, #0
    5a32:	f000 fb79 	bl	6128 <__clzsi2>
    5a36:	1c02      	adds	r2, r0, #0
    5a38:	3a08      	subs	r2, #8
    5a3a:	2a1f      	cmp	r2, #31
    5a3c:	dd00      	ble.n	5a40 <__aeabi_dsub+0x13c>
    5a3e:	e0c3      	b.n	5bc8 <__aeabi_dsub+0x2c4>
    5a40:	2128      	movs	r1, #40	; 0x28
    5a42:	1c23      	adds	r3, r4, #0
    5a44:	1a09      	subs	r1, r1, r0
    5a46:	4097      	lsls	r7, r2
    5a48:	40cb      	lsrs	r3, r1
    5a4a:	431f      	orrs	r7, r3
    5a4c:	4094      	lsls	r4, r2
    5a4e:	4295      	cmp	r5, r2
    5a50:	dd00      	ble.n	5a54 <__aeabi_dsub+0x150>
    5a52:	e0c0      	b.n	5bd6 <__aeabi_dsub+0x2d2>
    5a54:	1b55      	subs	r5, r2, r5
    5a56:	1c69      	adds	r1, r5, #1
    5a58:	291f      	cmp	r1, #31
    5a5a:	dd00      	ble.n	5a5e <__aeabi_dsub+0x15a>
    5a5c:	e0ea      	b.n	5c34 <__aeabi_dsub+0x330>
    5a5e:	221f      	movs	r2, #31
    5a60:	1b55      	subs	r5, r2, r5
    5a62:	1c3b      	adds	r3, r7, #0
    5a64:	1c22      	adds	r2, r4, #0
    5a66:	40ab      	lsls	r3, r5
    5a68:	40ca      	lsrs	r2, r1
    5a6a:	40ac      	lsls	r4, r5
    5a6c:	1e65      	subs	r5, r4, #1
    5a6e:	41ac      	sbcs	r4, r5
    5a70:	4313      	orrs	r3, r2
    5a72:	40cf      	lsrs	r7, r1
    5a74:	431c      	orrs	r4, r3
    5a76:	1c39      	adds	r1, r7, #0
    5a78:	2500      	movs	r5, #0
    5a7a:	e773      	b.n	5964 <__aeabi_dsub+0x60>
    5a7c:	2180      	movs	r1, #128	; 0x80
    5a7e:	4d7e      	ldr	r5, [pc, #504]	; (5c78 <__aeabi_dsub+0x374>)
    5a80:	2700      	movs	r7, #0
    5a82:	03c9      	lsls	r1, r1, #15
    5a84:	2400      	movs	r4, #0
    5a86:	4b7c      	ldr	r3, [pc, #496]	; (5c78 <__aeabi_dsub+0x374>)
    5a88:	0748      	lsls	r0, r1, #29
    5a8a:	08e4      	lsrs	r4, r4, #3
    5a8c:	4304      	orrs	r4, r0
    5a8e:	08c9      	lsrs	r1, r1, #3
    5a90:	429d      	cmp	r5, r3
    5a92:	d050      	beq.n	5b36 <__aeabi_dsub+0x232>
    5a94:	0309      	lsls	r1, r1, #12
    5a96:	0b0b      	lsrs	r3, r1, #12
    5a98:	e787      	b.n	59aa <__aeabi_dsub+0xa6>
    5a9a:	2380      	movs	r3, #128	; 0x80
    5a9c:	041b      	lsls	r3, r3, #16
    5a9e:	2701      	movs	r7, #1
    5aa0:	4652      	mov	r2, sl
    5aa2:	400b      	ands	r3, r1
    5aa4:	4017      	ands	r7, r2
    5aa6:	e771      	b.n	598c <__aeabi_dsub+0x88>
    5aa8:	1a2a      	subs	r2, r5, r0
    5aaa:	4694      	mov	ip, r2
    5aac:	2a00      	cmp	r2, #0
    5aae:	dc00      	bgt.n	5ab2 <__aeabi_dsub+0x1ae>
    5ab0:	e0a1      	b.n	5bf6 <__aeabi_dsub+0x2f2>
    5ab2:	2800      	cmp	r0, #0
    5ab4:	d054      	beq.n	5b60 <__aeabi_dsub+0x25c>
    5ab6:	4870      	ldr	r0, [pc, #448]	; (5c78 <__aeabi_dsub+0x374>)
    5ab8:	4285      	cmp	r5, r0
    5aba:	d100      	bne.n	5abe <__aeabi_dsub+0x1ba>
    5abc:	e752      	b.n	5964 <__aeabi_dsub+0x60>
    5abe:	2080      	movs	r0, #128	; 0x80
    5ac0:	0400      	lsls	r0, r0, #16
    5ac2:	4303      	orrs	r3, r0
    5ac4:	4660      	mov	r0, ip
    5ac6:	2838      	cmp	r0, #56	; 0x38
    5ac8:	dd00      	ble.n	5acc <__aeabi_dsub+0x1c8>
    5aca:	e10e      	b.n	5cea <__aeabi_dsub+0x3e6>
    5acc:	281f      	cmp	r0, #31
    5ace:	dd00      	ble.n	5ad2 <__aeabi_dsub+0x1ce>
    5ad0:	e157      	b.n	5d82 <__aeabi_dsub+0x47e>
    5ad2:	4662      	mov	r2, ip
    5ad4:	2020      	movs	r0, #32
    5ad6:	1a80      	subs	r0, r0, r2
    5ad8:	1c1e      	adds	r6, r3, #0
    5ada:	4086      	lsls	r6, r0
    5adc:	46b1      	mov	r9, r6
    5ade:	465e      	mov	r6, fp
    5ae0:	40d6      	lsrs	r6, r2
    5ae2:	464a      	mov	r2, r9
    5ae4:	4332      	orrs	r2, r6
    5ae6:	465e      	mov	r6, fp
    5ae8:	4086      	lsls	r6, r0
    5aea:	4690      	mov	r8, r2
    5aec:	1c30      	adds	r0, r6, #0
    5aee:	1e42      	subs	r2, r0, #1
    5af0:	4190      	sbcs	r0, r2
    5af2:	4642      	mov	r2, r8
    5af4:	4302      	orrs	r2, r0
    5af6:	4660      	mov	r0, ip
    5af8:	40c3      	lsrs	r3, r0
    5afa:	1912      	adds	r2, r2, r4
    5afc:	42a2      	cmp	r2, r4
    5afe:	41a4      	sbcs	r4, r4
    5b00:	4264      	negs	r4, r4
    5b02:	1859      	adds	r1, r3, r1
    5b04:	1909      	adds	r1, r1, r4
    5b06:	1c14      	adds	r4, r2, #0
    5b08:	0208      	lsls	r0, r1, #8
    5b0a:	d400      	bmi.n	5b0e <__aeabi_dsub+0x20a>
    5b0c:	e72a      	b.n	5964 <__aeabi_dsub+0x60>
    5b0e:	4b5a      	ldr	r3, [pc, #360]	; (5c78 <__aeabi_dsub+0x374>)
    5b10:	3501      	adds	r5, #1
    5b12:	429d      	cmp	r5, r3
    5b14:	d100      	bne.n	5b18 <__aeabi_dsub+0x214>
    5b16:	e131      	b.n	5d7c <__aeabi_dsub+0x478>
    5b18:	4b58      	ldr	r3, [pc, #352]	; (5c7c <__aeabi_dsub+0x378>)
    5b1a:	0860      	lsrs	r0, r4, #1
    5b1c:	4019      	ands	r1, r3
    5b1e:	2301      	movs	r3, #1
    5b20:	4023      	ands	r3, r4
    5b22:	1c1c      	adds	r4, r3, #0
    5b24:	4304      	orrs	r4, r0
    5b26:	07cb      	lsls	r3, r1, #31
    5b28:	431c      	orrs	r4, r3
    5b2a:	0849      	lsrs	r1, r1, #1
    5b2c:	e71a      	b.n	5964 <__aeabi_dsub+0x60>
    5b2e:	431e      	orrs	r6, r3
    5b30:	d000      	beq.n	5b34 <__aeabi_dsub+0x230>
    5b32:	e70a      	b.n	594a <__aeabi_dsub+0x46>
    5b34:	e705      	b.n	5942 <__aeabi_dsub+0x3e>
    5b36:	1c23      	adds	r3, r4, #0
    5b38:	430b      	orrs	r3, r1
    5b3a:	d03b      	beq.n	5bb4 <__aeabi_dsub+0x2b0>
    5b3c:	2380      	movs	r3, #128	; 0x80
    5b3e:	031b      	lsls	r3, r3, #12
    5b40:	430b      	orrs	r3, r1
    5b42:	031b      	lsls	r3, r3, #12
    5b44:	0b1b      	lsrs	r3, r3, #12
    5b46:	e730      	b.n	59aa <__aeabi_dsub+0xa6>
    5b48:	3f01      	subs	r7, #1
    5b4a:	2f00      	cmp	r7, #0
    5b4c:	d16d      	bne.n	5c2a <__aeabi_dsub+0x326>
    5b4e:	465e      	mov	r6, fp
    5b50:	1ba2      	subs	r2, r4, r6
    5b52:	4294      	cmp	r4, r2
    5b54:	41a4      	sbcs	r4, r4
    5b56:	4264      	negs	r4, r4
    5b58:	1ac9      	subs	r1, r1, r3
    5b5a:	1b09      	subs	r1, r1, r4
    5b5c:	1c14      	adds	r4, r2, #0
    5b5e:	e760      	b.n	5a22 <__aeabi_dsub+0x11e>
    5b60:	4658      	mov	r0, fp
    5b62:	4318      	orrs	r0, r3
    5b64:	d100      	bne.n	5b68 <__aeabi_dsub+0x264>
    5b66:	e6fd      	b.n	5964 <__aeabi_dsub+0x60>
    5b68:	2601      	movs	r6, #1
    5b6a:	4276      	negs	r6, r6
    5b6c:	44b4      	add	ip, r6
    5b6e:	4660      	mov	r0, ip
    5b70:	2800      	cmp	r0, #0
    5b72:	d000      	beq.n	5b76 <__aeabi_dsub+0x272>
    5b74:	e0d0      	b.n	5d18 <__aeabi_dsub+0x414>
    5b76:	465e      	mov	r6, fp
    5b78:	1932      	adds	r2, r6, r4
    5b7a:	e7bf      	b.n	5afc <__aeabi_dsub+0x1f8>
    5b7c:	2f00      	cmp	r7, #0
    5b7e:	d000      	beq.n	5b82 <__aeabi_dsub+0x27e>
    5b80:	e080      	b.n	5c84 <__aeabi_dsub+0x380>
    5b82:	1c68      	adds	r0, r5, #1
    5b84:	0540      	lsls	r0, r0, #21
    5b86:	0d40      	lsrs	r0, r0, #21
    5b88:	2801      	cmp	r0, #1
    5b8a:	dc00      	bgt.n	5b8e <__aeabi_dsub+0x28a>
    5b8c:	e0e8      	b.n	5d60 <__aeabi_dsub+0x45c>
    5b8e:	465a      	mov	r2, fp
    5b90:	1aa2      	subs	r2, r4, r2
    5b92:	4294      	cmp	r4, r2
    5b94:	41bf      	sbcs	r7, r7
    5b96:	1ac8      	subs	r0, r1, r3
    5b98:	427f      	negs	r7, r7
    5b9a:	1bc7      	subs	r7, r0, r7
    5b9c:	023e      	lsls	r6, r7, #8
    5b9e:	d400      	bmi.n	5ba2 <__aeabi_dsub+0x29e>
    5ba0:	e098      	b.n	5cd4 <__aeabi_dsub+0x3d0>
    5ba2:	4658      	mov	r0, fp
    5ba4:	1b04      	subs	r4, r0, r4
    5ba6:	45a3      	cmp	fp, r4
    5ba8:	4192      	sbcs	r2, r2
    5baa:	1a59      	subs	r1, r3, r1
    5bac:	4252      	negs	r2, r2
    5bae:	1a8f      	subs	r7, r1, r2
    5bb0:	46e2      	mov	sl, ip
    5bb2:	e73a      	b.n	5a2a <__aeabi_dsub+0x126>
    5bb4:	2300      	movs	r3, #0
    5bb6:	2400      	movs	r4, #0
    5bb8:	e6f7      	b.n	59aa <__aeabi_dsub+0xa6>
    5bba:	2380      	movs	r3, #128	; 0x80
    5bbc:	041b      	lsls	r3, r3, #16
    5bbe:	2701      	movs	r7, #1
    5bc0:	4656      	mov	r6, sl
    5bc2:	400b      	ands	r3, r1
    5bc4:	4037      	ands	r7, r6
    5bc6:	e6e1      	b.n	598c <__aeabi_dsub+0x88>
    5bc8:	1c27      	adds	r7, r4, #0
    5bca:	3828      	subs	r0, #40	; 0x28
    5bcc:	4087      	lsls	r7, r0
    5bce:	2400      	movs	r4, #0
    5bd0:	4295      	cmp	r5, r2
    5bd2:	dc00      	bgt.n	5bd6 <__aeabi_dsub+0x2d2>
    5bd4:	e73e      	b.n	5a54 <__aeabi_dsub+0x150>
    5bd6:	4929      	ldr	r1, [pc, #164]	; (5c7c <__aeabi_dsub+0x378>)
    5bd8:	1aad      	subs	r5, r5, r2
    5bda:	4039      	ands	r1, r7
    5bdc:	e6c2      	b.n	5964 <__aeabi_dsub+0x60>
    5bde:	1c20      	adds	r0, r4, #0
    5be0:	f000 faa2 	bl	6128 <__clzsi2>
    5be4:	3020      	adds	r0, #32
    5be6:	e726      	b.n	5a36 <__aeabi_dsub+0x132>
    5be8:	465a      	mov	r2, fp
    5bea:	431a      	orrs	r2, r3
    5bec:	1e53      	subs	r3, r2, #1
    5bee:	419a      	sbcs	r2, r3
    5bf0:	b2d2      	uxtb	r2, r2
    5bf2:	2700      	movs	r7, #0
    5bf4:	e70e      	b.n	5a14 <__aeabi_dsub+0x110>
    5bf6:	2a00      	cmp	r2, #0
    5bf8:	d000      	beq.n	5bfc <__aeabi_dsub+0x2f8>
    5bfa:	e0de      	b.n	5dba <__aeabi_dsub+0x4b6>
    5bfc:	1c68      	adds	r0, r5, #1
    5bfe:	0546      	lsls	r6, r0, #21
    5c00:	0d76      	lsrs	r6, r6, #21
    5c02:	2e01      	cmp	r6, #1
    5c04:	dc00      	bgt.n	5c08 <__aeabi_dsub+0x304>
    5c06:	e090      	b.n	5d2a <__aeabi_dsub+0x426>
    5c08:	4d1b      	ldr	r5, [pc, #108]	; (5c78 <__aeabi_dsub+0x374>)
    5c0a:	42a8      	cmp	r0, r5
    5c0c:	d100      	bne.n	5c10 <__aeabi_dsub+0x30c>
    5c0e:	e0f5      	b.n	5dfc <__aeabi_dsub+0x4f8>
    5c10:	465e      	mov	r6, fp
    5c12:	1932      	adds	r2, r6, r4
    5c14:	42a2      	cmp	r2, r4
    5c16:	41a4      	sbcs	r4, r4
    5c18:	4264      	negs	r4, r4
    5c1a:	1859      	adds	r1, r3, r1
    5c1c:	1909      	adds	r1, r1, r4
    5c1e:	07cc      	lsls	r4, r1, #31
    5c20:	0852      	lsrs	r2, r2, #1
    5c22:	4314      	orrs	r4, r2
    5c24:	0849      	lsrs	r1, r1, #1
    5c26:	1c05      	adds	r5, r0, #0
    5c28:	e69c      	b.n	5964 <__aeabi_dsub+0x60>
    5c2a:	4813      	ldr	r0, [pc, #76]	; (5c78 <__aeabi_dsub+0x374>)
    5c2c:	4285      	cmp	r5, r0
    5c2e:	d000      	beq.n	5c32 <__aeabi_dsub+0x32e>
    5c30:	e6d9      	b.n	59e6 <__aeabi_dsub+0xe2>
    5c32:	e697      	b.n	5964 <__aeabi_dsub+0x60>
    5c34:	1c2b      	adds	r3, r5, #0
    5c36:	3b1f      	subs	r3, #31
    5c38:	1c3e      	adds	r6, r7, #0
    5c3a:	40de      	lsrs	r6, r3
    5c3c:	1c33      	adds	r3, r6, #0
    5c3e:	2920      	cmp	r1, #32
    5c40:	d06f      	beq.n	5d22 <__aeabi_dsub+0x41e>
    5c42:	223f      	movs	r2, #63	; 0x3f
    5c44:	1b55      	subs	r5, r2, r5
    5c46:	40af      	lsls	r7, r5
    5c48:	433c      	orrs	r4, r7
    5c4a:	1e60      	subs	r0, r4, #1
    5c4c:	4184      	sbcs	r4, r0
    5c4e:	431c      	orrs	r4, r3
    5c50:	2100      	movs	r1, #0
    5c52:	2500      	movs	r5, #0
    5c54:	e686      	b.n	5964 <__aeabi_dsub+0x60>
    5c56:	1c38      	adds	r0, r7, #0
    5c58:	3820      	subs	r0, #32
    5c5a:	1c1e      	adds	r6, r3, #0
    5c5c:	40c6      	lsrs	r6, r0
    5c5e:	1c30      	adds	r0, r6, #0
    5c60:	2f20      	cmp	r7, #32
    5c62:	d060      	beq.n	5d26 <__aeabi_dsub+0x422>
    5c64:	2240      	movs	r2, #64	; 0x40
    5c66:	1bd7      	subs	r7, r2, r7
    5c68:	40bb      	lsls	r3, r7
    5c6a:	465a      	mov	r2, fp
    5c6c:	431a      	orrs	r2, r3
    5c6e:	1e53      	subs	r3, r2, #1
    5c70:	419a      	sbcs	r2, r3
    5c72:	4302      	orrs	r2, r0
    5c74:	2700      	movs	r7, #0
    5c76:	e6cd      	b.n	5a14 <__aeabi_dsub+0x110>
    5c78:	000007ff 	.word	0x000007ff
    5c7c:	ff7fffff 	.word	0xff7fffff
    5c80:	800fffff 	.word	0x800fffff
    5c84:	2d00      	cmp	r5, #0
    5c86:	d037      	beq.n	5cf8 <__aeabi_dsub+0x3f4>
    5c88:	4db6      	ldr	r5, [pc, #728]	; (5f64 <__aeabi_dsub+0x660>)
    5c8a:	42a8      	cmp	r0, r5
    5c8c:	d100      	bne.n	5c90 <__aeabi_dsub+0x38c>
    5c8e:	e08f      	b.n	5db0 <__aeabi_dsub+0x4ac>
    5c90:	2580      	movs	r5, #128	; 0x80
    5c92:	042d      	lsls	r5, r5, #16
    5c94:	427f      	negs	r7, r7
    5c96:	4329      	orrs	r1, r5
    5c98:	2f38      	cmp	r7, #56	; 0x38
    5c9a:	dd00      	ble.n	5c9e <__aeabi_dsub+0x39a>
    5c9c:	e0a8      	b.n	5df0 <__aeabi_dsub+0x4ec>
    5c9e:	2f1f      	cmp	r7, #31
    5ca0:	dd00      	ble.n	5ca4 <__aeabi_dsub+0x3a0>
    5ca2:	e124      	b.n	5eee <__aeabi_dsub+0x5ea>
    5ca4:	2520      	movs	r5, #32
    5ca6:	1bed      	subs	r5, r5, r7
    5ca8:	1c0e      	adds	r6, r1, #0
    5caa:	40ae      	lsls	r6, r5
    5cac:	46b0      	mov	r8, r6
    5cae:	1c26      	adds	r6, r4, #0
    5cb0:	40fe      	lsrs	r6, r7
    5cb2:	4642      	mov	r2, r8
    5cb4:	40ac      	lsls	r4, r5
    5cb6:	4316      	orrs	r6, r2
    5cb8:	1e65      	subs	r5, r4, #1
    5cba:	41ac      	sbcs	r4, r5
    5cbc:	4334      	orrs	r4, r6
    5cbe:	40f9      	lsrs	r1, r7
    5cc0:	465a      	mov	r2, fp
    5cc2:	1b14      	subs	r4, r2, r4
    5cc4:	45a3      	cmp	fp, r4
    5cc6:	4192      	sbcs	r2, r2
    5cc8:	1a5b      	subs	r3, r3, r1
    5cca:	4252      	negs	r2, r2
    5ccc:	1a99      	subs	r1, r3, r2
    5cce:	1c05      	adds	r5, r0, #0
    5cd0:	46e2      	mov	sl, ip
    5cd2:	e6a6      	b.n	5a22 <__aeabi_dsub+0x11e>
    5cd4:	1c13      	adds	r3, r2, #0
    5cd6:	433b      	orrs	r3, r7
    5cd8:	1c14      	adds	r4, r2, #0
    5cda:	2b00      	cmp	r3, #0
    5cdc:	d000      	beq.n	5ce0 <__aeabi_dsub+0x3dc>
    5cde:	e6a4      	b.n	5a2a <__aeabi_dsub+0x126>
    5ce0:	2700      	movs	r7, #0
    5ce2:	2100      	movs	r1, #0
    5ce4:	2500      	movs	r5, #0
    5ce6:	2400      	movs	r4, #0
    5ce8:	e6cd      	b.n	5a86 <__aeabi_dsub+0x182>
    5cea:	465a      	mov	r2, fp
    5cec:	431a      	orrs	r2, r3
    5cee:	1e53      	subs	r3, r2, #1
    5cf0:	419a      	sbcs	r2, r3
    5cf2:	b2d2      	uxtb	r2, r2
    5cf4:	2300      	movs	r3, #0
    5cf6:	e700      	b.n	5afa <__aeabi_dsub+0x1f6>
    5cf8:	1c0d      	adds	r5, r1, #0
    5cfa:	4325      	orrs	r5, r4
    5cfc:	d058      	beq.n	5db0 <__aeabi_dsub+0x4ac>
    5cfe:	43ff      	mvns	r7, r7
    5d00:	2f00      	cmp	r7, #0
    5d02:	d151      	bne.n	5da8 <__aeabi_dsub+0x4a4>
    5d04:	465a      	mov	r2, fp
    5d06:	1b14      	subs	r4, r2, r4
    5d08:	45a3      	cmp	fp, r4
    5d0a:	4192      	sbcs	r2, r2
    5d0c:	1a59      	subs	r1, r3, r1
    5d0e:	4252      	negs	r2, r2
    5d10:	1a89      	subs	r1, r1, r2
    5d12:	1c05      	adds	r5, r0, #0
    5d14:	46e2      	mov	sl, ip
    5d16:	e684      	b.n	5a22 <__aeabi_dsub+0x11e>
    5d18:	4892      	ldr	r0, [pc, #584]	; (5f64 <__aeabi_dsub+0x660>)
    5d1a:	4285      	cmp	r5, r0
    5d1c:	d000      	beq.n	5d20 <__aeabi_dsub+0x41c>
    5d1e:	e6d1      	b.n	5ac4 <__aeabi_dsub+0x1c0>
    5d20:	e620      	b.n	5964 <__aeabi_dsub+0x60>
    5d22:	2700      	movs	r7, #0
    5d24:	e790      	b.n	5c48 <__aeabi_dsub+0x344>
    5d26:	2300      	movs	r3, #0
    5d28:	e79f      	b.n	5c6a <__aeabi_dsub+0x366>
    5d2a:	1c08      	adds	r0, r1, #0
    5d2c:	4320      	orrs	r0, r4
    5d2e:	2d00      	cmp	r5, #0
    5d30:	d000      	beq.n	5d34 <__aeabi_dsub+0x430>
    5d32:	e0c2      	b.n	5eba <__aeabi_dsub+0x5b6>
    5d34:	2800      	cmp	r0, #0
    5d36:	d100      	bne.n	5d3a <__aeabi_dsub+0x436>
    5d38:	e0ef      	b.n	5f1a <__aeabi_dsub+0x616>
    5d3a:	4658      	mov	r0, fp
    5d3c:	4318      	orrs	r0, r3
    5d3e:	d100      	bne.n	5d42 <__aeabi_dsub+0x43e>
    5d40:	e610      	b.n	5964 <__aeabi_dsub+0x60>
    5d42:	4658      	mov	r0, fp
    5d44:	1902      	adds	r2, r0, r4
    5d46:	42a2      	cmp	r2, r4
    5d48:	41a4      	sbcs	r4, r4
    5d4a:	4264      	negs	r4, r4
    5d4c:	1859      	adds	r1, r3, r1
    5d4e:	1909      	adds	r1, r1, r4
    5d50:	1c14      	adds	r4, r2, #0
    5d52:	020a      	lsls	r2, r1, #8
    5d54:	d400      	bmi.n	5d58 <__aeabi_dsub+0x454>
    5d56:	e605      	b.n	5964 <__aeabi_dsub+0x60>
    5d58:	4b83      	ldr	r3, [pc, #524]	; (5f68 <__aeabi_dsub+0x664>)
    5d5a:	2501      	movs	r5, #1
    5d5c:	4019      	ands	r1, r3
    5d5e:	e601      	b.n	5964 <__aeabi_dsub+0x60>
    5d60:	1c08      	adds	r0, r1, #0
    5d62:	4320      	orrs	r0, r4
    5d64:	2d00      	cmp	r5, #0
    5d66:	d138      	bne.n	5dda <__aeabi_dsub+0x4d6>
    5d68:	2800      	cmp	r0, #0
    5d6a:	d16f      	bne.n	5e4c <__aeabi_dsub+0x548>
    5d6c:	4659      	mov	r1, fp
    5d6e:	4319      	orrs	r1, r3
    5d70:	d003      	beq.n	5d7a <__aeabi_dsub+0x476>
    5d72:	1c19      	adds	r1, r3, #0
    5d74:	465c      	mov	r4, fp
    5d76:	46e2      	mov	sl, ip
    5d78:	e5f4      	b.n	5964 <__aeabi_dsub+0x60>
    5d7a:	2700      	movs	r7, #0
    5d7c:	2100      	movs	r1, #0
    5d7e:	2400      	movs	r4, #0
    5d80:	e681      	b.n	5a86 <__aeabi_dsub+0x182>
    5d82:	4660      	mov	r0, ip
    5d84:	3820      	subs	r0, #32
    5d86:	1c1a      	adds	r2, r3, #0
    5d88:	40c2      	lsrs	r2, r0
    5d8a:	4666      	mov	r6, ip
    5d8c:	1c10      	adds	r0, r2, #0
    5d8e:	2e20      	cmp	r6, #32
    5d90:	d100      	bne.n	5d94 <__aeabi_dsub+0x490>
    5d92:	e0aa      	b.n	5eea <__aeabi_dsub+0x5e6>
    5d94:	2240      	movs	r2, #64	; 0x40
    5d96:	1b92      	subs	r2, r2, r6
    5d98:	4093      	lsls	r3, r2
    5d9a:	465a      	mov	r2, fp
    5d9c:	431a      	orrs	r2, r3
    5d9e:	1e53      	subs	r3, r2, #1
    5da0:	419a      	sbcs	r2, r3
    5da2:	4302      	orrs	r2, r0
    5da4:	2300      	movs	r3, #0
    5da6:	e6a8      	b.n	5afa <__aeabi_dsub+0x1f6>
    5da8:	4d6e      	ldr	r5, [pc, #440]	; (5f64 <__aeabi_dsub+0x660>)
    5daa:	42a8      	cmp	r0, r5
    5dac:	d000      	beq.n	5db0 <__aeabi_dsub+0x4ac>
    5dae:	e773      	b.n	5c98 <__aeabi_dsub+0x394>
    5db0:	1c19      	adds	r1, r3, #0
    5db2:	465c      	mov	r4, fp
    5db4:	1c05      	adds	r5, r0, #0
    5db6:	46e2      	mov	sl, ip
    5db8:	e5d4      	b.n	5964 <__aeabi_dsub+0x60>
    5dba:	2d00      	cmp	r5, #0
    5dbc:	d122      	bne.n	5e04 <__aeabi_dsub+0x500>
    5dbe:	1c0d      	adds	r5, r1, #0
    5dc0:	4325      	orrs	r5, r4
    5dc2:	d076      	beq.n	5eb2 <__aeabi_dsub+0x5ae>
    5dc4:	43d5      	mvns	r5, r2
    5dc6:	2d00      	cmp	r5, #0
    5dc8:	d170      	bne.n	5eac <__aeabi_dsub+0x5a8>
    5dca:	445c      	add	r4, fp
    5dcc:	455c      	cmp	r4, fp
    5dce:	4192      	sbcs	r2, r2
    5dd0:	1859      	adds	r1, r3, r1
    5dd2:	4252      	negs	r2, r2
    5dd4:	1889      	adds	r1, r1, r2
    5dd6:	1c05      	adds	r5, r0, #0
    5dd8:	e696      	b.n	5b08 <__aeabi_dsub+0x204>
    5dda:	2800      	cmp	r0, #0
    5ddc:	d14c      	bne.n	5e78 <__aeabi_dsub+0x574>
    5dde:	4659      	mov	r1, fp
    5de0:	4319      	orrs	r1, r3
    5de2:	d100      	bne.n	5de6 <__aeabi_dsub+0x4e2>
    5de4:	e64a      	b.n	5a7c <__aeabi_dsub+0x178>
    5de6:	1c19      	adds	r1, r3, #0
    5de8:	465c      	mov	r4, fp
    5dea:	46e2      	mov	sl, ip
    5dec:	4d5d      	ldr	r5, [pc, #372]	; (5f64 <__aeabi_dsub+0x660>)
    5dee:	e5b9      	b.n	5964 <__aeabi_dsub+0x60>
    5df0:	430c      	orrs	r4, r1
    5df2:	1e61      	subs	r1, r4, #1
    5df4:	418c      	sbcs	r4, r1
    5df6:	b2e4      	uxtb	r4, r4
    5df8:	2100      	movs	r1, #0
    5dfa:	e761      	b.n	5cc0 <__aeabi_dsub+0x3bc>
    5dfc:	1c05      	adds	r5, r0, #0
    5dfe:	2100      	movs	r1, #0
    5e00:	2400      	movs	r4, #0
    5e02:	e640      	b.n	5a86 <__aeabi_dsub+0x182>
    5e04:	4d57      	ldr	r5, [pc, #348]	; (5f64 <__aeabi_dsub+0x660>)
    5e06:	42a8      	cmp	r0, r5
    5e08:	d053      	beq.n	5eb2 <__aeabi_dsub+0x5ae>
    5e0a:	4255      	negs	r5, r2
    5e0c:	2280      	movs	r2, #128	; 0x80
    5e0e:	0416      	lsls	r6, r2, #16
    5e10:	4331      	orrs	r1, r6
    5e12:	2d38      	cmp	r5, #56	; 0x38
    5e14:	dc7b      	bgt.n	5f0e <__aeabi_dsub+0x60a>
    5e16:	2d1f      	cmp	r5, #31
    5e18:	dd00      	ble.n	5e1c <__aeabi_dsub+0x518>
    5e1a:	e08c      	b.n	5f36 <__aeabi_dsub+0x632>
    5e1c:	2220      	movs	r2, #32
    5e1e:	1b56      	subs	r6, r2, r5
    5e20:	1c0a      	adds	r2, r1, #0
    5e22:	46b4      	mov	ip, r6
    5e24:	40b2      	lsls	r2, r6
    5e26:	1c26      	adds	r6, r4, #0
    5e28:	40ee      	lsrs	r6, r5
    5e2a:	4332      	orrs	r2, r6
    5e2c:	4690      	mov	r8, r2
    5e2e:	4662      	mov	r2, ip
    5e30:	4094      	lsls	r4, r2
    5e32:	1e66      	subs	r6, r4, #1
    5e34:	41b4      	sbcs	r4, r6
    5e36:	4642      	mov	r2, r8
    5e38:	4314      	orrs	r4, r2
    5e3a:	40e9      	lsrs	r1, r5
    5e3c:	445c      	add	r4, fp
    5e3e:	455c      	cmp	r4, fp
    5e40:	4192      	sbcs	r2, r2
    5e42:	18cb      	adds	r3, r1, r3
    5e44:	4252      	negs	r2, r2
    5e46:	1899      	adds	r1, r3, r2
    5e48:	1c05      	adds	r5, r0, #0
    5e4a:	e65d      	b.n	5b08 <__aeabi_dsub+0x204>
    5e4c:	4658      	mov	r0, fp
    5e4e:	4318      	orrs	r0, r3
    5e50:	d100      	bne.n	5e54 <__aeabi_dsub+0x550>
    5e52:	e587      	b.n	5964 <__aeabi_dsub+0x60>
    5e54:	465e      	mov	r6, fp
    5e56:	1ba7      	subs	r7, r4, r6
    5e58:	42bc      	cmp	r4, r7
    5e5a:	4192      	sbcs	r2, r2
    5e5c:	1ac8      	subs	r0, r1, r3
    5e5e:	4252      	negs	r2, r2
    5e60:	1a80      	subs	r0, r0, r2
    5e62:	0206      	lsls	r6, r0, #8
    5e64:	d560      	bpl.n	5f28 <__aeabi_dsub+0x624>
    5e66:	4658      	mov	r0, fp
    5e68:	1b04      	subs	r4, r0, r4
    5e6a:	45a3      	cmp	fp, r4
    5e6c:	4192      	sbcs	r2, r2
    5e6e:	1a59      	subs	r1, r3, r1
    5e70:	4252      	negs	r2, r2
    5e72:	1a89      	subs	r1, r1, r2
    5e74:	46e2      	mov	sl, ip
    5e76:	e575      	b.n	5964 <__aeabi_dsub+0x60>
    5e78:	4658      	mov	r0, fp
    5e7a:	4318      	orrs	r0, r3
    5e7c:	d033      	beq.n	5ee6 <__aeabi_dsub+0x5e2>
    5e7e:	0748      	lsls	r0, r1, #29
    5e80:	08e4      	lsrs	r4, r4, #3
    5e82:	4304      	orrs	r4, r0
    5e84:	2080      	movs	r0, #128	; 0x80
    5e86:	08c9      	lsrs	r1, r1, #3
    5e88:	0300      	lsls	r0, r0, #12
    5e8a:	4201      	tst	r1, r0
    5e8c:	d008      	beq.n	5ea0 <__aeabi_dsub+0x59c>
    5e8e:	08dd      	lsrs	r5, r3, #3
    5e90:	4205      	tst	r5, r0
    5e92:	d105      	bne.n	5ea0 <__aeabi_dsub+0x59c>
    5e94:	4659      	mov	r1, fp
    5e96:	08ca      	lsrs	r2, r1, #3
    5e98:	075c      	lsls	r4, r3, #29
    5e9a:	4314      	orrs	r4, r2
    5e9c:	1c29      	adds	r1, r5, #0
    5e9e:	46e2      	mov	sl, ip
    5ea0:	0f63      	lsrs	r3, r4, #29
    5ea2:	00c9      	lsls	r1, r1, #3
    5ea4:	4319      	orrs	r1, r3
    5ea6:	00e4      	lsls	r4, r4, #3
    5ea8:	4d2e      	ldr	r5, [pc, #184]	; (5f64 <__aeabi_dsub+0x660>)
    5eaa:	e55b      	b.n	5964 <__aeabi_dsub+0x60>
    5eac:	4a2d      	ldr	r2, [pc, #180]	; (5f64 <__aeabi_dsub+0x660>)
    5eae:	4290      	cmp	r0, r2
    5eb0:	d1af      	bne.n	5e12 <__aeabi_dsub+0x50e>
    5eb2:	1c19      	adds	r1, r3, #0
    5eb4:	465c      	mov	r4, fp
    5eb6:	1c05      	adds	r5, r0, #0
    5eb8:	e554      	b.n	5964 <__aeabi_dsub+0x60>
    5eba:	2800      	cmp	r0, #0
    5ebc:	d030      	beq.n	5f20 <__aeabi_dsub+0x61c>
    5ebe:	4658      	mov	r0, fp
    5ec0:	4318      	orrs	r0, r3
    5ec2:	d010      	beq.n	5ee6 <__aeabi_dsub+0x5e2>
    5ec4:	2580      	movs	r5, #128	; 0x80
    5ec6:	0748      	lsls	r0, r1, #29
    5ec8:	08e4      	lsrs	r4, r4, #3
    5eca:	08c9      	lsrs	r1, r1, #3
    5ecc:	032d      	lsls	r5, r5, #12
    5ece:	4304      	orrs	r4, r0
    5ed0:	4229      	tst	r1, r5
    5ed2:	d0e5      	beq.n	5ea0 <__aeabi_dsub+0x59c>
    5ed4:	08d8      	lsrs	r0, r3, #3
    5ed6:	4228      	tst	r0, r5
    5ed8:	d1e2      	bne.n	5ea0 <__aeabi_dsub+0x59c>
    5eda:	465d      	mov	r5, fp
    5edc:	08ea      	lsrs	r2, r5, #3
    5ede:	075c      	lsls	r4, r3, #29
    5ee0:	4314      	orrs	r4, r2
    5ee2:	1c01      	adds	r1, r0, #0
    5ee4:	e7dc      	b.n	5ea0 <__aeabi_dsub+0x59c>
    5ee6:	4d1f      	ldr	r5, [pc, #124]	; (5f64 <__aeabi_dsub+0x660>)
    5ee8:	e53c      	b.n	5964 <__aeabi_dsub+0x60>
    5eea:	2300      	movs	r3, #0
    5eec:	e755      	b.n	5d9a <__aeabi_dsub+0x496>
    5eee:	1c3d      	adds	r5, r7, #0
    5ef0:	3d20      	subs	r5, #32
    5ef2:	1c0e      	adds	r6, r1, #0
    5ef4:	40ee      	lsrs	r6, r5
    5ef6:	1c35      	adds	r5, r6, #0
    5ef8:	2f20      	cmp	r7, #32
    5efa:	d02e      	beq.n	5f5a <__aeabi_dsub+0x656>
    5efc:	2640      	movs	r6, #64	; 0x40
    5efe:	1bf7      	subs	r7, r6, r7
    5f00:	40b9      	lsls	r1, r7
    5f02:	430c      	orrs	r4, r1
    5f04:	1e61      	subs	r1, r4, #1
    5f06:	418c      	sbcs	r4, r1
    5f08:	432c      	orrs	r4, r5
    5f0a:	2100      	movs	r1, #0
    5f0c:	e6d8      	b.n	5cc0 <__aeabi_dsub+0x3bc>
    5f0e:	430c      	orrs	r4, r1
    5f10:	1e61      	subs	r1, r4, #1
    5f12:	418c      	sbcs	r4, r1
    5f14:	b2e4      	uxtb	r4, r4
    5f16:	2100      	movs	r1, #0
    5f18:	e790      	b.n	5e3c <__aeabi_dsub+0x538>
    5f1a:	1c19      	adds	r1, r3, #0
    5f1c:	465c      	mov	r4, fp
    5f1e:	e521      	b.n	5964 <__aeabi_dsub+0x60>
    5f20:	1c19      	adds	r1, r3, #0
    5f22:	465c      	mov	r4, fp
    5f24:	4d0f      	ldr	r5, [pc, #60]	; (5f64 <__aeabi_dsub+0x660>)
    5f26:	e51d      	b.n	5964 <__aeabi_dsub+0x60>
    5f28:	1c03      	adds	r3, r0, #0
    5f2a:	433b      	orrs	r3, r7
    5f2c:	d100      	bne.n	5f30 <__aeabi_dsub+0x62c>
    5f2e:	e724      	b.n	5d7a <__aeabi_dsub+0x476>
    5f30:	1c01      	adds	r1, r0, #0
    5f32:	1c3c      	adds	r4, r7, #0
    5f34:	e516      	b.n	5964 <__aeabi_dsub+0x60>
    5f36:	2620      	movs	r6, #32
    5f38:	4276      	negs	r6, r6
    5f3a:	1976      	adds	r6, r6, r5
    5f3c:	1c0a      	adds	r2, r1, #0
    5f3e:	40f2      	lsrs	r2, r6
    5f40:	4690      	mov	r8, r2
    5f42:	2d20      	cmp	r5, #32
    5f44:	d00b      	beq.n	5f5e <__aeabi_dsub+0x65a>
    5f46:	2640      	movs	r6, #64	; 0x40
    5f48:	1b75      	subs	r5, r6, r5
    5f4a:	40a9      	lsls	r1, r5
    5f4c:	430c      	orrs	r4, r1
    5f4e:	1e61      	subs	r1, r4, #1
    5f50:	418c      	sbcs	r4, r1
    5f52:	4645      	mov	r5, r8
    5f54:	432c      	orrs	r4, r5
    5f56:	2100      	movs	r1, #0
    5f58:	e770      	b.n	5e3c <__aeabi_dsub+0x538>
    5f5a:	2100      	movs	r1, #0
    5f5c:	e7d1      	b.n	5f02 <__aeabi_dsub+0x5fe>
    5f5e:	2100      	movs	r1, #0
    5f60:	e7f4      	b.n	5f4c <__aeabi_dsub+0x648>
    5f62:	46c0      	nop			; (mov r8, r8)
    5f64:	000007ff 	.word	0x000007ff
    5f68:	ff7fffff 	.word	0xff7fffff

00005f6c <__aeabi_f2d>:
    5f6c:	0043      	lsls	r3, r0, #1
    5f6e:	0e1b      	lsrs	r3, r3, #24
    5f70:	1c5a      	adds	r2, r3, #1
    5f72:	0241      	lsls	r1, r0, #9
    5f74:	b2d2      	uxtb	r2, r2
    5f76:	b570      	push	{r4, r5, r6, lr}
    5f78:	0a4c      	lsrs	r4, r1, #9
    5f7a:	0fc5      	lsrs	r5, r0, #31
    5f7c:	2a01      	cmp	r2, #1
    5f7e:	dd17      	ble.n	5fb0 <__aeabi_f2d+0x44>
    5f80:	22e0      	movs	r2, #224	; 0xe0
    5f82:	0092      	lsls	r2, r2, #2
    5f84:	0764      	lsls	r4, r4, #29
    5f86:	0b09      	lsrs	r1, r1, #12
    5f88:	1898      	adds	r0, r3, r2
    5f8a:	2200      	movs	r2, #0
    5f8c:	2300      	movs	r3, #0
    5f8e:	0d1e      	lsrs	r6, r3, #20
    5f90:	1c22      	adds	r2, r4, #0
    5f92:	0534      	lsls	r4, r6, #20
    5f94:	430c      	orrs	r4, r1
    5f96:	491b      	ldr	r1, [pc, #108]	; (6004 <__aeabi_f2d+0x98>)
    5f98:	0540      	lsls	r0, r0, #21
    5f9a:	0840      	lsrs	r0, r0, #1
    5f9c:	4021      	ands	r1, r4
    5f9e:	4301      	orrs	r1, r0
    5fa0:	0049      	lsls	r1, r1, #1
    5fa2:	0849      	lsrs	r1, r1, #1
    5fa4:	07ed      	lsls	r5, r5, #31
    5fa6:	1c0b      	adds	r3, r1, #0
    5fa8:	432b      	orrs	r3, r5
    5faa:	1c10      	adds	r0, r2, #0
    5fac:	1c19      	adds	r1, r3, #0
    5fae:	bd70      	pop	{r4, r5, r6, pc}
    5fb0:	2b00      	cmp	r3, #0
    5fb2:	d115      	bne.n	5fe0 <__aeabi_f2d+0x74>
    5fb4:	2c00      	cmp	r4, #0
    5fb6:	d01c      	beq.n	5ff2 <__aeabi_f2d+0x86>
    5fb8:	1c20      	adds	r0, r4, #0
    5fba:	f000 f8b5 	bl	6128 <__clzsi2>
    5fbe:	280a      	cmp	r0, #10
    5fc0:	dc1a      	bgt.n	5ff8 <__aeabi_f2d+0x8c>
    5fc2:	210b      	movs	r1, #11
    5fc4:	1a09      	subs	r1, r1, r0
    5fc6:	1c23      	adds	r3, r4, #0
    5fc8:	40cb      	lsrs	r3, r1
    5fca:	1c19      	adds	r1, r3, #0
    5fcc:	1c03      	adds	r3, r0, #0
    5fce:	3315      	adds	r3, #21
    5fd0:	409c      	lsls	r4, r3
    5fd2:	4b0d      	ldr	r3, [pc, #52]	; (6008 <__aeabi_f2d+0x9c>)
    5fd4:	0309      	lsls	r1, r1, #12
    5fd6:	1a18      	subs	r0, r3, r0
    5fd8:	0540      	lsls	r0, r0, #21
    5fda:	0b09      	lsrs	r1, r1, #12
    5fdc:	0d40      	lsrs	r0, r0, #21
    5fde:	e7d4      	b.n	5f8a <__aeabi_f2d+0x1e>
    5fe0:	2c00      	cmp	r4, #0
    5fe2:	d003      	beq.n	5fec <__aeabi_f2d+0x80>
    5fe4:	0764      	lsls	r4, r4, #29
    5fe6:	0b09      	lsrs	r1, r1, #12
    5fe8:	4808      	ldr	r0, [pc, #32]	; (600c <__aeabi_f2d+0xa0>)
    5fea:	e7ce      	b.n	5f8a <__aeabi_f2d+0x1e>
    5fec:	4807      	ldr	r0, [pc, #28]	; (600c <__aeabi_f2d+0xa0>)
    5fee:	2100      	movs	r1, #0
    5ff0:	e7cb      	b.n	5f8a <__aeabi_f2d+0x1e>
    5ff2:	2000      	movs	r0, #0
    5ff4:	2100      	movs	r1, #0
    5ff6:	e7c8      	b.n	5f8a <__aeabi_f2d+0x1e>
    5ff8:	1c01      	adds	r1, r0, #0
    5ffa:	390b      	subs	r1, #11
    5ffc:	408c      	lsls	r4, r1
    5ffe:	1c21      	adds	r1, r4, #0
    6000:	2400      	movs	r4, #0
    6002:	e7e6      	b.n	5fd2 <__aeabi_f2d+0x66>
    6004:	800fffff 	.word	0x800fffff
    6008:	00000389 	.word	0x00000389
    600c:	000007ff 	.word	0x000007ff

00006010 <__aeabi_d2f>:
    6010:	b5f0      	push	{r4, r5, r6, r7, lr}
    6012:	004b      	lsls	r3, r1, #1
    6014:	030d      	lsls	r5, r1, #12
    6016:	0f42      	lsrs	r2, r0, #29
    6018:	0d5b      	lsrs	r3, r3, #21
    601a:	0a6d      	lsrs	r5, r5, #9
    601c:	4315      	orrs	r5, r2
    601e:	1c5a      	adds	r2, r3, #1
    6020:	0552      	lsls	r2, r2, #21
    6022:	0fcc      	lsrs	r4, r1, #31
    6024:	00c6      	lsls	r6, r0, #3
    6026:	0d52      	lsrs	r2, r2, #21
    6028:	2a01      	cmp	r2, #1
    602a:	dd27      	ble.n	607c <__aeabi_d2f+0x6c>
    602c:	4f39      	ldr	r7, [pc, #228]	; (6114 <__aeabi_d2f+0x104>)
    602e:	19da      	adds	r2, r3, r7
    6030:	2afe      	cmp	r2, #254	; 0xfe
    6032:	dc1a      	bgt.n	606a <__aeabi_d2f+0x5a>
    6034:	2a00      	cmp	r2, #0
    6036:	dd35      	ble.n	60a4 <__aeabi_d2f+0x94>
    6038:	0180      	lsls	r0, r0, #6
    603a:	00ed      	lsls	r5, r5, #3
    603c:	1e43      	subs	r3, r0, #1
    603e:	4198      	sbcs	r0, r3
    6040:	4328      	orrs	r0, r5
    6042:	0f76      	lsrs	r6, r6, #29
    6044:	4330      	orrs	r0, r6
    6046:	0743      	lsls	r3, r0, #29
    6048:	d004      	beq.n	6054 <__aeabi_d2f+0x44>
    604a:	230f      	movs	r3, #15
    604c:	4003      	ands	r3, r0
    604e:	2b04      	cmp	r3, #4
    6050:	d000      	beq.n	6054 <__aeabi_d2f+0x44>
    6052:	3004      	adds	r0, #4
    6054:	2180      	movs	r1, #128	; 0x80
    6056:	04c9      	lsls	r1, r1, #19
    6058:	4001      	ands	r1, r0
    605a:	d027      	beq.n	60ac <__aeabi_d2f+0x9c>
    605c:	3201      	adds	r2, #1
    605e:	2aff      	cmp	r2, #255	; 0xff
    6060:	d01d      	beq.n	609e <__aeabi_d2f+0x8e>
    6062:	0183      	lsls	r3, r0, #6
    6064:	0a5b      	lsrs	r3, r3, #9
    6066:	b2d1      	uxtb	r1, r2
    6068:	e001      	b.n	606e <__aeabi_d2f+0x5e>
    606a:	21ff      	movs	r1, #255	; 0xff
    606c:	2300      	movs	r3, #0
    606e:	0258      	lsls	r0, r3, #9
    6070:	05c9      	lsls	r1, r1, #23
    6072:	0a40      	lsrs	r0, r0, #9
    6074:	07e4      	lsls	r4, r4, #31
    6076:	4308      	orrs	r0, r1
    6078:	4320      	orrs	r0, r4
    607a:	bdf0      	pop	{r4, r5, r6, r7, pc}
    607c:	2b00      	cmp	r3, #0
    607e:	d106      	bne.n	608e <__aeabi_d2f+0x7e>
    6080:	4335      	orrs	r5, r6
    6082:	d111      	bne.n	60a8 <__aeabi_d2f+0x98>
    6084:	2100      	movs	r1, #0
    6086:	2000      	movs	r0, #0
    6088:	0243      	lsls	r3, r0, #9
    608a:	0a5b      	lsrs	r3, r3, #9
    608c:	e7ef      	b.n	606e <__aeabi_d2f+0x5e>
    608e:	432e      	orrs	r6, r5
    6090:	d0eb      	beq.n	606a <__aeabi_d2f+0x5a>
    6092:	2080      	movs	r0, #128	; 0x80
    6094:	00ed      	lsls	r5, r5, #3
    6096:	0480      	lsls	r0, r0, #18
    6098:	4328      	orrs	r0, r5
    609a:	22ff      	movs	r2, #255	; 0xff
    609c:	e7d3      	b.n	6046 <__aeabi_d2f+0x36>
    609e:	21ff      	movs	r1, #255	; 0xff
    60a0:	2300      	movs	r3, #0
    60a2:	e7e4      	b.n	606e <__aeabi_d2f+0x5e>
    60a4:	3217      	adds	r2, #23
    60a6:	da0d      	bge.n	60c4 <__aeabi_d2f+0xb4>
    60a8:	2005      	movs	r0, #5
    60aa:	2200      	movs	r2, #0
    60ac:	08c0      	lsrs	r0, r0, #3
    60ae:	b2d1      	uxtb	r1, r2
    60b0:	2aff      	cmp	r2, #255	; 0xff
    60b2:	d1e9      	bne.n	6088 <__aeabi_d2f+0x78>
    60b4:	2800      	cmp	r0, #0
    60b6:	d0d9      	beq.n	606c <__aeabi_d2f+0x5c>
    60b8:	2380      	movs	r3, #128	; 0x80
    60ba:	03db      	lsls	r3, r3, #15
    60bc:	4303      	orrs	r3, r0
    60be:	025b      	lsls	r3, r3, #9
    60c0:	0a5b      	lsrs	r3, r3, #9
    60c2:	e7d4      	b.n	606e <__aeabi_d2f+0x5e>
    60c4:	2280      	movs	r2, #128	; 0x80
    60c6:	4914      	ldr	r1, [pc, #80]	; (6118 <__aeabi_d2f+0x108>)
    60c8:	0412      	lsls	r2, r2, #16
    60ca:	4315      	orrs	r5, r2
    60cc:	1ac9      	subs	r1, r1, r3
    60ce:	291f      	cmp	r1, #31
    60d0:	dc0d      	bgt.n	60ee <__aeabi_d2f+0xde>
    60d2:	4a12      	ldr	r2, [pc, #72]	; (611c <__aeabi_d2f+0x10c>)
    60d4:	1c37      	adds	r7, r6, #0
    60d6:	189b      	adds	r3, r3, r2
    60d8:	1c28      	adds	r0, r5, #0
    60da:	409f      	lsls	r7, r3
    60dc:	4098      	lsls	r0, r3
    60de:	1c3b      	adds	r3, r7, #0
    60e0:	1e5a      	subs	r2, r3, #1
    60e2:	4193      	sbcs	r3, r2
    60e4:	4318      	orrs	r0, r3
    60e6:	40ce      	lsrs	r6, r1
    60e8:	4330      	orrs	r0, r6
    60ea:	2200      	movs	r2, #0
    60ec:	e7ab      	b.n	6046 <__aeabi_d2f+0x36>
    60ee:	4f0c      	ldr	r7, [pc, #48]	; (6120 <__aeabi_d2f+0x110>)
    60f0:	1c2a      	adds	r2, r5, #0
    60f2:	1aff      	subs	r7, r7, r3
    60f4:	40fa      	lsrs	r2, r7
    60f6:	1c17      	adds	r7, r2, #0
    60f8:	2920      	cmp	r1, #32
    60fa:	d009      	beq.n	6110 <__aeabi_d2f+0x100>
    60fc:	4a09      	ldr	r2, [pc, #36]	; (6124 <__aeabi_d2f+0x114>)
    60fe:	1898      	adds	r0, r3, r2
    6100:	4085      	lsls	r5, r0
    6102:	1c28      	adds	r0, r5, #0
    6104:	4330      	orrs	r0, r6
    6106:	1e46      	subs	r6, r0, #1
    6108:	41b0      	sbcs	r0, r6
    610a:	4338      	orrs	r0, r7
    610c:	2200      	movs	r2, #0
    610e:	e79a      	b.n	6046 <__aeabi_d2f+0x36>
    6110:	2000      	movs	r0, #0
    6112:	e7f7      	b.n	6104 <__aeabi_d2f+0xf4>
    6114:	fffffc80 	.word	0xfffffc80
    6118:	0000039e 	.word	0x0000039e
    611c:	fffffc82 	.word	0xfffffc82
    6120:	0000037e 	.word	0x0000037e
    6124:	fffffca2 	.word	0xfffffca2

00006128 <__clzsi2>:
    6128:	211c      	movs	r1, #28
    612a:	2301      	movs	r3, #1
    612c:	041b      	lsls	r3, r3, #16
    612e:	4298      	cmp	r0, r3
    6130:	d301      	bcc.n	6136 <__clzsi2+0xe>
    6132:	0c00      	lsrs	r0, r0, #16
    6134:	3910      	subs	r1, #16
    6136:	0a1b      	lsrs	r3, r3, #8
    6138:	4298      	cmp	r0, r3
    613a:	d301      	bcc.n	6140 <__clzsi2+0x18>
    613c:	0a00      	lsrs	r0, r0, #8
    613e:	3908      	subs	r1, #8
    6140:	091b      	lsrs	r3, r3, #4
    6142:	4298      	cmp	r0, r3
    6144:	d301      	bcc.n	614a <__clzsi2+0x22>
    6146:	0900      	lsrs	r0, r0, #4
    6148:	3904      	subs	r1, #4
    614a:	a202      	add	r2, pc, #8	; (adr r2, 6154 <__clzsi2+0x2c>)
    614c:	5c10      	ldrb	r0, [r2, r0]
    614e:	1840      	adds	r0, r0, r1
    6150:	4770      	bx	lr
    6152:	46c0      	nop			; (mov r8, r8)
    6154:	02020304 	.word	0x02020304
    6158:	01010101 	.word	0x01010101
	...

00006164 <__errno>:
    6164:	4b01      	ldr	r3, [pc, #4]	; (616c <__errno+0x8>)
    6166:	6818      	ldr	r0, [r3, #0]
    6168:	4770      	bx	lr
    616a:	46c0      	nop			; (mov r8, r8)
    616c:	2000007c 	.word	0x2000007c

00006170 <__libc_init_array>:
    6170:	b570      	push	{r4, r5, r6, lr}
    6172:	4b0e      	ldr	r3, [pc, #56]	; (61ac <__libc_init_array+0x3c>)
    6174:	4d0e      	ldr	r5, [pc, #56]	; (61b0 <__libc_init_array+0x40>)
    6176:	2400      	movs	r4, #0
    6178:	1aed      	subs	r5, r5, r3
    617a:	10ad      	asrs	r5, r5, #2
    617c:	1c1e      	adds	r6, r3, #0
    617e:	42ac      	cmp	r4, r5
    6180:	d004      	beq.n	618c <__libc_init_array+0x1c>
    6182:	00a3      	lsls	r3, r4, #2
    6184:	58f3      	ldr	r3, [r6, r3]
    6186:	4798      	blx	r3
    6188:	3401      	adds	r4, #1
    618a:	e7f8      	b.n	617e <__libc_init_array+0xe>
    618c:	f000 fbbe 	bl	690c <_init>
    6190:	4b08      	ldr	r3, [pc, #32]	; (61b4 <__libc_init_array+0x44>)
    6192:	4d09      	ldr	r5, [pc, #36]	; (61b8 <__libc_init_array+0x48>)
    6194:	2400      	movs	r4, #0
    6196:	1aed      	subs	r5, r5, r3
    6198:	10ad      	asrs	r5, r5, #2
    619a:	1c1e      	adds	r6, r3, #0
    619c:	42ac      	cmp	r4, r5
    619e:	d004      	beq.n	61aa <__libc_init_array+0x3a>
    61a0:	00a3      	lsls	r3, r4, #2
    61a2:	58f3      	ldr	r3, [r6, r3]
    61a4:	4798      	blx	r3
    61a6:	3401      	adds	r4, #1
    61a8:	e7f8      	b.n	619c <__libc_init_array+0x2c>
    61aa:	bd70      	pop	{r4, r5, r6, pc}
    61ac:	00006918 	.word	0x00006918
    61b0:	00006918 	.word	0x00006918
    61b4:	00006918 	.word	0x00006918
    61b8:	0000691c 	.word	0x0000691c
    61bc:	42000800 	.word	0x42000800
    61c0:	42000c00 	.word	0x42000c00
    61c4:	42001000 	.word	0x42001000
    61c8:	42001400 	.word	0x42001400
    61cc:	42001800 	.word	0x42001800
    61d0:	42001c00 	.word	0x42001c00

000061d4 <CalibrationMenu>:
    61d4:	62412e31 756c6f73 50206574 73736572     1.Absolute Press
    61e4:	00657275 61502e32 2e697472 69724f20     ure.2.Parti. Ori
    61f4:	50442e66 00202020 61472e33 756f6573     f.DP   .3.Gaseou
    6204:	724f2073 442e6669 00202050 69502e34     s Orif.DP  .4.Pi
    6214:	20746f74 20205044 20202020 00202020     tot DP         .
    6224:	74532e35 206b6361 72656854 75436f6d     5.Stack ThermoCu
    6234:	00202070 6d412e36 6e656962 65542074     p  .6.Ambient Te
    6244:	202e706d 00202020 654d2e37 20726574     mp.    .7.Meter 
    6254:	706d6554 2020202e 00202020 75412e38     Temp.      .8.Au
    6264:	6c6c6978 20797261 706d6554 0020202e     xillary Temp.  .
    6274:	61502e39 63697472 74616c75 6c462065     9.Particulate Fl
    6284:	0020776f 472e3031 6f657361 46207375     ow .10.Gaseous F
    6294:	20776f6c 00202020 61432020 7262696c     low    .  Calibr
    62a4:	6f697461 666f206e 2020203a 62412000     ation of:   . Ab
    62b4:	756c6f73 50206574 73736572 20657275     solute Pressure 
    62c4:	63530020 2f206e61 69644520 452f2074      .Scan / Edit /E
    62d4:	75636578 20006574 20202020 20202020     xecute.         
    62e4:	20202020 20202020 00202020 6e616353                .Scan
    62f4:	646f4d20 41203a65 502e7362 2e736572      Mode: Abs.Pres.
    6304:	6c614300 61726269 6e6f6974 206e6928     .Calibration(in 
    6314:	67486d6d 6f4c0029 3a726577 20202020     mmHg).Lower:    
    6324:	53202020 203a6474 55002020 72657070        Std:   .Upper
    6334:	2020203a 20202020 3a647453 00202020     :       Std:   .
    6344:	74696445 646f4d20 41203a65 502e7362     Edit Mode: Abs.P
    6354:	2e736572 4c4e4f00 20454e49 20544f4e     res..ONLINE NOT 
    6364:	4c504d49 4e454d45 20200054 6c614320     IMPLEMENT.   Cal
    6374:	61726269 6e6f6974 20666f20 50002020     ibration of   .P
    6384:	69747261 616c7563 4f206574 2e666972     articulate Orif.
    6394:	00504420 6e616353 646f4d20 61503a65      DP.Scan Mode:Pa
    63a4:	4f2e7472 2e666972 20504400 696c6143     rt.Orif..DP Cali
    63b4:	74617262 3a6e6f69 20202020 70530020     bration:     .Sp
    63c4:	432d6e61 746e756f 20203a73 20202020     an-Counts:      
    63d4:	53002020 203a6474 20202020 6d6d2020       .Std:       mm
    63e4:	20204357 00202020 74696445 646f4d20     WC     .Edit Mod
    63f4:	61503a65 4f2e7472 2e666972 61472000     e:Part.Orif.. Ga
    6404:	756f6573 724f2073 63696669 50442065     seous Orifice DP
    6414:	63530020 4d206e61 3a65646f 73614720      .Scan Mode: Gas
    6424:	73756f65 4f002020 2e666972 20504420     eous  .Orif. DP 
    6434:	696c6143 74617262 006e6f69 20202020     Calibration.    
    6444:	69502020 20746f74 20205044 20202020       Pitot DP      
    6454:	61635300 6f4d206e 203a6564 6f746950     .Scan Mode: Pito
    6464:	50442074 61430020 7262696c 6f697461     t DP .Calibratio
    6474:	20203a6e 20202020 53002020 203a6474     n:        .Std: 
    6484:	20202020 6d202020 2043576d 00202020            mmWC    .
    6494:	74696445 646f4d20 50203a65 746f7469     Edit Mode: Pitot
    64a4:	20504420 74532000 206b6361 72656854      DP . Stack Ther
    64b4:	6f636f6d 656c7075 63530020 4d206e61     mocouple .Scan M
    64c4:	3a65646f 61745320 54206b63 5300432f     ode: Stack T/C.S
    64d4:	203a6474 20202020 566d2020 20202020     td:       mV    
    64e4:	00432020 74696445 646f4d20 53203a65       C.Edit Mode: S
    64f4:	6b636174 432f5420 6c614300 61726269     tack T/C.Calibra
    6504:	6e6f6974 20666f20 2e626d41 65540020     tion of Amb. .Te
    6514:	202e706d 61726150 6574656d 6f662072     mp. Parameter fo
    6524:	20002072 30315450 65522030 74736973     r . PT100 Resist
    6534:	65636e61 00202073 6e616353 626d413a     ances  .Scan:Amb
    6544:	6d65542e 43202e70 2e696c61 432f4c00     .Temp. Cali..L/C
    6554:	2020203a 55202020 203a432f 20202020     :      U/C:     
    6564:	74530020 20203a64 20202020 20202020      .Std:          
    6574:	20202020 20002020 20202020 20202020           .         
    6584:	20204320 20202020 00432020 74696445      C        C.Edit
    6594:	626d413a 6d65542e 43202e70 2e696c61     :Amb.Temp. Cali.
    65a4:	6c614300 61726269 6e6f6974 20666f20     .Calibration of 
    65b4:	6574654d 63530072 4d3a6e61 72657465     Meter.Scan:Meter
    65c4:	706d6554 6c61432e 45002e69 3a746964     Temp.Cali..Edit:
    65d4:	6574654d 6d655472 61432e70 002e696c     MeterTemp.Cali..
    65e4:	4f4e202a 4d492054 4d454c50 45544e45     * NOT IMPLEMENTE
    65f4:	2a202044 6c614300 61726269 6e6f6974     D  *.Calibration
    6604:	20666f20 69787541 6353002e 413a6e61      of Auxi..Scan:A
    6614:	2e697875 30315450 61432030 4500696c     uxi.PT100 Cali.E
    6624:	3a746964 69787541 3154502e 43203030     dit:Auxi.PT100 C
    6634:	00696c61 61766e49 2064696c 206c6143     ali.Invalid Cal 
    6644:	6974704f 20006e6f 6c614320 61726269     Option.  Calibra
    6654:	6e6f6974 646f4d20 00202065 45202020     tion Mode  .   E
    6664:	7265746e 73615020 726f7773 20202064     nter Password   
    6674:	20202000 6e6f7257 61502067 6f777373     .   Wrong Passwo
    6684:	21216472 3d3d0020 3d3d3d3d 3d3d3d3d     rd!! .==========
    6694:	3d3d3d3d 3d3d3d3d 2d2d2d00 2d2d2d2d     ========.-------
    66a4:	2d2d2d2d 2d2d2d2d 2d2d2d2d 5f5f002d     -------------.__
    66b4:	5f5f5f5f 5f5f5f5f 5f5f5f5f 5f5f5f5f     ________________
    66c4:	42005f5f 203a6775 5f44434c 69726f48     __.Bug: LCD_Hori
    66d4:	7275437a 20202000 6f502020 65746c6c     zCur.     Pollte
    66e4:	20206863 00202020 20202020 74736e49     ch     .    Inst
    66f4:	656d7572 2073746e 53002020 6b636174     ruments   .Stack
    6704:	696e6f4d 69726f74 694b676e 4d200074     MonitoringKit. M
    6714:	6c65646f 4d455020 4b4d532d 20303220     odel PEM-SMK 20 
    6724:	65522000 20796461 20726f66 6f747541     . Ready for Auto
    6734:	72655a2d 4b28006f 20706565 6f746950     -Zero.(Keep Pito
    6744:	73412062 4f202e73 26007475 6d615320     b Ass. Out.& Sam
    6754:	6e696c70 75502067 4f20706d 00296666     pling Pump Off).
    6764:	72502020 20737365 65746e45 654b2072       Press Enter Ke
    6774:	20202079 44202000 676e696f 74754120     y   .  Doing Aut
    6784:	655a2d6f 20206f72 20200020 74754120     o-Zero   .   Aut
    6794:	655a2d6f 64206f72 20656e6f 00002020     o-Zero done   ..
    67a4:	74727173 00000000 00003b78 00003b2a     sqrt....x;..*;..
    67b4:	00003b58 00003ab2 00003b58 00003b4e     X;...:..X;..N;..
    67c4:	00003b58 00003ab2 00003b2a 00003b2a     X;...:..*;..*;..
    67d4:	00003b4e 00003ab2 00003aaa 00003aaa     N;...:...:...:..
    67e4:	00003aaa 00003b5e 00003f1c 00003f16     .:..^;...?...?..
    67f4:	00003f16 00003f0c 00003e6c 00003e6c     .?...?..l>..l>..
    6804:	00003f02 00003f0c 00003e6c 00003f02     .?...?..l>...?..
    6814:	00003e6c 00003f0c 00003e6a 00003e6a     l>...?..j>..j>..
    6824:	00003e6a 00003fa4 00004cf8 00004c94     j>...?...L...L..
    6834:	00004cdc 00004bc2 00004cdc 00004cd0     .L...K...L...L..
    6844:	00004cdc 00004bc2 00004c94 00004c94     .L...K...L...L..
    6854:	00004cd0 00004bc2 00004bb8 00004bb8     .L...K...K...K..
    6864:	00004bb8 00004f1c 000055c8 000057b6     .K...O...U...W..
    6874:	000057b6 000055a8 00005492 00005492     .W...U...T...T..
    6884:	0000559a 000055a8 00005492 0000559a     .U...U...T...U..
    6894:	00005492 000055a8 00005490 00005490     .T...U...T...T..
    68a4:	00005490 000057be                       .T...W..

000068ac <__sf_fake_stdin>:
	...

000068cc <__sf_fake_stdout>:
	...

000068ec <__sf_fake_stderr>:
	...

0000690c <_init>:
    690c:	b5f8      	push	{r3, r4, r5, r6, r7, lr}
    690e:	46c0      	nop			; (mov r8, r8)
    6910:	bcf8      	pop	{r3, r4, r5, r6, r7}
    6912:	bc08      	pop	{r3}
    6914:	469e      	mov	lr, r3
    6916:	4770      	bx	lr

00006918 <__init_array_start>:
    6918:	000000cd 	.word	0x000000cd

0000691c <_fini>:
    691c:	b5f8      	push	{r3, r4, r5, r6, r7, lr}
    691e:	46c0      	nop			; (mov r8, r8)
    6920:	bcf8      	pop	{r3, r4, r5, r6, r7}
    6922:	bc08      	pop	{r3}
    6924:	469e      	mov	lr, r3
    6926:	4770      	bx	lr

00006928 <__fini_array_start>:
    6928:	000000a5 	.word	0x000000a5
